 PDC Linker 7.3.
  Module 'Exe\componentese.exe' Map. Wed Jan 25 11:10:36 2012

Frame 001000   Size 0AB720.  Name=<   .text>, 	Chars=60000020h. [CER]
Frame 0AD000   Size 087B70.  Name=<  .rdata>, 	Chars=40000040h. [IR]
Frame 135000   Size 000920.  Name=<  VIPini>, 	Chars=40000040h. [IR]
Frame 136000   Size 000010.  Name=<  VIPsym>, 	Chars=40000040h. [IR]
Frame 137000   Size 001570.  Name=<  VIPtpl>, 	Chars=40000040h. [IR]
Frame 139000   Size 000190.  Name=< .gcroot>, 	Chars=C0000040h. [IRW]
Frame 13A000   Size 0003D0.  Name=<  PRODBG>, 	Chars=40000040h. [IR]
Frame 13B000   Size 0002C0.  Name=<   .data>, 	Chars=C0000040h. [IRW]

	--- S e g m e n t s : ---

Frame 001000   Size 0AB720.  Name=<   .text>, 	Chars=60000020h. [CER]
001000:000000 0AB720   .text::CODE::<no group> F=4
   001000   Module 'Obj\TaskWindow.3D15576A.obj'
   0041A0   Module 'Obj\ESKnowledgeBase.E3D90F95.obj'
   008680   Module 'Obj\exe.3FA7EDB2.obj'
   008B50   Module 'Obj\core.9AB527C6.obj'
   009BD0   Module 'Obj\exception.EF1B34A0.obj'
   00D000   Module 'Obj\controls.F62EA529.obj'
   028420   Module 'Obj\gui.B1A70004.obj'
   044C40   Module 'Obj\guiSupport.38798E3B.obj'
   046080   Module 'Obj\programControl.5C33CA36.obj'
   0460F0   Module 'Obj\vpiDomains.B56FBBDF.obj'
   046110   Module 'Obj\exe_api.E28F9DF0.obj'
   046500   Module 'Obj\messageControl.CCD407ED.obj'
   04AA10   Module 'Obj\stream.9636460D.obj'
   04B920   Module 'Obj\vpi.DCC9845E.obj'
   04F690   Module 'Obj\vpiToolbar.CEE9D0A0.obj'
   0587B0   Module 'Obj\fileSystem_api.42E6F592.obj'
   05A2D0   Module 'Obj\time_api.885A9F6D.obj'
   05B560   Module 'Obj\windowsAPI.92A1776C.obj'
   05B7F0   Module 'Obj\memory.D6D750BE.obj'
   05CC10   Module 'Obj\string.00BC1BE1.obj'
   061F60   Module 'Obj\exceptionDump.EEBF2A9C.obj'
   063430   Module 'Obj\fileSystem.D4345F5C.obj'
   06B620   Module 'Obj\math.EFFD1445.obj'
   06CE30   Module 'Obj\binary.9ACBD368.obj'
   0719C0   Module 'Obj\list.31E92F83.obj'
   0742F0   Module 'Obj\namedValue.547BB274.obj'
   075130   Module 'Obj\std.74E19363.obj'
   075600   Module 'Obj\runTime_api.CB430B85.obj'
   0760E0   Module 'Obj\boolean.F0E458C4.obj'
   076220   Module 'Obj\controlSupport.99797704.obj'
   080DF0   Module 'Obj\templateExpander.13D15020.obj'
   080FC0   Module 'Obj\gui_api.12FAE6A8.obj'
   081A00   Module 'Obj\systemInformation_api.89ED56AB.obj'
   081E70   Module 'Obj\errorPresentationDialog.9174D14B.obj'
   085570   Module 'Obj\monitorQueue.113845A9.obj'
   085B00   Module 'Obj\multiThread.F1B93BE6.obj'
   0876D0   Module 'Obj\multiThread_api.6CAB3B1E.obj'
   088250   Module 'Obj\outputStreamSupport.2B16F673.obj'
   0887A0   Module 'Obj\vpiEditor.ADC33AAB.obj'
   089EC0   Module 'Obj\inputStreamSupport.AAEBD08D.obj'
   08A1B0   Module 'Obj\locale_api.55F3BDA7.obj'
   08A310   Module 'Obj\string8.F7761F11.obj'
   08A600   Module 'Obj\Shell_api.FF07D5B3.obj'
   08A820   Module 'Obj\string8_api.1EF407E4.obj'
   08AA90   Module 'Obj\mapM_redBlack.DE0C8F8A.obj'
   08B0F0   Module 'Obj\setM_redBlack.60A8A024.obj'
   08B580   Module 'Obj\registry.7837C76D.obj'
   08C210   Module 'Obj\regExp.1C7438E9.obj'
   08C7A0   Module 'Obj\mapMSupport.291A338C.obj'
   08CD90   Module 'Obj\collectionMsupport.C5291E49.obj'
   08D0C0   Module 'Obj\redBlackTree.DD02B175.obj'
   0907A0   Module 'Obj\redBlackSet.ACE22A48.obj'
   093370   Module 'Obj\registry_api.CA39E249.obj'
   094670   Module 'Obj\DataBase.D5FA3BBF.obj'
   095680   Module 'Obj\Forms.80533223.obj'
   0AC050   Module 'Obj\ESEngineeringMachine.445B6113.obj'
   0AC430   Module 'Obj\main.A22FE9BF.obj'
   0AC490   Module 'Obj\Toolbars.B027D95B.obj'
   0AC520   Module '.\releasepe\VIPMain.obj'
   0AC590   Module '.\releasepe\VIPDll.obj'
   0AC700   Module '.\releasepe\VIPPE.obj'

Frame 0AD000   Size 087B70.  Name=<  .rdata>, 	Chars=40000040h. [IR]
0AD000:000000 0083DC   .rdata::.rdata::.rdata F=4
   0AD000   Module 'Obj\TaskWindow.3D15576A.obj'
   0AD070   Module 'Obj\ESKnowledgeBase.E3D90F95.obj'
   0AD270   Module 'Obj\exe.3FA7EDB2.obj'
   0AD2A0   Module 'Obj\core.9AB527C6.obj'
   0AD3F0   Module 'Obj\exception.EF1B34A0.obj'
   0ADA80   Module 'Obj\controls.F62EA529.obj'
   0AE650   Module 'Obj\gui.B1A70004.obj'
   0B16F0   Module 'Obj\guiSupport.38798E3B.obj'
   0B1790   Module 'Obj\programControl.5C33CA36.obj'
   0B1790   Module 'Obj\vpiDomains.B56FBBDF.obj'
   0B1790   Module 'Obj\exe_api.E28F9DF0.obj'
   0B17C0   Module 'Obj\messageControl.CCD407ED.obj'
   0B1920   Module 'Obj\stream.9636460D.obj'
   0B19C0   Module 'Obj\vpi.DCC9845E.obj'
   0B2690   Module 'Obj\vpiToolbar.CEE9D0A0.obj'
   0B2900   Module 'Obj\fileSystem_api.42E6F592.obj'
   0B2A50   Module 'Obj\time_api.885A9F6D.obj'
   0B2B00   Module 'Obj\windowsAPI.92A1776C.obj'
   0B2B10   Module 'Obj\memory.D6D750BE.obj'
   0B2B20   Module 'Obj\string.00BC1BE1.obj'
   0B2C30   Module 'Obj\exceptionDump.EEBF2A9C.obj'
   0B2C80   Module 'Obj\fileSystem.D4345F5C.obj'
   0B3070   Module 'Obj\math.EFFD1445.obj'
   0B31C0   Module 'Obj\binary.9ACBD368.obj'
   0B3370   Module 'Obj\list.31E92F83.obj'
   0B3440   Module 'Obj\namedValue.547BB274.obj'
   0B34A0   Module 'Obj\std.74E19363.obj'
   0B34A0   Module 'Obj\memory_api.B9DC98DC.obj'
   0B34A0   Module 'Obj\runTime_api.CB430B85.obj'
   0B34A0   Module 'Obj\boolean.F0E458C4.obj'
   0B34A0   Module 'Obj\controlSupport.99797704.obj'
   0B3920   Module 'Obj\templateExpander.13D15020.obj'
   0B3920   Module 'Obj\gui_api.12FAE6A8.obj'
   0B39E0   Module 'Obj\systemInformation_api.89ED56AB.obj'
   0B3A40   Module 'Obj\errorPresentationDialog.9174D14B.obj'
   0B3BC0   Module 'Obj\monitorQueue.113845A9.obj'
   0B3BD0   Module 'Obj\multiThread.F1B93BE6.obj'
   0B3C70   Module 'Obj\multiThread_api.6CAB3B1E.obj'
   0B3CE0   Module 'Obj\outputStreamSupport.2B16F673.obj'
   0B3D20   Module 'Obj\vpiEditor.ADC33AAB.obj'
   0B49A0   Module 'Obj\string_api.37767A8A.obj'
   0B49A0   Module 'Obj\inputStreamSupport.AAEBD08D.obj'
   0B49B0   Module 'Obj\locale_api.55F3BDA7.obj'
   0B49B0   Module 'Obj\string8.F7761F11.obj'
   0B49C0   Module 'Obj\Shell_api.FF07D5B3.obj'
   0B49E0   Module 'Obj\string8_api.1EF407E4.obj'
   0B4A10   Module 'Obj\collection.8EC54DFE.obj'
   0B4A10   Module 'Obj\mapM_redBlack.DE0C8F8A.obj'
   0B4A10   Module 'Obj\setM_redBlack.60A8A024.obj'
   0B4A10   Module 'Obj\registry.7837C76D.obj'
   0B4A90   Module 'Obj\regExp.1C7438E9.obj'
   0B4AB0   Module 'Obj\mapMSupport.291A338C.obj'
   0B4AB0   Module 'Obj\collectionMsupport.C5291E49.obj'
   0B4AB0   Module 'Obj\redBlackTree.DD02B175.obj'
   0B4AF0   Module 'Obj\redBlackSet.ACE22A48.obj'
   0B4B30   Module 'Obj\registry_api.CA39E249.obj'
   0B4BD0   Module 'Obj\DataBase.D5FA3BBF.obj'
   0B4BE0   Module 'Obj\Forms.80533223.obj'
   0B4F70   Module 'Obj\ESEngineeringMachine.445B6113.obj'
   0B4FB0   Module 'Obj\main.A22FE9BF.obj'
   0B4FE0   Module 'Obj\Toolbars.B027D95B.obj'
   0B5330   Module '.\releasepe\VIPPE.obj'
0AD000:0083E0 064B20   VIPClass::VIPClass::.rdata F=4
   0B53E0   Module 'Obj\TaskWindow.3D15576A.obj'
   0B90B0   Module 'Obj\ESKnowledgeBase.E3D90F95.obj'
   0B9640   Module 'Obj\exe.3FA7EDB2.obj'
   0B97B0   Module 'Obj\core.9AB527C6.obj'
   0BA4A0   Module 'Obj\exception.EF1B34A0.obj'
   0BAC90   Module 'Obj\controls.F62EA529.obj'
   0D5250   Module 'Obj\gui.B1A70004.obj'
   0E3AB0   Module 'Obj\guiSupport.38798E3B.obj'
   0E3F70   Module 'Obj\programControl.5C33CA36.obj'
   0E4080   Module 'Obj\vpiDomains.B56FBBDF.obj'
   0E59F0   Module 'Obj\exe_api.E28F9DF0.obj'
   0E5C40   Module 'Obj\messageControl.CCD407ED.obj'
   0EA4D0   Module 'Obj\stream.9636460D.obj'
   0EAAD0   Module 'Obj\vpi.DCC9845E.obj'
   0EAE00   Module 'Obj\vpiToolbar.CEE9D0A0.obj'
   0EB710   Module 'Obj\fileSystem_api.42E6F592.obj'
   0EC320   Module 'Obj\time_api.885A9F6D.obj'
   0EC5E0   Module 'Obj\windowsAPI.92A1776C.obj'
   0EC6D0   Module 'Obj\memory.D6D750BE.obj'
   0ED0E0   Module 'Obj\string.00BC1BE1.obj'
   0EDC10   Module 'Obj\exceptionDump.EEBF2A9C.obj'
   0EDCB0   Module 'Obj\fileSystem.D4345F5C.obj'
   0EEF60   Module 'Obj\math.EFFD1445.obj'
   0EF0C0   Module 'Obj\binary.9ACBD368.obj'
   0EF9B0   Module 'Obj\list.31E92F83.obj'
   0EFF00   Module 'Obj\namedValue.547BB274.obj'
   0EFF70   Module 'Obj\std.74E19363.obj'
   0EFFC0   Module 'Obj\memory_api.B9DC98DC.obj'
   0F0160   Module 'Obj\runTime_api.CB430B85.obj'
   0F0310   Module 'Obj\boolean.F0E458C4.obj'
   0F0370   Module 'Obj\controlSupport.99797704.obj'
   0FA8A0   Module 'Obj\templateExpander.13D15020.obj'
   0FA970   Module 'Obj\gui_api.12FAE6A8.obj'
   0FBE40   Module 'Obj\systemInformation_api.89ED56AB.obj'
   0FC200   Module 'Obj\errorPresentationDialog.9174D14B.obj'
   0FEDF0   Module 'Obj\monitorQueue.113845A9.obj'
   0FF090   Module 'Obj\multiThread.F1B93BE6.obj'
   0FFDD0   Module 'Obj\multiThread_api.6CAB3B1E.obj'
   1001B0   Module 'Obj\outputStreamSupport.2B16F673.obj'
   100410   Module 'Obj\vpiEditor.ADC33AAB.obj'
   100E40   Module 'Obj\string_api.37767A8A.obj'
   100ED0   Module 'Obj\inputStreamSupport.AAEBD08D.obj'
   1010A0   Module 'Obj\locale_api.55F3BDA7.obj'
   1011C0   Module 'Obj\string8.F7761F11.obj'
   101220   Module 'Obj\Shell_api.FF07D5B3.obj'
   101890   Module 'Obj\string8_api.1EF407E4.obj'
   1019C0   Module 'Obj\mapM_redBlack.DE0C8F8A.obj'
   1020F0   Module 'Obj\setM_redBlack.60A8A024.obj'
   102560   Module 'Obj\registry.7837C76D.obj'
   102740   Module 'Obj\regExp.1C7438E9.obj'
   1028E0   Module 'Obj\mapMSupport.291A338C.obj'
   102CC0   Module 'Obj\collectionMsupport.C5291E49.obj'
   102F30   Module 'Obj\redBlackTree.DD02B175.obj'
   103270   Module 'Obj\redBlackSet.ACE22A48.obj'
   103480   Module 'Obj\registry_api.CA39E249.obj'
   103610   Module 'Obj\DataBase.D5FA3BBF.obj'
   1037C0   Module 'Obj\Forms.80533223.obj'
   1197A0   Module 'Obj\ESEngineeringMachine.445B6113.obj'
   1198A0   Module 'Obj\main.A22FE9BF.obj'
   119DF0   Module 'Obj\Toolbars.B027D95B.obj'
0AD000:06CF00 0070D0   VIPInter::VIPInter::.rdata F=4
   119F00   Module 'Obj\TaskWindow.3D15576A.obj'
   11A2C0   Module 'Obj\ESKnowledgeBase.E3D90F95.obj'
   11EF30   Module 'Obj\gui.B1A70004.obj'
   11F600   Module 'Obj\exe_api.E28F9DF0.obj'
   11F6E0   Module 'Obj\messageControl.CCD407ED.obj'
   11FFC0   Module 'Obj\fileSystem.D4345F5C.obj'
   120170   Module 'Obj\list.31E92F83.obj'
   120860   Module 'Obj\templateExpander.13D15020.obj'
   120900   Module 'Obj\errorPresentationDialog.9174D14B.obj'
   1209D0   Module 'Obj\mapMSupport.291A338C.obj'
   120C00   Module 'Obj\collectionMsupport.C5291E49.obj'
   120ED0   Module 'Obj\ESEngineeringMachine.445B6113.obj'
0AD000:073FD0 013B98   VIPStrs::VIPStrs::.rdata F=4
   120FD0   Module 'Obj\TaskWindow.3D15576A.obj'
   1211F4   Module 'Obj\ESKnowledgeBase.E3D90F95.obj'
   121A34   Module 'Obj\exe.3FA7EDB2.obj'
   121B8C   Module 'Obj\core.9AB527C6.obj'
   121DF4   Module 'Obj\exception.EF1B34A0.obj'
   1249B4   Module 'Obj\controls.F62EA529.obj'
   126500   Module 'Obj\gui.B1A70004.obj'
   1277D4   Module 'Obj\guiSupport.38798E3B.obj'
   127CA0   Module 'Obj\programControl.5C33CA36.obj'
   127DEC   Module 'Obj\vpiDomains.B56FBBDF.obj'
   127F14   Module 'Obj\exe_api.E28F9DF0.obj'
   1280A8   Module 'Obj\messageControl.CCD407ED.obj'
   128344   Module 'Obj\stream.9636460D.obj'
   128BF0   Module 'Obj\vpi.DCC9845E.obj'
   12C2C0   Module 'Obj\vpiToolbar.CEE9D0A0.obj'
   12C360   Module 'Obj\fileSystem_api.42E6F592.obj'
   12C924   Module 'Obj\time_api.885A9F6D.obj'
   12CDC8   Module 'Obj\windowsAPI.92A1776C.obj'
   12CE54   Module 'Obj\memory.D6D750BE.obj'
   12CF00   Module 'Obj\string.00BC1BE1.obj'
   12D82C   Module 'Obj\exceptionDump.EEBF2A9C.obj'
   12DC00   Module 'Obj\fileSystem.D4345F5C.obj'
   12E704   Module 'Obj\math.EFFD1445.obj'
   12EA80   Module 'Obj\binary.9ACBD368.obj'
   12EFC0   Module 'Obj\list.31E92F83.obj'
   12F180   Module 'Obj\namedValue.547BB274.obj'
   12F408   Module 'Obj\std.74E19363.obj'
   12F488   Module 'Obj\memory_api.B9DC98DC.obj'
   12F528   Module 'Obj\runTime_api.CB430B85.obj'
   12FDE4   Module 'Obj\boolean.F0E458C4.obj'
   12FE8C   Module 'Obj\controlSupport.99797704.obj'
   130488   Module 'Obj\templateExpander.13D15020.obj'
   1305BC   Module 'Obj\gui_api.12FAE6A8.obj'
   13093C   Module 'Obj\systemInformation_api.89ED56AB.obj'
   130BC8   Module 'Obj\errorPresentationDialog.9174D14B.obj'
   130F68   Module 'Obj\monitorQueue.113845A9.obj'
   13115C   Module 'Obj\multiThread.F1B93BE6.obj'
   1318F8   Module 'Obj\multiThread_api.6CAB3B1E.obj'
   131D1C   Module 'Obj\outputStreamSupport.2B16F673.obj'
   131EEC   Module 'Obj\vpiEditor.ADC33AAB.obj'
   131F88   Module 'Obj\string_api.37767A8A.obj'
   132028   Module 'Obj\inputStreamSupport.AAEBD08D.obj'
   13221C   Module 'Obj\locale_api.55F3BDA7.obj'
   1323A8   Module 'Obj\string8.F7761F11.obj'
   13246C   Module 'Obj\Shell_api.FF07D5B3.obj'
   132CA4   Module 'Obj\string8_api.1EF407E4.obj'
   132E4C   Module 'Obj\collection.8EC54DFE.obj'
   132ED8   Module 'Obj\mapM_redBlack.DE0C8F8A.obj'
   13302C   Module 'Obj\setM_redBlack.60A8A024.obj'
   133180   Module 'Obj\registry.7837C76D.obj'
   133564   Module 'Obj\regExp.1C7438E9.obj'
   133788   Module 'Obj\mapMSupport.291A338C.obj'
   13393C   Module 'Obj\collectionMsupport.C5291E49.obj'
   133AD8   Module 'Obj\redBlackTree.DD02B175.obj'
   133BD8   Module 'Obj\redBlackSet.ACE22A48.obj'
   133CF4   Module 'Obj\registry_api.CA39E249.obj'
   133FE0   Module 'Obj\DataBase.D5FA3BBF.obj'
   1340A0   Module 'Obj\Forms.80533223.obj'
   134954   Module 'Obj\ESEngineeringMachine.445B6113.obj'
   134A7C   Module 'Obj\main.A22FE9BF.obj'
   134A9C   Module 'Obj\Toolbars.B027D95B.obj'

Frame 135000   Size 000920.  Name=<  VIPini>, 	Chars=40000040h. [IR]
135000:000000 000004   VIPini$A::VIPini$A::VIPini F=4
   135000   Module 'Obj\main.A22FE9BF.obj'
135000:000004 000404   VIPini$C::VIPini$C::VIPini F=4
   135004   Module 'Obj\TaskWindow.3D15576A.obj'
   13501C   Module 'Obj\ESKnowledgeBase.E3D90F95.obj'
   135114   Module 'Obj\exe.3FA7EDB2.obj'
   135118   Module 'Obj\core.9AB527C6.obj'
   13511C   Module 'Obj\exception.EF1B34A0.obj'
   135130   Module 'Obj\controls.F62EA529.obj'
   13517C   Module 'Obj\gui.B1A70004.obj'
   1351CC   Module 'Obj\guiSupport.38798E3B.obj'
   1351D4   Module 'Obj\programControl.5C33CA36.obj'
   1351D8   Module 'Obj\vpiDomains.B56FBBDF.obj'
   1351E0   Module 'Obj\exe_api.E28F9DF0.obj'
   1351EC   Module 'Obj\messageControl.CCD407ED.obj'
   135218   Module 'Obj\stream.9636460D.obj'
   13522C   Module 'Obj\vpi.DCC9845E.obj'
   135238   Module 'Obj\vpiToolbar.CEE9D0A0.obj'
   13523C   Module 'Obj\fileSystem_api.42E6F592.obj'
   135248   Module 'Obj\time_api.885A9F6D.obj'
   135250   Module 'Obj\windowsAPI.92A1776C.obj'
   135254   Module 'Obj\memory.D6D750BE.obj'
   135260   Module 'Obj\string.00BC1BE1.obj'
   135270   Module 'Obj\exceptionDump.EEBF2A9C.obj'
   135274   Module 'Obj\fileSystem.D4345F5C.obj'
   13529C   Module 'Obj\math.EFFD1445.obj'
   1352A4   Module 'Obj\binary.9ACBD368.obj'
   1352B4   Module 'Obj\list.31E92F83.obj'
   1352E0   Module 'Obj\namedValue.547BB274.obj'
   1352E4   Module 'Obj\std.74E19363.obj'
   1352E8   Module 'Obj\memory_api.B9DC98DC.obj'
   1352EC   Module 'Obj\runTime_api.CB430B85.obj'
   1352F0   Module 'Obj\boolean.F0E458C4.obj'
   1352F4   Module 'Obj\controlSupport.99797704.obj'
   135310   Module 'Obj\templateExpander.13D15020.obj'
   135318   Module 'Obj\gui_api.12FAE6A8.obj'
   135320   Module 'Obj\systemInformation_api.89ED56AB.obj'
   135328   Module 'Obj\errorPresentationDialog.9174D14B.obj'
   135330   Module 'Obj\monitorQueue.113845A9.obj'
   135334   Module 'Obj\multiThread.F1B93BE6.obj'
   135354   Module 'Obj\multiThread_api.6CAB3B1E.obj'
   13535C   Module 'Obj\outputStreamSupport.2B16F673.obj'
   135360   Module 'Obj\vpiEditor.ADC33AAB.obj'
   135368   Module 'Obj\string_api.37767A8A.obj'
   13536C   Module 'Obj\inputStreamSupport.AAEBD08D.obj'
   135370   Module 'Obj\locale_api.55F3BDA7.obj'
   135378   Module 'Obj\string8.F7761F11.obj'
   13537C   Module 'Obj\Shell_api.FF07D5B3.obj'
   135384   Module 'Obj\string8_api.1EF407E4.obj'
   13538C   Module 'Obj\collection.8EC54DFE.obj'
   13538C   Module 'Obj\mapM_redBlack.DE0C8F8A.obj'
   135390   Module 'Obj\setM_redBlack.60A8A024.obj'
   135394   Module 'Obj\registry.7837C76D.obj'
   13539C   Module 'Obj\regExp.1C7438E9.obj'
   1353A4   Module 'Obj\mapMSupport.291A338C.obj'
   1353B0   Module 'Obj\collectionMsupport.C5291E49.obj'
   1353BC   Module 'Obj\redBlackTree.DD02B175.obj'
   1353C0   Module 'Obj\redBlackSet.ACE22A48.obj'
   1353C4   Module 'Obj\registry_api.CA39E249.obj'
   1353CC   Module 'Obj\DataBase.D5FA3BBF.obj'
   1353D0   Module 'Obj\Forms.80533223.obj'
   1353EC   Module 'Obj\ESEngineeringMachine.445B6113.obj'
   1353F4   Module 'Obj\main.A22FE9BF.obj'
   135400   Module 'Obj\Toolbars.B027D95B.obj'
135000:000408 000008   VIPini$E::VIPini$E::VIPini F=4
   135408   Module 'Obj\main.A22FE9BF.obj'

Frame 136000   Size 000010.  Name=<  VIPsym>, 	Chars=40000040h. [IR]
136000:000000 000004   VIPsym$A::VIPsym$A::VIPsym F=4
   136000   Module 'Obj\main.A22FE9BF.obj'
136000:000004 000000   VIPsym$C::VIPsym$C::VIPsym F=4
   136004   Module 'Obj\TaskWindow.3D15576A.obj'
   136004   Module 'Obj\ESKnowledgeBase.E3D90F95.obj'
   136004   Module 'Obj\exe.3FA7EDB2.obj'
   136004   Module 'Obj\core.9AB527C6.obj'
   136004   Module 'Obj\exception.EF1B34A0.obj'
   136004   Module 'Obj\controls.F62EA529.obj'
   136004   Module 'Obj\gui.B1A70004.obj'
   136004   Module 'Obj\guiSupport.38798E3B.obj'
   136004   Module 'Obj\programControl.5C33CA36.obj'
   136004   Module 'Obj\vpiDomains.B56FBBDF.obj'
   136004   Module 'Obj\exe_api.E28F9DF0.obj'
   136004   Module 'Obj\messageControl.CCD407ED.obj'
   136004   Module 'Obj\stream.9636460D.obj'
   136004   Module 'Obj\vpi.DCC9845E.obj'
   136004   Module 'Obj\vpiToolbar.CEE9D0A0.obj'
   136004   Module 'Obj\fileSystem_api.42E6F592.obj'
   136004   Module 'Obj\time_api.885A9F6D.obj'
   136004   Module 'Obj\windowsAPI.92A1776C.obj'
   136004   Module 'Obj\memory.D6D750BE.obj'
   136004   Module 'Obj\string.00BC1BE1.obj'
   136004   Module 'Obj\exceptionDump.EEBF2A9C.obj'
   136004   Module 'Obj\fileSystem.D4345F5C.obj'
   136004   Module 'Obj\math.EFFD1445.obj'
   136004   Module 'Obj\binary.9ACBD368.obj'
   136004   Module 'Obj\list.31E92F83.obj'
   136004   Module 'Obj\namedValue.547BB274.obj'
   136004   Module 'Obj\std.74E19363.obj'
   136004   Module 'Obj\memory_api.B9DC98DC.obj'
   136004   Module 'Obj\runTime_api.CB430B85.obj'
   136004   Module 'Obj\boolean.F0E458C4.obj'
   136004   Module 'Obj\controlSupport.99797704.obj'
   136004   Module 'Obj\templateExpander.13D15020.obj'
   136004   Module 'Obj\gui_api.12FAE6A8.obj'
   136004   Module 'Obj\systemInformation_api.89ED56AB.obj'
   136004   Module 'Obj\errorPresentationDialog.9174D14B.obj'
   136004   Module 'Obj\monitorQueue.113845A9.obj'
   136004   Module 'Obj\multiThread.F1B93BE6.obj'
   136004   Module 'Obj\multiThread_api.6CAB3B1E.obj'
   136004   Module 'Obj\outputStreamSupport.2B16F673.obj'
   136004   Module 'Obj\vpiEditor.ADC33AAB.obj'
   136004   Module 'Obj\string_api.37767A8A.obj'
   136004   Module 'Obj\inputStreamSupport.AAEBD08D.obj'
   136004   Module 'Obj\locale_api.55F3BDA7.obj'
   136004   Module 'Obj\string8.F7761F11.obj'
   136004   Module 'Obj\Shell_api.FF07D5B3.obj'
   136004   Module 'Obj\string8_api.1EF407E4.obj'
   136004   Module 'Obj\collection.8EC54DFE.obj'
   136004   Module 'Obj\mapM_redBlack.DE0C8F8A.obj'
   136004   Module 'Obj\setM_redBlack.60A8A024.obj'
   136004   Module 'Obj\registry.7837C76D.obj'
   136004   Module 'Obj\regExp.1C7438E9.obj'
   136004   Module 'Obj\mapMSupport.291A338C.obj'
   136004   Module 'Obj\collectionMsupport.C5291E49.obj'
   136004   Module 'Obj\redBlackTree.DD02B175.obj'
   136004   Module 'Obj\redBlackSet.ACE22A48.obj'
   136004   Module 'Obj\registry_api.CA39E249.obj'
   136004   Module 'Obj\DataBase.D5FA3BBF.obj'
   136004   Module 'Obj\Forms.80533223.obj'
   136004   Module 'Obj\ESEngineeringMachine.445B6113.obj'
   136004   Module 'Obj\main.A22FE9BF.obj'
   136004   Module 'Obj\Toolbars.B027D95B.obj'
136000:000004 000008   VIPsym$E::VIPsym$E::VIPsym F=4
   136004   Module 'Obj\main.A22FE9BF.obj'

Frame 137000   Size 001570.  Name=<  VIPtpl>, 	Chars=40000040h. [IR]
137000:000000 000004   VIPtpl$A::VIPtpl$A::VIPtpl F=4
   137000   Module 'Obj\main.A22FE9BF.obj'
137000:000004 001558   VIPtpl$C::VIPtpl$C::VIPtpl F=4
   137004   Module 'Obj\TaskWindow.3D15576A.obj'
   13701C   Module 'Obj\ESKnowledgeBase.E3D90F95.obj'
   13724C   Module 'Obj\exe.3FA7EDB2.obj'
   137254   Module 'Obj\core.9AB527C6.obj'
   13732C   Module 'Obj\exception.EF1B34A0.obj'
   137348   Module 'Obj\controls.F62EA529.obj'
   1373C8   Module 'Obj\gui.B1A70004.obj'
   137458   Module 'Obj\guiSupport.38798E3B.obj'
   137460   Module 'Obj\programControl.5C33CA36.obj'
   137468   Module 'Obj\vpiDomains.B56FBBDF.obj'
   137544   Module 'Obj\exe_api.E28F9DF0.obj'
   137550   Module 'Obj\messageControl.CCD407ED.obj'
   13778C   Module 'Obj\stream.9636460D.obj'
   13779C   Module 'Obj\vpi.DCC9845E.obj'
   1377A8   Module 'Obj\vpiToolbar.CEE9D0A0.obj'
   1377D0   Module 'Obj\fileSystem_api.42E6F592.obj'
   137820   Module 'Obj\time_api.885A9F6D.obj'
   137830   Module 'Obj\windowsAPI.92A1776C.obj'
   137834   Module 'Obj\memory.D6D750BE.obj'
   1378A0   Module 'Obj\string.00BC1BE1.obj'
   1378B8   Module 'Obj\exceptionDump.EEBF2A9C.obj'
   1378B8   Module 'Obj\fileSystem.D4345F5C.obj'
   137930   Module 'Obj\math.EFFD1445.obj'
   137954   Module 'Obj\binary.9ACBD368.obj'
   13796C   Module 'Obj\list.31E92F83.obj'
   1379B8   Module 'Obj\namedValue.547BB274.obj'
   1379B8   Module 'Obj\std.74E19363.obj'
   1379B8   Module 'Obj\memory_api.B9DC98DC.obj'
   1379C0   Module 'Obj\runTime_api.CB430B85.obj'
   1379CC   Module 'Obj\boolean.F0E458C4.obj'
   1379CC   Module 'Obj\controlSupport.99797704.obj'
   137BCC   Module 'Obj\templateExpander.13D15020.obj'
   137BD4   Module 'Obj\gui_api.12FAE6A8.obj'
   137CA0   Module 'Obj\systemInformation_api.89ED56AB.obj'
   137CF4   Module 'Obj\errorPresentationDialog.9174D14B.obj'
   137ED4   Module 'Obj\monitorQueue.113845A9.obj'
   137EE4   Module 'Obj\multiThread.F1B93BE6.obj'
   137F14   Module 'Obj\multiThread_api.6CAB3B1E.obj'
   137F2C   Module 'Obj\outputStreamSupport.2B16F673.obj'
   137F38   Module 'Obj\vpiEditor.ADC33AAB.obj'
   137F78   Module 'Obj\string_api.37767A8A.obj'
   137F78   Module 'Obj\inputStreamSupport.AAEBD08D.obj'
   137FAC   Module 'Obj\locale_api.55F3BDA7.obj'
   137FAC   Module 'Obj\string8.F7761F11.obj'
   137FB0   Module 'Obj\Shell_api.FF07D5B3.obj'
   137FF8   Module 'Obj\string8_api.1EF407E4.obj'
   137FF8   Module 'Obj\collection.8EC54DFE.obj'
   137FF8   Module 'Obj\mapM_redBlack.DE0C8F8A.obj'
   138000   Module 'Obj\setM_redBlack.60A8A024.obj'
   138008   Module 'Obj\registry.7837C76D.obj'
   13800C   Module 'Obj\regExp.1C7438E9.obj'
   138014   Module 'Obj\mapMSupport.291A338C.obj'
   138024   Module 'Obj\collectionMsupport.C5291E49.obj'
   13805C   Module 'Obj\redBlackTree.DD02B175.obj'
   138078   Module 'Obj\redBlackSet.ACE22A48.obj'
   138088   Module 'Obj\registry_api.CA39E249.obj'
   1380D0   Module 'Obj\DataBase.D5FA3BBF.obj'
   1380D4   Module 'Obj\Forms.80533223.obj'
   1382F4   Module 'Obj\ESEngineeringMachine.445B6113.obj'
   1384F8   Module 'Obj\main.A22FE9BF.obj'
   13855C   Module 'Obj\Toolbars.B027D95B.obj'
137000:00155C 000008   VIPtpl$E::VIPtpl$E::VIPtpl F=4
   13855C   Module 'Obj\main.A22FE9BF.obj'

Frame 139000   Size 000190.  Name=< .gcroot>, 	Chars=C0000040h. [IRW]
139000:000000 000184   .gcroot::.gcroot::.gcroot F=4
   139000   Module 'Obj\ESKnowledgeBase.E3D90F95.obj'
   13904C   Module 'Obj\exe.3FA7EDB2.obj'
   139054   Module 'Obj\controls.F62EA529.obj'
   139084   Module 'Obj\gui.B1A70004.obj'
   139098   Module 'Obj\stream.9636460D.obj'
   1390A4   Module 'Obj\vpi.DCC9845E.obj'
   1390C0   Module 'Obj\vpiToolbar.CEE9D0A0.obj'
   139134   Module 'Obj\runTime_api.CB430B85.obj'
   139138   Module 'Obj\errorPresentationDialog.9174D14B.obj'
   139168   Module 'Obj\multiThread.F1B93BE6.obj'
   139174   Module 'Obj\vpiEditor.ADC33AAB.obj'
   13917C   Module 'Obj\DataBase.D5FA3BBF.obj'

Frame 13A000   Size 0003D0.  Name=<  PRODBG>, 	Chars=40000040h. [IR]
13A000:000000 0003D0   PRODBG::PRODBG::PRODBG F=4
   13A000   Module 'Obj\TaskWindow.3D15576A.obj'
   13A010   Module 'Obj\ESKnowledgeBase.E3D90F95.obj'
   13A020   Module 'Obj\exe.3FA7EDB2.obj'
   13A030   Module 'Obj\core.9AB527C6.obj'
   13A040   Module 'Obj\exception.EF1B34A0.obj'
   13A050   Module 'Obj\controls.F62EA529.obj'
   13A060   Module 'Obj\gui.B1A70004.obj'
   13A070   Module 'Obj\guiSupport.38798E3B.obj'
   13A080   Module 'Obj\programControl.5C33CA36.obj'
   13A090   Module 'Obj\vpiDomains.B56FBBDF.obj'
   13A0A0   Module 'Obj\exe_api.E28F9DF0.obj'
   13A0B0   Module 'Obj\messageControl.CCD407ED.obj'
   13A0C0   Module 'Obj\stream.9636460D.obj'
   13A0D0   Module 'Obj\vpi.DCC9845E.obj'
   13A0E0   Module 'Obj\vpiToolbar.CEE9D0A0.obj'
   13A0F0   Module 'Obj\fileSystem_api.42E6F592.obj'
   13A100   Module 'Obj\time_api.885A9F6D.obj'
   13A110   Module 'Obj\windowsAPI.92A1776C.obj'
   13A120   Module 'Obj\memory.D6D750BE.obj'
   13A130   Module 'Obj\string.00BC1BE1.obj'
   13A140   Module 'Obj\exceptionDump.EEBF2A9C.obj'
   13A150   Module 'Obj\fileSystem.D4345F5C.obj'
   13A160   Module 'Obj\math.EFFD1445.obj'
   13A170   Module 'Obj\binary.9ACBD368.obj'
   13A180   Module 'Obj\list.31E92F83.obj'
   13A190   Module 'Obj\namedValue.547BB274.obj'
   13A1A0   Module 'Obj\std.74E19363.obj'
   13A1B0   Module 'Obj\memory_api.B9DC98DC.obj'
   13A1C0   Module 'Obj\runTime_api.CB430B85.obj'
   13A1D0   Module 'Obj\boolean.F0E458C4.obj'
   13A1E0   Module 'Obj\controlSupport.99797704.obj'
   13A1F0   Module 'Obj\templateExpander.13D15020.obj'
   13A200   Module 'Obj\gui_api.12FAE6A8.obj'
   13A210   Module 'Obj\systemInformation_api.89ED56AB.obj'
   13A220   Module 'Obj\errorPresentationDialog.9174D14B.obj'
   13A230   Module 'Obj\monitorQueue.113845A9.obj'
   13A240   Module 'Obj\multiThread.F1B93BE6.obj'
   13A250   Module 'Obj\multiThread_api.6CAB3B1E.obj'
   13A260   Module 'Obj\outputStreamSupport.2B16F673.obj'
   13A270   Module 'Obj\vpiEditor.ADC33AAB.obj'
   13A280   Module 'Obj\string_api.37767A8A.obj'
   13A290   Module 'Obj\inputStreamSupport.AAEBD08D.obj'
   13A2A0   Module 'Obj\locale_api.55F3BDA7.obj'
   13A2B0   Module 'Obj\string8.F7761F11.obj'
   13A2C0   Module 'Obj\Shell_api.FF07D5B3.obj'
   13A2D0   Module 'Obj\string8_api.1EF407E4.obj'
   13A2E0   Module 'Obj\collection.8EC54DFE.obj'
   13A2F0   Module 'Obj\mapM_redBlack.DE0C8F8A.obj'
   13A300   Module 'Obj\setM_redBlack.60A8A024.obj'
   13A310   Module 'Obj\registry.7837C76D.obj'
   13A320   Module 'Obj\regExp.1C7438E9.obj'
   13A330   Module 'Obj\mapMSupport.291A338C.obj'
   13A340   Module 'Obj\collectionMsupport.C5291E49.obj'
   13A350   Module 'Obj\redBlackTree.DD02B175.obj'
   13A360   Module 'Obj\redBlackSet.ACE22A48.obj'
   13A370   Module 'Obj\registry_api.CA39E249.obj'
   13A380   Module 'Obj\DataBase.D5FA3BBF.obj'
   13A390   Module 'Obj\Forms.80533223.obj'
   13A3A0   Module 'Obj\ESEngineeringMachine.445B6113.obj'
   13A3B0   Module 'Obj\main.A22FE9BF.obj'
   13A3C0   Module 'Obj\Toolbars.B027D95B.obj'

Frame 13B000   Size 0002C0.  Name=<   .data>, 	Chars=C0000040h. [IRW]
13B000:000000 0002B0   .data::DATA::DGROUP F=4
   13B000   Module 'Obj\TaskWindow.3D15576A.obj'
   13B010   Module 'Obj\ESKnowledgeBase.E3D90F95.obj'
   13B020   Module 'Obj\exception.EF1B34A0.obj'
   13B028   Module 'Obj\controls.F62EA529.obj'
   13B0B8   Module 'Obj\gui.B1A70004.obj'
   13B10C   Module 'Obj\guiSupport.38798E3B.obj'
   13B114   Module 'Obj\messageControl.CCD407ED.obj'
   13B124   Module 'Obj\stream.9636460D.obj'
   13B13C   Module 'Obj\vpi.DCC9845E.obj'
   13B144   Module 'Obj\fileSystem_api.42E6F592.obj'
   13B148   Module 'Obj\time_api.885A9F6D.obj'
   13B14C   Module 'Obj\memory.D6D750BE.obj'
   13B154   Module 'Obj\string.00BC1BE1.obj'
   13B164   Module 'Obj\fileSystem.D4345F5C.obj'
   13B17C   Module 'Obj\binary.9ACBD368.obj'
   13B18C   Module 'Obj\runTime_api.CB430B85.obj'
   13B190   Module 'Obj\controlSupport.99797704.obj'
   13B1CC   Module 'Obj\errorPresentationDialog.9174D14B.obj'
   13B1E0   Module 'Obj\monitorQueue.113845A9.obj'
   13B1E8   Module 'Obj\multiThread.F1B93BE6.obj'
   13B228   Module 'Obj\outputStreamSupport.2B16F673.obj'
   13B230   Module 'Obj\vpiEditor.ADC33AAB.obj'
   13B238   Module 'Obj\inputStreamSupport.AAEBD08D.obj'
   13B240   Module 'Obj\mapM_redBlack.DE0C8F8A.obj'
   13B248   Module 'Obj\setM_redBlack.60A8A024.obj'
   13B250   Module 'Obj\regExp.1C7438E9.obj'
   13B258   Module 'Obj\mapMSupport.291A338C.obj'
   13B260   Module 'Obj\collectionMsupport.C5291E49.obj'
   13B268   Module 'Obj\DataBase.D5FA3BBF.obj'
   13B270   Module 'Obj\Forms.80533223.obj'
   13B2A8   Module 'Obj\ESEngineeringMachine.445B6113.obj'
13B000:0002B0 00000C   .bss::BSS::DGROUP F=4
   13B2B0   Module '.\releasepe\VIPDll.obj'

	     ------- Names by value Map ---------
Frame 001000   Size 0AB720.  Name=<   .text>, 	Chars=60000020h. [CER]
001000:000000 0AB720   .text::CODE::<no group> F=4
--- From 'Obj\TaskWindow.3D15576A.obj'
01:00001000 ?classInfo@taskWindow@@SAXPAPB_W0@Z  (Idle)
01:0000101C ?new@taskWindow@@SAXQAV1@@@Z 
01:00001038 ?onShow@taskWindow@@SAXQAV1@@QAVwindow@@@H@Z 
01:00001068 ?onDestroy@taskWindow@@SAXQAV1@@QAVwindow@@@@Z 
01:00001070 ?onHelpAbout@taskWindow@@SAXQAV1@@QAVwindow@@@PBUmenuTag@@@Z 
01:0000108C ?onFileExit@taskWindow@@SAXQAV1@@QAVwindow@@@PBUmenuTag@@@Z 
01:00001098 ?onSizeChanged@taskWindow@@SAXQAV1@@QAVwindow@@@@Z 
01:000010C0 ?onDatabaseExpertsystemFilldatabase@taskWindow@@SAXQAV1@@QAVwindow@@@PBUmenuTag@@@Z 
01:000010CC ?onDatabaseExpertsystemListdatabase@taskWindow@@SAXQAV1@@QAVwindow@@@PBUmenuTag@@@Z 
01:000010D8 ?onRunExpertsystemRun@taskWindow@@SAXQAV1@@QAVwindow@@@PBUmenuTag@@@Z 
01:000010F4 ?onDatabaseFillDatabaseAddPipattern@taskWindow@@SAXQAV1@@QAVwindow@@@PBUmenuTag@@@Z 
01:0000111C ?onCertainfactorNegacion@taskWindow@@SAXQAV1@@QAVwindow@@@PBUmenuTag@@@Z 
01:00001144 ?onCertainfactorConjuncionDeVariosHechos@taskWindow@@SAXQAV1@@QAVwindow@@@PBUmenuTag@@@Z 
01:0000116C ?onCertainfactorDisyuncion@taskWindow@@SAXQAV1@@QAVwindow@@@PBUmenuTag@@@Z 
01:00001194 ?onCertainfactorConsecuanteDeLaRegla@taskWindow@@SAXQAV1@@QAVwindow@@@PBUmenuTag@@@Z 
01:000011BC ?onCertainfactorEfectoGlobalDeVariasReglas@taskWindow@@SAXQAV1@@QAVwindow@@@PBUmenuTag@@@Z 
01:000011E4 ?generatedInitialize@taskWindow@@SAXQAV1@@@Z 
01:00001550 ?generatedOnShow@taskWindow@@SAXQAV1@@QAVwindow@@@H@Z 
--- From 'Obj\main.A22FE9BF.obj'
01:000015A8 ?_new@taskWindow@@SAXPAPAV1@@@Z 
--- From 'Obj\TaskWindow.3D15576A.obj'
01:000015D0 ?classInfo@aboutDialog@@SAXPAPB_W0@Z  (Idle)
01:000015EC ?_display@aboutDialog@@SAXQAVwindow@@@PAPAV1@@@Z 
01:00001614 ?new@aboutDialog@@SAXQAV1@@QAVwindow@@@@Z 
01:00001634 ?generatedInitialize@aboutDialog@@SAXQAV1@@@Z 
01:00001A94 ?_new@aboutDialog@@SAXQAVwindow@@@PAPAV1@@@Z 
01:00002864 taskWindow?_initObject@@@QAGXQAV1@H@Z 
01:00002898 ?@create_object@taskWindow@@SGQAV1@@XZ 
01:000028B4 taskWindow?_InternalFinalizer@@@QAGXQAV1@@Z 
01:0000413C aboutDialog?_initObject@@@QAGXQAV1@H@Z 
01:00004174 ?@create_object@aboutDialog@@SGQAV1@@XZ 
01:00004190 aboutDialog?_InternalFinalizer@@@QAGXQAV1@@Z 
--- From 'Obj\ESKnowledgeBase.E3D90F95.obj'
01:000041A0 ?classInfo@eSKnowledgeBase@@SAXPAPB_W0@Z  (Idle)
01:000041BC ?recoverPatternPIDataBase@eSKnowledgeBase@@SAXXZ 
--- From 'Obj\DataBase.D5FA3BBF.obj'
01:000041C4 ?fillDatabase@eSKnowledgeBase@@SAXPB_WHPANPANPAN00HPANPANPAN00HPAN00HPAN00HPAN00HPAN00HPAN00HPAN00@Z 
--- From 'Obj\ESKnowledgeBase.E3D90F95.obj'
01:000042F8 ?listPatronPID@eSKnowledgeBase@@SAXXZ 
01:0000493C ?listFactDeteccionFugaTomaC@eSKnowledgeBase@@SAXXZ 
01:00004A50 ?listDatabase@eSKnowledgeBase@@SAXXZ 
--- From 'Obj\ESEngineeringMachine.445B6113.obj'
01:00004A64 ?registraEventosFugaTomaC@eSKnowledgeBase@@SAXXZ 
01:00004D60 ?deteccionFugaTomaC@eSKnowledgeBase@@SAXPAHPAPAN1@Z 
01:00005334 ?prevencionFugaTomaC@eSKnowledgeBase@@SAXPAHPAPAN1@Z 
01:00006524 ?notificacionRiesgoFugaTomaC@eSKnowledgeBase@@SAXPAHPAPAN1@Z 
01:00007778 ?creaListaContribucionDeteccion@eSKnowledgeBase@@SAXPAPAU?$__list_struct@PAPAN@@@Z 
01:0000781C ?creaListaContribucionPrevencion@eSKnowledgeBase@@SAXPAPAU?$__list_struct@PAPAN@@@Z 
01:000078C0 ?creaListaContribucionRiesgo@eSKnowledgeBase@@SAXPAPAU?$__list_struct@PAPAN@@@Z 
01:00007964 ?visualizaEventosDeteccionFugaTomaC@eSKnowledgeBase@@SAXXZ 
01:00007A6C ?visualizaEventosPrevencionFugaTomaC@eSKnowledgeBase@@SAXXZ 
01:00007B74 ?visualizaEventosRiesgoFugaTomaC@eSKnowledgeBase@@SAXXZ 
01:00007C7C ?eliminaEventosFugaTomaC@eSKnowledgeBase@@SAXXZ 
01:00007E84 ?eliminaEventoDeteccionFugasTomaC@eSKnowledgeBase@@SAXXZ 
01:00007F18 ?eliminaEventoPrevencionFugasTomaC@eSKnowledgeBase@@SAXXZ 
01:00007FAC ?eliminaEventoRiesgoFugasTomaC@eSKnowledgeBase@@SAXXZ 
01:00008040 ?generaDiagnosticoPartiular@eSKnowledgeBase@@SAXPB_WPAN@Z 
--- From 'Obj\ESKnowledgeBase.E3D90F95.obj'
01:00008100 ?new@eSKnowledgeBase@@SAXQAV1@@@Z 
01:00008108 ?_new@eSKnowledgeBase@@SAXPAPAV1@@@Z  (Idle)
01:00008130 ?new@certainFactor@@SAXQAV1@@PAN@Z 
01:00008140 ?classInfo@certainFactor@@SAXPAPB_W0@Z  (Idle)
--- From 'Obj\Forms.80533223.obj'
01:0000815C ?_getCert@certainFactor@@SAXPAPAN@Z 
--- From 'Obj\ESKnowledgeBase.E3D90F95.obj'
01:00008170 ?setCert@certainFactor@@SAXPAN@Z  (Idle)
--- From 'Obj\Forms.80533223.obj'
01:00008180 ?calculaFactorCertNegacionH@certainFactor@@SAXPAN@Z 
01:000081C0 ?calculaFactorCertConjuncionH@certainFactor@@SAXPAU?$__list_struct@PAN@@PANPAPAN@Z 
01:000082C4 ?calculaFactorCertDisyuncionH@certainFactor@@SAXPAU?$__list_struct@PAN@@PANPAPAN@Z 
--- From 'Obj\ESKnowledgeBase.E3D90F95.obj'
01:000083C8 ?calculaContribucionRegla@certainFactor@@SAXPANPANPAPAN@Z 
--- From 'Obj\Forms.80533223.obj'
01:00008404 ?calculaFactorCertConsecuenteR@certainFactor@@SAXPANPANPANPANPAN@Z 
--- From 'Obj\ESEngineeringMachine.445B6113.obj'
01:00008538 ?calculaEfectoGlobalVR@certainFactor@@SAXPAU?$__list_struct@PAN@@PANPAPAN@Z 
--- From 'Obj\ESKnowledgeBase.E3D90F95.obj'
01:000085B8 ?_new@certainFactor@@SAXPANPAPAV1@@@Z  (Idle)
01:000085E0 ?_class_facts_initializer@certainFactor@@SGXXZ 
01:00008608 eSKnowledgeBase?_initObject@@@QAGXQAV1@H@Z 
01:00008618 ?@create_object@eSKnowledgeBase@@SGQAV1@@XZ 
01:00008634 eSKnowledgeBase?_InternalFinalizer@@@QAGXQAV1@@Z 
01:00008648 certainFactor?_initObject@@@QAGXQAV1@H@Z 
01:00008658 ?@create_object@certainFactor@@SGQAV1@@XZ 
01:00008674 certainFactor?_InternalFinalizer@@@QAGXQAV1@@Z 
--- From 'Obj\exe.3FA7EDB2.obj'
01:00008680 ?classInfo@mainExe@@SAXPAPB_W0@Z 
--- From 'Obj\main.A22FE9BF.obj'
01:0000869C ?run@mainExe@@SAXX@Z 
--- From 'Obj\exe.3FA7EDB2.obj'
01:000087C0 ?runCom@mainExe@@SAXXPAU?$__list_struct@UcoInit@exe_api@@@@@Z 
01:000087F4 ?runCom@mainExe@@SAXX@Z  (Idle)
01:00008808 ?runOle@mainExe@@SAXX@Z  (Idle)
01:00008890 ?checkResult@mainExe@@SAXPBUhResult@@PB_WPAU?$__list_struct@UnamedValue@@@@@Z 
01:00008918 ?_getCommandLine@mainExe@@SAXPAPB_W@Z  (Idle)
01:00008988 ?_parseCommandLine@mainExe@@SAXPB_W_W0PAPB_W@Z 
01:00008A4C ?_getPosition@mainExe@@SAXPB_W_WAAUcharCount@@@Z 
01:00008A8C ?getFileName@mainExe@@SAXPAPB_W0@Z  (Idle)
--- From 'Obj\controls.F62EA529.obj'
01:00008AC8 ?_getFileName@mainExe@@SAXPAPB_W@Z 
--- From 'Obj\controlSupport.99797704.obj'
01:00008AE4 ?_getCurrentHinstance@mainExe@@SAXAAUhModule@@@Z 
--- From 'Obj\exe.3FA7EDB2.obj'
01:00008B08 ?_class_facts_initializer@mainExe@@SGXXZ 
01:00008B28 ?runMode@mainExe@@SGXPAUrunMode_struct@1@@Z  (Idle)
01:00008B34 ?runMode@mainExe@@SGPAUrunMode_struct@1@XZ  (Idle)
01:00008B3C ?exceptionDumper@mainExe@@SGXX@Z  (Idle)
01:00008B48 ?exceptionDumper@mainExe@@SGXXZ  (Idle)
--- From 'Obj\core.9AB527C6.obj'
01:00008B50 ?_tryGetSome@core@@SAXQAVrTypeLibrary@TypeLibraries@RunTime@VIP@@PAUoptional_struct@1@PAXPAPAX@Z  (Idle)
01:00008B70 ?_getSome@core@@SAXQAVrTypeLibrary@TypeLibraries@RunTime@VIP@@PAUoptional_struct@1@PAXPAXPAPAX@Z  (Idle)
--- From 'Obj\namedValue.547BB274.obj'
01:00008B98 ?_booleanValue@core@@SAXPAUvalue_struct@1@PAPAUboolean_struct@_builtIn@@@Z 
01:00008BD8 ?_unsigned64Value@core@@SAXPAUvalue_struct@1@PAPA_K@Z 
01:00008C1C ?_integer64Value@core@@SAXPAUvalue_struct@1@PAPA_J@Z 
01:00008C60 ?_unsignedValue@core@@SAXPAUvalue_struct@1@PAI@Z 
01:00008CA0 ?_integerValue@core@@SAXPAUvalue_struct@1@PAH@Z 
01:00008CE0 ?_realValue@core@@SAXPAUvalue_struct@1@PAPAN@Z 
01:00008D24 ?_charValue@core@@SAXPAUvalue_struct@1@PA_W@Z 
01:00008D68 ?_stringValue@core@@SAXPAUvalue_struct@1@PAPB_W@Z 
01:00008DAC ?_binaryValue@core@@SAXPAUvalue_struct@1@QAPAE@Z 
01:00008DF0 ?_objectValue@core@@SAXPAUvalue_struct@1@PAPAVobject@@@@Z 
01:00008E34 ?_gmtTimeValueValue@core@@SAXPAUvalue_struct@1@PAAAUgmtTimeValue@@@Z 
--- From 'Obj\core.9AB527C6.obj'
01:00008E78 ?_localTimeValueValue@core@@SAXPAUvalue_struct@1@PAAAUlocalTimeValue@@@Z  (Idle)
01:00008EBC ?_pointerValue@core@@SAXPAUvalue_struct@1@PAPAX@Z  (Idle)
01:00008F00 ?unexpectedValueKind@core@@SAXPAXPAPB_W1@Z 
--- From 'Obj\fileSystem.D4345F5C.obj'
01:00008F28 ?_toUnsigned64@core@@SAXPAUunsigned64_struct_struct@1@PAPA_K@Z 
--- From 'Obj\registry_api.CA39E249.obj'
01:00008F3C ?_fromUnsigned64@core@@SAXPA_KPAPAUunsigned64_struct_struct@1@@Z 
--- From 'Obj\fileSystem.D4345F5C.obj'
01:00008F4C ?_toInteger64@core@@SAXPAUinteger64_struct_struct@1@PAPA_J@Z 
--- From 'Obj\multiThread_api.6CAB3B1E.obj'
01:00008F60 ?_fromInteger64@core@@SAXPA_JPAPAUinteger64_struct_struct@1@@Z 
--- From 'Obj\errorPresentationDialog.9174D14B.obj'
01:00008F70 ?_value2String@core@@SAXPAUvalue_struct@1@PAPB_W@Z 
--- From 'Obj\core.9AB527C6.obj'
01:000091BC ?classInfo@core@@SAXPAPB_W0@Z 
01:000091D8 $extract$core$predicate$(i,boolean(o),i)$c$_m3 
01:0000929C $extract$core$predicate$(i,unsigned64(o),i)$c$_m3 
01:00009360 $extract$core$predicate$(i,integer64(o),i)$c$_m3 
01:00009424 $extract$core$predicate$(i,unsigned(o),i)$c$_m3 
01:000094E8 $extract$core$predicate$(i,integer(o),i)$c$_m3 
01:000095AC $extract$core$predicate$(i,real(o),i)$c$_m3 
01:00009670 $extract$core$predicate$(i,char(o),i)$c$_m3 
01:00009738 $extract$core$predicate$(i,string(o),i)$c$_m3 
01:000097FC $extract$core$predicate$(i,binary(o),i)$c$_m3 
01:000098C0 $extract$core$predicate$(i,object(o),i)$c$_m3 
01:00009984 $extract$core$predicate$(i,gmttimevalue(o),i)$c$_m3 
01:00009A48 $extract$core$predicate$(i,localtimevalue(o),i)$c$_m3 
01:00009B0C $extract$core$predicate$(i,pointer(o),i)$c$_m3 
--- From 'Obj\exception.EF1B34A0.obj'
01:00009BD0 ?classInfo@runtime_exception@@SAXPAPB_W0@Z 
01:00009BEC ?internalError@runtime_exception@@SAXPAXPAPB_W1@Z  (Idle)
01:00009C14 ?exceptionUnderException@runtime_exception@@SAXPAXPAPB_W1@Z  (Idle)
01:00009C3C ?fromString@runtime_exception@@SAXPAXPAPB_W1@Z 
01:00009C64 ?fromBinary@runtime_exception@@SAXPAXPAPB_W1@Z 
01:00009C8C ?mismatchVersion@runtime_exception@@SAXPAXPAPB_W1@Z 
01:00009CB4 ?ctrlC@runtime_exception@@SAXPAXPAPB_W1@Z  (Idle)
01:00009CDC ?ctrlBreak@runtime_exception@@SAXPAXPAPB_W1@Z  (Idle)
01:00009D04 ?closeApplication@runtime_exception@@SAXPAXPAPB_W1@Z  (Idle)
01:00009D2C ?logOff@runtime_exception@@SAXPAXPAPB_W1@Z  (Idle)
01:00009D54 ?shutDown@runtime_exception@@SAXPAXPAPB_W1@Z  (Idle)
01:00009D7C ?expectedSymbolFromToTerm@runtime_exception@@SAXPAXPAPB_W1@Z  (Idle)
01:00009DA4 ?wrongNumberArgumentForFormat@runtime_exception@@SAXPAXPAPB_W1@Z 
01:00009DCC ?objectConversion@runtime_exception@@SAXPAXPAPB_W1@Z 
01:00009DF4 ?invalidFormat@runtime_exception@@SAXPAXPAPB_W1@Z 
01:00009E1C ?invalidTerm@runtime_exception@@SAXPAXPAPB_W1@Z 
01:00009E44 ?integerExpected@runtime_exception@@SAXPAXPAPB_W1@Z 
01:00009E6C ?arithmeticOverflow@runtime_exception@@SAXPAXPAPB_W1@Z 
01:00009E94 ?noRangeNumber@runtime_exception@@SAXPAXPAPB_W1@Z 
01:00009EBC ?functorNotFound@runtime_exception@@SAXPAXPAPB_W1@Z 
01:00009EE4 ?functorNameExpected@runtime_exception@@SAXPAXPAPB_W1@Z  (Idle)
01:00009F0C ?cyclicInheritance@runtime_exception@@SAXPAXPAPB_W1@Z 
01:00009F34 ?parserUnexpectedEOS@runtime_exception@@SAXPAXPAPB_W1@Z 
01:00009F5C ?determFact@runtime_exception@@SAXPAXPAPB_W1@Z 
01:00009F84 ?realOverflow@runtime_exception@@SAXPAXPAPB_W1@Z 
01:00009FAC ?negZero@runtime_exception@@SAXPAXPAPB_W1@Z 
01:00009FD4 ?unGetChar@runtime_exception@@SAXPAXPAPB_W1@Z 
01:00009FFC ?vip6runInternalError@runtime_exception@@SAXPAXPAPB_W1@Z 
01:0000A024 ?notSupportFunction@runtime_exception@@SAXPAXPAPB_W1@Z  (Idle)
01:0000A04C ?unsupportedFormat@runtime_exception@@SAXPAXPAPB_W1@Z 
01:0000A074 ?invalidTermRepresentation@runtime_exception@@SAXPAXPAPB_W1@Z 
01:0000A09C ?consult_WrongComment@runtime_exception@@SAXPAXPAPB_W1@Z 
01:0000A0C4 ?consult_WrongUsageOfKeyword@runtime_exception@@SAXPAXPAPB_W1@Z 
01:0000A0EC ?retractSingleFact@runtime_exception@@SAXPAXPAPB_W1@Z 
01:0000A114 ?expectedChar@runtime_exception@@SAXPAXPAPB_W1@Z 
01:0000A13C ?threadCreation@runtime_exception@@SAXPAXPAPB_W1@Z  (Idle)
01:0000A164 ?systemException@runtime_exception@@SAXPAXPAPB_W1@Z 
01:0000A18C ?osError@runtime_exception@@SAXPAXPAPB_W1@Z 
01:0000A1B4 ?gcAbend@runtime_exception@@SAXPAXPAPB_W1@Z 
01:0000A1DC ?gcError@runtime_exception@@SAXPAXPAPB_W1@Z 
01:0000A204 ?heapOverflow@runtime_exception@@SAXPAXPAPB_W1@Z 
01:0000A22C ?freeVariable@runtime_exception@@SAXPAXPAPB_W1@Z 
01:0000A254 ?singleFactHasNoValue@runtime_exception@@SAXPAXPAPB_W1@Z 
01:0000A27C ?accessToNotInitializedFact@runtime_exception@@SAXPAXPAPB_W1@Z 
01:0000A2A4 ?chainDB_DBAlreadyOpen@runtime_exception@@SAXPAXPAPB_W1@Z 
01:0000A2CC ?chainDB_InvalidDBFileName@runtime_exception@@SAXPAXPAPB_W1@Z 
01:0000A2F4 ?chainDB_NotOpenDB@runtime_exception@@SAXPAXPAPB_W1@Z 
01:0000A31C ?chainDB_ExistsBTree@runtime_exception@@SAXPAXPAPB_W1@Z 
01:0000A344 ?chainDB_ExistsDBInPlace@runtime_exception@@SAXPAXPAPB_W1@Z 
01:0000A36C ?chainDB_InvalidOrderValue@runtime_exception@@SAXPAXPAPB_W1@Z 
01:0000A394 ?chainDB_InvalidKeyValue@runtime_exception@@SAXPAXPAPB_W1@Z 
01:0000A3BC ?chainDB_UnableOpenDB@runtime_exception@@SAXPAXPAPB_W1@Z 
01:0000A3E4 ?chainDB_InvalidDB@runtime_exception@@SAXPAXPAPB_W1@Z 
01:0000A40C ?chainDB_UnableDeleteDB@runtime_exception@@SAXPAXPAPB_W1@Z 
01:0000A434 ?chainDB_InvalidRefVal@runtime_exception@@SAXPAXPAPB_W1@Z 
01:0000A45C ?chainDB_AbsentChain@runtime_exception@@SAXPAXPAPB_W1@Z 
01:0000A484 ?chainDB_AbsentBTree@runtime_exception@@SAXPAXPAPB_W1@Z 
01:0000A4AC ?chainDB_InvalidBTreeSel@runtime_exception@@SAXPAXPAPB_W1@Z 
01:0000A4D4 ?chainDB_DeleteOpenBTree@runtime_exception@@SAXPAXPAPB_W1@Z 
01:0000A4FC ?chainDB_NotFoundKeyAndRef@runtime_exception@@SAXPAXPAPB_W1@Z 
01:0000A524 ?chainDB_IncorrectDBVersion@runtime_exception@@SAXPAXPAPB_W1@Z 
01:0000A54C ?chainDB_NotInTransaction@runtime_exception@@SAXPAXPAPB_W1@Z 
01:0000A574 ?chainDB_WriteROTransaction@runtime_exception@@SAXPAXPAPB_W1@Z 
01:0000A59C ?chainDB_AlreadyOpenTransaction@runtime_exception@@SAXPAXPAPB_W1@Z 
01:0000A5C4 ?chainDB_UpdatingROTransaction@runtime_exception@@SAXPAXPAPB_W1@Z 
01:0000A5EC ?chainDB_TimeOutTransaction@runtime_exception@@SAXPAXPAPB_W1@Z 
01:0000A614 ?chainDB_DuplicateKey@runtime_exception@@SAXPAXPAPB_W1@Z 
01:0000A63C ?chainDB_WrongChainToDeleteTerm@runtime_exception@@SAXPAXPAPB_W1@Z 
01:0000A664 ?chainDB_ReadWrongNumberBytes@runtime_exception@@SAXPAXPAPB_W1@Z 
01:0000A68C ?chainDB_WriteWrongNumberBytes@runtime_exception@@SAXPAXPAPB_W1@Z 
01:0000A6B4 ?chainDB_OSNativeError@runtime_exception@@SAXPAXPAPB_W1@Z 
01:0000A6DC ?binary_invalidBlock@runtime_exception@@SAXPAXPAPB_W1@Z 
01:0000A704 ?binary_invalidFormat@runtime_exception@@SAXPAXPAPB_W1@Z 
01:0000A72C ?binary_DecodeInternalError@runtime_exception@@SAXPAXPAPB_W1@Z 
01:0000A754 ?cannotLoadLibrary@runtime_exception@@SAXPAXPAPB_W1@Z 
01:0000A77C ?cannotGetProcAddress@runtime_exception@@SAXPAXPAPB_W1@Z 
01:0000A7A4 ?odbc_unidentifiedError@runtime_exception@@SAXPAXPAPB_W1@Z 
01:0000A7CC ?sql_invalidHandle@runtime_exception@@SAXPAXPAPB_W1@Z 
01:0000A7F4 ?sql_stillExecuting@runtime_exception@@SAXPAXPAPB_W1@Z 
01:0000A81C ?sql_needData@runtime_exception@@SAXPAXPAPB_W1@Z 
01:0000A844 ?sql_noDataFound@runtime_exception@@SAXPAXPAPB_W1@Z 
01:0000A86C ?sql_error@runtime_exception@@SAXPAXPAPB_W1@Z 
01:0000A894 ?odbc_error@runtime_exception@@SAXPAXPAPB_W1@Z 
01:0000A8BC _runtimeExceptionRaiser 
--- From 'Obj\string.00BC1BE1.obj'
01:0000A9CC ?_exceptionFromErrorCode@runtime_exception@@SAXIPAX@Z 
--- From 'Obj\exception.EF1B34A0.obj'
01:0000B104 ?notYetHandledError@runtime_exception@@SAXPAXPAPB_W1@Z 
01:0000B12C ?classInfo@exception_exception@@SAXPAPB_W0@Z 
01:0000B148 ?externalError@exception_exception@@SAXPAXPAPB_W1@Z 
01:0000B170 ?raise_ExternalError@exception_exception@@SAXXPBUerrorCode@programControl@@PAU?$__list_struct@UnamedValue@@@@@Z  (Idle)
01:0000B1E0 ?classInfo@exception@@SAXPAPB_W0@Z 
01:0000B1FC ?unknownClassInfo@exception@@SAXPAPB_W0@Z  (Idle)
01:0000B218 ?equals@exception@@SAXXPAUexceptionDescriptor_struct@1@@Z  (Idle)
01:0000B2A0 ?_tryGetDescriptor@exception@@SAXPBUtraceId@@XPAPAUdescriptor_struct@1@@Z 
01:0000B348 $findException$exception$predicate$(i,i)$b$_c19 
01:0000B3A4 ?_getDescriptor_nd@exception@@SAXPBUtraceId@@PAPAUdescriptor_struct@1@@Z 
01:0000B3CC ?_getDescriptorChain_nd@exception@@SAXQAVerrorDescriptorInformation@@@PAPAUdescriptor_struct@1@@Z 
01:0000B424 ?_getDescriptorChain1_nd@exception@@SAXQAVerrorDescriptorInformation@@@PAPAUdescriptor_struct@1@@Z 
01:0000B518 ?_getDescriptorChainFromPacked_nd@exception@@SAXPAU?$__list_struct@UnamedValue@@@@PAPAUdescriptor_struct@1@@Z 
--- From 'Obj\errorPresentationDialog.9174D14B.obj'
01:0000B5B8 ?_getTraceInfo@exception@@SAXPBUtraceId@@PAPAUtraceInfo_struct@1@@Z 
--- From 'Obj\exception.EF1B34A0.obj'
01:0000B6E8 ?_getStackInfo_nd@exception@@SAXQAVtrapInformationObject@@@PAPAUlineInfo_struct@1@@Z 
01:0000B828 ?_getModuleHandleByAddress@exception@@SAXPAXAAUhModule@@@Z 
01:0000B87C ?_getModuleNameByAddress@exception@@SAXPAXPAPB_W@Z 
01:0000B8D8 ?_tryGetLineInfo@exception@@SAXPAXPAPAUlineInfo_struct@1@@Z 
01:0000B994 ?_tryGetExtraInfo@exception@@SAXPAUdescriptor_struct@1@PB_WPAPAUvalue_struct@core@@@Z 
01:0000B9AC ?_searchInfoList@exception@@SAXPAU?$__list_struct@UnamedValue@@@@PB_WPAPAUvalue_struct@core@@@Z 
01:0000BA14 ?getExceptionInformation@exception@@SAXPAUexceptionDescriptor_struct@1@PAPAUclassInfoDescriptor_struct@1@PAPB_W2@Z  (Idle)
--- From 'Obj\string.00BC1BE1.obj'
01:0000BA68 ?raise@exception@@SAXXX@Z 
--- From 'Obj\regExp.1C7438E9.obj'
01:0000BA84 ?raise@exception@@SAXXXPAU?$__list_struct@UnamedValue@@@@@Z 
--- From 'Obj\exception.EF1B34A0.obj'
01:0000BAC0 ?continue@exception@@SAXPBUtraceId@@XX@Z  (Idle)
--- From 'Obj\string.00BC1BE1.obj'
01:0000BAE0 ?continue@exception@@SAXPBUtraceId@@XXPAU?$__list_struct@UnamedValue@@@@@Z 
--- From 'Obj\exception.EF1B34A0.obj'
01:0000BB10 ?continue1@exception@@SAXQAVtrapInformationObject@@@XXPAU?$__list_struct@UnamedValue@@@@@Z 
--- From 'Obj\string.00BC1BE1.obj'
01:0000BC38 ?_getErrorCode@exception@@SAXPBUtraceId@@PAI@Z 
01:0000BC80 ?_tryGetErrorDescriptorInformation@exception@@SAXPBUtraceId@@PAPAVerrorDescriptorInformation@@@@Z 
--- From 'Obj\exception.EF1B34A0.obj'
01:0000BCA8 ?_tryGetErrorDescriptorInformation1@exception@@SAXQAVtrapInformationObject@@@PAPAVerrorDescriptorInformation@@@@Z 
01:0000BCCC ?_getTrapInformationObject@exception@@SAXPBUtraceId@@PAPAVtrapInformationObject@@@@Z 
01:0000BDA0 ?_tryGetTrapInformationObject@exception@@SAXPBUtraceId@@PAPAVtrapInformationObject@@@@Z 
01:0000BE44 ?new@errorDescriptorInformation@@SAXQAV1@@PAUclassInfoDescriptor_struct@exception@@PAUexceptionDescriptor_struct@4@PAUkind_struct@4@PAU?$__list_struct@UnamedValue@@@@PAPBUgmtTimeValue@@PB_WI@Z 
01:0000BE7C ?gMTTimeFormatted@errorDescriptorInformation@@SGPB_WQAV1@@@Z 
01:0000BEAC ?_tryGetContinueException@errorDescriptorInformation@@SAXQAV1@@PAPAV1@@@Z 
01:0000BED0 ?setContinueException@errorDescriptorInformation@@SAXQAV1@@0@Z 
01:0000BEF8 ?_createDescriptorInfo@errorDescriptorInformation@@SAXXXPAUkind_struct@exception@@PAU?$__list_struct@UnamedValue@@@@PAPAV1@@@Z 
--- From 'Obj\exceptionDump.EEBF2A9C.obj'
01:0000C030 ?_formatDateTime@errorDescriptorInformation@@SAXPAPBUgmtTimeValue@core@@PAPB_W@Z 
--- From 'Obj\exception.EF1B34A0.obj'
01:0000C0A8 ?_new@errorDescriptorInformation@@SAXPAUclassInfoDescriptor_struct@exception@@PAUexceptionDescriptor_struct@3@PAUkind_struct@3@PAU?$__list_struct@UnamedValue@@@@PAPBUgmtTimeValue@@PB_WIPAPAV1@@@Z 
01:0000C0E4 ?exceptionDescriptor@errorDescriptorInformation@@SGPAUexceptionDescriptor_struct@exception@@QAV1@@@Z 
01:0000C0F0 ?classInfoDescriptor@errorDescriptorInformation@@SGPAUclassInfoDescriptor_struct@exception@@QAV1@@@Z 
01:0000C0FC ?kind@errorDescriptorInformation@@SGPAUkind_struct@exception@@QAV1@@@Z 
01:0000C108 ?extraInfo@errorDescriptorInformation@@SGPAU?$__list_struct@UnamedValue@@@@QAV1@@@Z 
01:0000C114 ?_gMTTime@errorDescriptorInformation@@SAXQAV1@@PAAAUgmtTimeValue@@@Z 
01:0000C128 ?exceptionDescription@errorDescriptorInformation@@SGPB_WQAV1@@@Z 
01:0000C134 ?threadId@errorDescriptorInformation@@SGIQAV1@@@Z 
01:0000C140 ?internal@common_exception@@SAXPAXPAPB_W1@Z 
01:0000C168 ?couldNotCreate@common_exception@@SAXPAXPAPB_W1@Z 
01:0000C190 ?removeListener@common_exception@@SAXPAXPAPB_W1@Z 
01:0000C1B8 ?exceptionInListener@common_exception@@SAXPAXPAPB_W1@Z 
--- From 'Obj\fileSystem.D4345F5C.obj'
01:0000C1E0 ?nativeCallException@common_exception@@SAXPAXPAPB_W1@Z 
--- From 'Obj\exception.EF1B34A0.obj'
01:0000C208 ?unsupportedPredicate@common_exception@@SAXPAXPAPB_W1@Z 
01:0000C230 ?unknown@common_exception@@SAXPAXPAPB_W1@Z 
01:0000C258 ?overloadingExpected@common_exception@@SAXPAXPAPB_W1@Z 
--- From 'Obj\redBlackSet.ACE22A48.obj'
01:0000C280 ?raise_error@common_exception@@SAXXPB_W@Z 
--- From 'Obj\exception.EF1B34A0.obj'
01:0000C350 ?raise_exception@common_exception@@SAXXXPB_W@Z  (Idle)
01:0000C420 ?raise_user@common_exception@@SAXXPB_W1@Z  (Idle)
01:0000C440 ?raise_user@common_exception@@SAXXPB_W1PAU?$__list_struct@UnamedValue@@@@@Z 
--- From 'Obj\fileSystem_api.42E6F592.obj'
01:0000C464 ?raise_user@common_exception@@SAXXXPB_W2PAU?$__list_struct@UnamedValue@@@@@Z 
--- From 'Obj\exception.EF1B34A0.obj'
01:0000C524 ?raise_definiteUser@common_exception@@SAXXPB_W1@Z  (Idle)
01:0000C544 ?raise_definiteUser@common_exception@@SAXXPB_W1PAU?$__list_struct@UnamedValue@@@@@Z 
01:0000C568 ?raise_definiteUser@common_exception@@SAXXXPB_W2PAU?$__list_struct@UnamedValue@@@@@Z 
01:0000C638 ?raise_packed@common_exception@@SAXPAUtraceInfo_struct@3@XPB_W@Z  (Idle)
01:0000C770 ?raise_errorf@common_exception@@SAXXPB_W1@Z  (Idle)
01:0000C87C ?raise_couldNotCreate@common_exception@@SAXXPB_WPAU?$__list_struct@UnamedValue@@@@@Z  (Idle)
--- From 'Obj\controlSupport.99797704.obj'
01:0000C8EC ?raise_removeListener@common_exception@@SAXXPB_W@Z 
--- From 'Obj\registry_api.CA39E249.obj'
01:0000C960 ?raise_nativeCallException@common_exception@@SAXXPB_WIPAU?$__list_struct@UnamedValue@@@@@Z 
--- From 'Obj\Shell_api.FF07D5B3.obj'
01:0000C994 ?raise_nativeCallException@common_exception@@SAXXPB_WI1PAU?$__list_struct@UnamedValue@@@@@Z 
--- From 'Obj\controls.F62EA529.obj'
01:0000CAAC ?raise_unsupportedPredicate@common_exception@@SAXXPB_W@Z 
--- From 'Obj\exception.EF1B34A0.obj'
01:0000CB20 ?raise_overloadingExpected@common_exception@@SAXX@Z  (Idle)
--- From 'Obj\gui.B1A70004.obj'
01:0000CB40 ?raise_overloadingExpected@common_exception@@SAXXPB_W@Z 
--- From 'Obj\exception.EF1B34A0.obj'
01:0000CBB4 ?continue_exceptionInListener@common_exception@@SAXPBUtraceId@3@XPB_W@Z  (Idle)
--- From 'Obj\registry.7837C76D.obj'
01:0000CC28 ?continue_unknown@common_exception@@SAXPBUtraceId@3@XPB_W@Z 
--- From 'Obj\exception.EF1B34A0.obj'
01:0000CCFC ?continue_user@common_exception@@SAXPBUtraceId@3@XPB_W2@Z  (Idle)
--- From 'Obj\vpi.DCC9845E.obj'
01:0000CD20 ?continue_user@common_exception@@SAXPBUtraceId@3@XPB_W2PAU?$__list_struct@UnamedValue@@@@@Z 
--- From 'Obj\exception.EF1B34A0.obj'
01:0000CD44 ?continue_user@common_exception@@SAXPBUtraceId@3@XXPB_W3PAU?$__list_struct@UnamedValue@@@@@Z 
01:0000CE04 ?continue_definiteUser@common_exception@@SAXPBUtraceId@3@XPB_W2@Z  (Idle)
01:0000CE28 ?continue_definiteUser@common_exception@@SAXPBUtraceId@3@XPB_W2PAU?$__list_struct@UnamedValue@@@@@Z 
01:0000CE4C ?continue_definiteUser@common_exception@@SAXPBUtraceId@3@XXPB_W3PAU?$__list_struct@UnamedValue@@@@@Z 
--- From 'Obj\errorPresentationDialog.9174D14B.obj'
01:0000CF20 ?isDefiniteUserError@common_exception@@SAXPBUtraceId@3@@Z 
--- From 'Obj\multiThread_api.6CAB3B1E.obj'
01:0000CF5C ?_getLastErrorDescription@common_exception@@SAXIPAPB_W@Z 
--- From 'Obj\exception.EF1B34A0.obj'
01:0000CF98 ?classInfo@common_exception@@SAXPAPB_W0@Z 
01:0000CFBC errorDescriptorInformation?_initObject@@@QAGXQAV1@H@Z 
01:0000CFD0 ?@create_object@errorDescriptorInformation@@SGQAV1@@XZ 
01:0000CFEC errorDescriptorInformation?_InternalFinalizer@@@QAGXQAV1@@Z 
--- From 'Obj\controls.F62EA529.obj'
01:0000D000 ?classInfo@versionControl@@SAXPAPB_W0@Z  (Idle)
01:0000D01C ?parameterTemplate@versionControl@@SAXQAVoutputStream@@@PB_W@Z 
01:0000D5C8 ?setText@versionControl@@SAXQAVwindow@@@PB_W@Z 
01:0000D62C ?new@versionControl@@SAXQAV1@@QAVcontainerWindow@@@@Z 
01:0000D648 ?new@versionControl@@SAXQAV1@@@Z 
01:0000D650 ?_getFileVersionInformation@versionControl@@SAXQAEPB_W1PAPB_W@Z 
01:0000D6D4 ?_getLanguageAndCodePageKey@versionControl@@SAXQAEPAPB_W@Z 
01:0000D768 ?_tryVerQueryValue@versionControl@@SAXQAEPB_WPAPAX@Z 
01:0000D7B4 ?_tryGetParameterName@versionControl@@SAXPB_WPAPB_W@Z 
01:0000D85C ?_new@versionControl@@SAXPAPAV1@@@Z  (Idle)
01:0000D884 ?_new@versionControl@@SAXQAVcontainerWindow@@@PAPAV1@@@Z 
01:0000D8AC ?classInfo@timerControl@@SAXPAPB_W0@Z 
01:0000D8C8 ?new@timerControl@@SAXQAV1@@@Z 
01:0000D8FC ?new@timerControl@@SAXQAV1@@QAVcontainerWindow@@@@Z 
01:0000D918 ?show@timerControl@@SAXQAVwindow@@@@Z 
01:0000D970 ?initialize@timerControl@@SAXQAVwindow@@@@Z 
01:0000D98C ?_getVpiWindow@timerControl@@SAXQAVwindow@@@AAUwindowHandle@vpiDomains@@@Z 
01:0000D9A8 ?start@timerControl@@SAXQAV1@@@Z 
01:0000DA80 ?stop@timerControl@@SAXQAV1@@@Z 
01:0000DAF8 ?isRunning@timerControl@@SAXQAV1@@@Z 
01:0000DB10 ?setTickDuration@timerControl@@SAXQAV1@@PBUpositive@@@Z 
01:0000DB58 ?_getTickDuration@timerControl@@SAXQAV1@@AAUpositive@@@Z 
01:0000DB6C ?onTickTimer@timerControl@@SAXQAV1@@QAVwindow@@@PBUtimerId@@@Z 
01:0000DC08 ?addTickListener@timerControl@@SAXQAV1@@X@Z 
01:0000DC28 ?removeTickListener@timerControl@@SAXQAV1@@X@Z 
01:0000DCF0 ?_new@timerControl@@SAXPAPAV1@@@Z  (Idle)
01:0000DD18 ?_new@timerControl@@SAXQAVcontainerWindow@@@PAPAV1@@@Z  (Idle)
01:0000DD40 ?_object_facts_initializer@timerControl@@SGXQAV1@@@Z 
01:0000DD60 ?classInfo@textControl@@SAXPAPB_W0@Z 
01:0000DD7C ?new@textControl@@SAXQAV1@@QAVcontainerWindow@@@@Z 
--- From 'Obj\controlSupport.99797704.obj'
01:0000DD98 ?new@textControl@@SAXQAV1@@@Z 
--- From 'Obj\controls.F62EA529.obj'
01:0000DDD0 ?setOuterRect@textControl@@SAXQAVwindow@@@PAUrct_struct@vpiDomains@@@Z 
01:0000DE10 ?_fixTextControlOuterRect@textControl@@SAXQAV1@@PAUboolean_struct@_builtIn@@PAUrct_struct@vpiDomains@@PAPAU56@@Z 
01:0000DECC ?setAlignBaseline@textControl@@SAXQAV1@@PAUboolean_struct@_builtIn@@@Z 
01:0000DF0C ?_getAlignBaseline@textControl@@SAXQAV1@@PAPAUboolean_struct@_builtIn@@@Z 
01:0000DF20 ?setIgnorePrefix@textControl@@SAXQAV1@@@Z 
01:0000DF34 ?setIgnorePrefix@textControl@@SAXQAV1@@PAUboolean_struct@_builtIn@@@Z 
01:0000DFC0 ?_getIgnorePrefix@textControl@@SAXQAV1@@PAPAUboolean_struct@_builtIn@@@Z 
01:0000E01C ?alignment_State@textControl@@SAXPAUalignment_struct@vpiDomains@@AAUwsflag@3@@Z 
01:0000E050 ?setAlignment@textControl@@SAXQAV1@@PAUalignment_struct@vpiDomains@@@Z 
01:0000E0D0 ?_getAlignment@textControl@@SAXQAV1@@PAPAUalignment_struct@vpiDomains@@@Z 
01:0000E134 ?setWrap@textControl@@SAXQAV1@@@Z 
01:0000E148 ?setWrap@textControl@@SAXQAV1@@PAUboolean_struct@_builtIn@@@Z 
01:0000E1B8 ?_getWrap@textControl@@SAXQAV1@@PAPAUboolean_struct@_builtIn@@@Z 
01:0000E238 ?setForegroundColor@textControl@@SAXQAV1@@PBUcolor@@@Z 
01:0000E27C ?_onCtlColorStatic@textControl@@SAXQAV1@@QAVwindow@@@IIHPAPAUnativeResponse_struct@3@@Z 
01:0000E330 ?_updateDC@textControl@@SAXQAV1@@PBUhDC@gui_Native@@PAH@Z 
01:0000E384 ?enableHandleDeviceContext@textControl@@SAXQAV1@@@Z 
--- From 'Obj\Forms.80533223.obj'
01:0000E414 ?_new@textControl@@SAXQAVcontainerWindow@@@PAPAV1@@@Z 
--- From 'Obj\controls.F62EA529.obj'
01:0000E43C ?_new@textControl@@SAXPAPAV1@@@Z  (Idle)
01:0000E464 ?alignment_State@textControl@@SAXPAPAUalignment_struct@vpiDomains@@PBUwsflag@3@@Z 
01:0000E4C0 ?_object_facts_initializer@textControl@@SGXQAV1@@@Z 
01:0000E4D8 ?classInfo@scrollControl@@SAXPAPB_W0@Z 
01:0000E4F4 ?newHorizontal@scrollControl@@SAXQAV1@@QAVcontainerWindow@@@@Z 
01:0000E510 ?newHorizontal@scrollControl@@SAXQAV1@@@Z 
01:0000E548 ?newVertical@scrollControl@@SAXQAV1@@QAVcontainerWindow@@@@Z 
01:0000E564 ?newVertical@scrollControl@@SAXQAV1@@@Z 
01:0000E59C ?dispatchEvent@scrollControl@@SAXQAVcontrol@@@PAUcontrolInfo_struct@vpiDomains@@@Z 
01:0000E644 ?setThumbIfThumbTrack@scrollControl@@SAXQAV1@@PBUscrollCode@@H@Z 
01:0000E678 ?isPosInvalidForCode@scrollControl@@SAXH@Z 
01:0000E6A0 ?dispatchScroll@scrollControl@@SAXQAV1@@PBUscrollCode@@H@Z 
01:0000E724 ?addScrollListener@scrollControl@@SAXQAV1@@X@Z 
01:0000E744 ?removeScrollListener@scrollControl@@SAXQAV1@@X@Z 
01:0000E80C ?initialize@scrollControl@@SAXQAVwindow@@@@Z 
01:0000E864 ?initRange@scrollControl@@SAXQAV1@@PBUwindowHandle@vpiDomains@@@Z 
01:0000E8B4 ?initPos@scrollControl@@SAXQAV1@@PBUwindowHandle@vpiDomains@@@Z 
01:0000E8F8 ?initProportion@scrollControl@@SAXQAV1@@PBUwindowHandle@vpiDomains@@@Z 
01:0000E93C ?getRange@scrollControl@@SAXQAV1@@PAHPAH@Z 
01:0000E9DC ?setRange@scrollControl@@SAXQAV1@@HH@Z 
01:0000EA48 ?_getThumbPosition@scrollControl@@SAXQAV1@@PAH@Z 
01:0000EADC ?setThumbPosition@scrollControl@@SAXQAV1@@H@Z 
01:0000EB50 ?_getProportion@scrollControl@@SAXQAV1@@AAUpositive@@@Z 
01:0000EBF4 ?setProportion@scrollControl@@SAXQAV1@@PBUpositive@@@Z 
01:0000EC58 ?_newHorizontal@scrollControl@@SAXQAVcontainerWindow@@@PAPAV1@@@Z  (Idle)
01:0000EC80 ?_newHorizontal@scrollControl@@SAXPAPAV1@@@Z  (Idle)
01:0000ECA8 ?_newVertical@scrollControl@@SAXQAVcontainerWindow@@@PAPAV1@@@Z  (Idle)
01:0000ECD0 ?_newVertical@scrollControl@@SAXPAPAV1@@@Z  (Idle)
01:0000ECF8 ?classInfo@realControl@@SAXPAPB_W0@Z 
01:0000ED14 ?new@realControl@@SAXQAV1@@@Z 
01:0000ED64 ?new@realControl@@SAXQAV1@@QAVcontainerWindow@@@@Z 
01:0000ED80 ?_onRealValidate@realControl@@SAXQAV1@@QAVcontrol@@@PAPAUvalidateResult_struct@3@@Z 
01:0000EE2C ?setReal@realControl@@SAXQAV1@@PAN@Z 
01:0000EE4C ?_getReal@realControl@@SAXQAV1@@PAPAN@Z 
01:0000EE8C ?_tryGetReal@realControl@@SAXQAV1@@PAPAN@Z 
01:0000EED8 ?setMaximum@realControl@@SAXQAV1@@PAN@Z 
01:0000EF1C ?_getMaximum@realControl@@SAXQAV1@@PAPAN@Z 
01:0000EF30 ?setMinimum@realControl@@SAXQAV1@@PAN@Z 
01:0000EF74 ?_getMinimum@realControl@@SAXQAV1@@PAPAN@Z 
01:0000EF88 ?setMandatory@realControl@@SAXQAV1@@@Z 
01:0000EF9C ?setMandatory@realControl@@SAXQAV1@@PAUboolean_struct@_builtIn@@@Z 
01:0000EFB0 ?_getMandatory@realControl@@SAXQAV1@@PAPAUboolean_struct@_builtIn@@@Z 
01:0000EFC4 ?_checkContent@realControl@@SAXQAV1@@PB_WPAPAUvalue_struct@core@@@Z 
01:0000F098 ?_whetherEmptyStringAvailable@realControl@@SAXQAV1@@PAUboolean_struct@_builtIn@@PAPAUvalue_struct@core@@@Z 
01:0000F14C ?_checkMinMax@realControl@@SAXQAV1@@PANPAPAUvalue_struct@core@@@Z 
01:0000F3A4 ?setIllegalValueMessage@realControl@@SAXPB_W@Z  (Idle)
01:0000F3B4 ?setIllegalValueMandatoryMessage@realControl@@SAXPB_W@Z  (Idle)
01:0000F3C4 ?setIllegalValueMinimumMaximumMessage@realControl@@SAXPB_W@Z  (Idle)
01:0000F3D4 ?setIllegalValueMinimumMessage@realControl@@SAXPB_W@Z  (Idle)
01:0000F3E4 ?setIllegalValueMaximumMessage@realControl@@SAXPB_W@Z  (Idle)
01:0000F3F4 ?_new@realControl@@SAXQAVcontainerWindow@@@PAPAV1@@@Z  (Idle)
01:0000F41C ?_new@realControl@@SAXPAPAV1@@@Z  (Idle)
01:0000F444 ?_class_facts_initializer@realControl@@SGXXZ 
01:0000F484 ?_object_facts_initializer@realControl@@SGXQAV1@@@Z 
01:0000F4BC ?classInfo@radioButtonGroup@@SAXPAPB_W0@Z 
01:0000F4D8 ?friendAddButton@radioButtonGroup@@SAXQAV1@@QAVradioButton@@@@Z 
01:0000F530 ?friendDelButton@radioButtonGroup@@SAXQAV1@@QAVradioButton@@@@Z 
01:0000F614 ?_getSelectedButton@radioButtonGroup@@SAXQAV1@@PAPAVradioButton@@@@Z 
01:0000F6A8 ?setSelectedButton@radioButtonGroup@@SAXQAV1@@QAVradioButton@@@@Z 
01:0000F754 ?getButton_nd@radioButtonGroup@@SAXQAV1@@PAPAVradioButton@@@@Z 
01:0000F7A0 ?addSelectionChangedListener@radioButtonGroup@@SAXQAV1@@X@Z 
01:0000F7C0 ?removeSelectionChangedListener@radioButtonGroup@@SAXQAV1@@X@Z 
01:0000F888 ?addDelayedSelectionChangedListener@radioButtonGroup@@SAXQAV1@@PBUpositive@@X@Z 
01:0000F934 ?removeDelayedSelectionChangedListener@radioButtonGroup@@SAXQAV1@@X@Z 
01:0000FA00 ?supportDelayedSelectionChangedListener@radioButtonGroup@@SAXQAV1@@0QAVradioButton@@@@Z 
01:0000FAA8 ?_firstShownRadioButton@radioButtonGroup@@SAXQAV1@@PAPAVwindow@@@@Z 
01:0000FAF0 ?delayedSelectionChanged@radioButtonGroup@@SAXQAV1@@@Z 
01:0000FB70 ?buttonStateChanged@radioButtonGroup@@SAXQAV1@@QAVradioButton@@@PAUstate_struct@3@2@Z 
01:0000FC0C ?new@radioButtonGroup@@SAXQAV1@@@Z 
--- From 'Obj\guiSupport.38798E3B.obj'
01:0000FC14 ?_new@radioButtonGroup@@SAXPAPAV1@@@Z 
--- From 'Obj\controls.F62EA529.obj'
01:0000FC3C ?classInfo@radioButton@@SAXPAPB_W0@Z 
01:0000FC58 ?new@radioButton@@SAXQAV1@@QAVcontainerWindow@@@@Z 
01:0000FC74 ?new@radioButton@@SAXQAV1@@@Z 
01:0000FCB0 ?initialize@radioButton@@SAXQAVwindow@@@@Z 
01:0000FD00 ?setOuterRect@radioButton@@SAXQAVwindow@@@PAUrct_struct@vpiDomains@@@Z 
01:0000FD40 ?_fixRadioButtonOuterRect@radioButton@@SAXQAV1@@PAUboolean_struct@_builtIn@@PAUrct_struct@vpiDomains@@PAPAU56@@Z 
01:0000FDE4 ?setAlignBaseline@radioButton@@SAXQAV1@@PAUboolean_struct@_builtIn@@@Z 
01:0000FE24 ?_getAlignBaseline@radioButton@@SAXQAV1@@PAPAUboolean_struct@_builtIn@@@Z 
01:0000FE38 ?setContainer@radioButton@@SAXQAVcontrol@@@QAVcontainerWindow@@@@Z 
01:0000FEB0 ?resetContainer@radioButton@@SAXQAVcontrol@@@@Z 
01:0000FECC ?clearOldGroup@radioButton@@SAXQAV1@@@Z 
01:0000FF40 ?defaultClickResponder@radioButton@@SAXQAV1@@@Z 
01:0000FF48 ?setClickResponder@radioButton@@SAXQAV1@@X@Z 
01:0000FF5C ?_getClickResponder@radioButton@@SAXQAV1@@PAX@Z 
01:0000FF70 ?resetClickResponder@radioButton@@SAXQAV1@@@Z 
01:0000FF84 ?addStateChangedListener@radioButton@@SAXQAV1@@X@Z 
01:0000FFA4 ?removeStateChangedListener@radioButton@@SAXQAV1@@X@Z 
01:0001006C ?dispatchActivated@radioButton@@SAXQAV1@@@Z 
01:00010124 ?dispatchStateChanged@radioButton@@SAXQAV1@@PAUstate_struct@1@1@Z 
01:000101A8 ?notifyNeighbours@radioButton@@SAXQAV1@@@Z 
01:0001028C ?dispatchEvent@radioButton@@SAXQAVcontrol@@@PAUcontrolInfo_struct@vpiDomains@@@Z 
01:000102C8 ?_getRadioState@radioButton@@SAXQAV1@@PAPAUstate_struct@1@@Z 
01:00010328 ?setRadioState@radioButton@@SAXQAV1@@PAUstate_struct@1@@Z 
01:00010564 ?state2integral@radioButton@@SAXQAV1@@PAUstate_struct@1@PAI@Z 
01:00010588 ?setAuto@radioButton@@SAXQAV1@@@Z 
01:0001059C ?setAuto@radioButton@@SAXQAV1@@PAUboolean_struct@_builtIn@@@Z 
01:00010610 ?_getAuto@radioButton@@SAXQAV1@@PAPAUboolean_struct@_builtIn@@@Z 
01:0001066C ?setLeftText@radioButton@@SAXQAV1@@@Z 
01:00010680 ?setLeftText@radioButton@@SAXQAV1@@PAUboolean_struct@_builtIn@@@Z 
01:000106F4 ?_getLeftText@radioButton@@SAXQAV1@@PAPAUboolean_struct@_builtIn@@@Z 
01:00010750 ?_getRadioButtonGroup@radioButton@@SAXQAV1@@PAPAVradioButtonGroup@@@@Z 
01:0001077C ?_new@radioButton@@SAXQAVcontainerWindow@@@PAPAV1@@@Z  (Idle)
01:000107A4 ?_new@radioButton@@SAXPAPAV1@@@Z  (Idle)
01:000107CC ?state2integral@radioButton@@SAXQAV1@@PAPAUstate_struct@1@I@Z 
01:00010838 ?_object_facts_initializer@radioButton@@SGXQAV1@@@Z 
01:0001085C ?classInfo@listEdit@@SAXPAPB_W0@Z 
01:00010878 ?new@listEdit@@SAXQAV1@@QAVcontainerWindow@@@@Z 
01:00010894 ?new@listEdit@@SAXQAV1@@@Z 
01:000108F4 ?addModifiedListener@listEdit@@SAXQAVeditControl@@@X@Z 
01:00010914 ?removeModifiedListener@listEdit@@SAXQAVeditControl@@@X@Z 
01:000109DC ?anonymous$15$54_60$adddelayedmodifiedlistener/2@listEdit@@SAXPAUanonymous$15$54_60$adddelayedmodifiedlistener/2c_struct@1@@Z 
01:00010A24 ?addDelayedModifiedListener@listEdit@@SAXQAVeditControl@@@PBUpositive@@X@Z 
01:00010A94 ?removeDelayedModifiedListener@listEdit@@SAXQAVeditControl@@@X@Z 
01:00010B60 ?anonymous$16$68_24$onlisteditnative/4@listEdit@@SAXPAUanonymous$16$68_24$onlisteditnative/4c_struct@1@@Z 
01:00010B78 ?_onListEditNative@listEdit@@SAXQAV1@@QAVwindow@@@IIHPAPAUnativeResponse_struct@3@@Z 
01:00010BD0 ?dispatchModified@listEdit@@SAXQAV1@@@Z 
01:00010CBC ?dispatchEvent@listEdit@@SAXQAVcontrol@@@PAUcontrolInfo_struct@vpiDomains@@@Z 
01:00010CE0 ?selectText@listEdit@@SAXQAVeditControl@@@PBUcharCount@@1@Z 
01:00010D0C ?selectAll@listEdit@@SAXQAVeditControl@@@@Z 
01:00010D3C ?getTextSelection@listEdit@@SAXQAVeditControl@@@AAUcharCount@@1@Z 
01:00010D68 ?setAlignBaseline@listEdit@@SAXQAVeditControl@@@PAUboolean_struct@_builtIn@@@Z 
01:00010DA8 ?_getAlignBaseline@listEdit@@SAXQAVeditControl@@@PAPAUboolean_struct@_builtIn@@@Z 
01:00010DBC ?setAutoHScroll@listEdit@@SAXQAVeditControl@@@@Z 
01:00010DD0 ?setAutoHScroll@listEdit@@SAXQAVeditControl@@@PAUboolean_struct@_builtIn@@@Z 
01:00010E5C ?_getAutoHScroll@listEdit@@SAXQAVeditControl@@@PAPAUboolean_struct@_builtIn@@@Z 
01:00010EB8 ?setBorder@listEdit@@SAXQAVeditControl@@@@Z 
01:00010ECC ?setBorder@listEdit@@SAXQAVeditControl@@@PAUboolean_struct@_builtIn@@@Z 
01:00010EE8 ?_getBorder@listEdit@@SAXQAVeditControl@@@PAPAUboolean_struct@_builtIn@@@Z 
01:00010F04 ?setMultiLine@listEdit@@SAXQAVeditControl@@@@Z 
01:00010F18 ?setMultiLine@listEdit@@SAXQAVeditControl@@@PAUboolean_struct@_builtIn@@@Z 
01:00010F34 ?_getMultiLine@listEdit@@SAXQAVeditControl@@@PAPAUboolean_struct@_builtIn@@@Z 
01:00010F50 ?setPassword@listEdit@@SAXQAVeditControl@@@@Z 
01:00010F64 ?setPassword@listEdit@@SAXQAVeditControl@@@PAUboolean_struct@_builtIn@@@Z 
01:00010F80 ?_getPassword@listEdit@@SAXQAVeditControl@@@PAPAUboolean_struct@_builtIn@@@Z 
01:00010F9C ?setHideSel@listEdit@@SAXQAVeditControl@@@@Z 
01:00010FB0 ?setHideSel@listEdit@@SAXQAVeditControl@@@PAUboolean_struct@_builtIn@@@Z 
01:00010FCC ?_getHideSel@listEdit@@SAXQAVeditControl@@@PAPAUboolean_struct@_builtIn@@@Z 
01:00010FE8 ?setReadOnly@listEdit@@SAXQAVeditControl@@@@Z 
01:00010FFC ?setReadOnly@listEdit@@SAXQAVeditControl@@@PAUboolean_struct@_builtIn@@@Z 
01:00011018 ?_getReadOnly@listEdit@@SAXQAVeditControl@@@PAPAUboolean_struct@_builtIn@@@Z 
01:00011034 ?setAlignment@listEdit@@SAXQAVeditControl@@@PAUalignment_struct@vpiDomains@@@Z 
01:00011050 ?_getAlignment@listEdit@@SAXQAVeditControl@@@PAPAUalignment_struct@vpiDomains@@@Z 
01:0001106C ?setUpperCase@listEdit@@SAXQAVeditControl@@@@Z 
01:00011080 ?setUpperCase@listEdit@@SAXQAVeditControl@@@PAUboolean_struct@_builtIn@@@Z 
01:0001109C ?_getUpperCase@listEdit@@SAXQAVeditControl@@@PAPAUboolean_struct@_builtIn@@@Z 
01:000110B8 ?setLowerCase@listEdit@@SAXQAVeditControl@@@@Z 
01:000110CC ?setLowerCase@listEdit@@SAXQAVeditControl@@@PAUboolean_struct@_builtIn@@@Z 
01:000110E8 ?_getLowerCase@listEdit@@SAXQAVeditControl@@@PAPAUboolean_struct@_builtIn@@@Z 
01:00011104 ?setAutoVScroll@listEdit@@SAXQAVeditControl@@@@Z 
01:00011118 ?setAutoVScroll@listEdit@@SAXQAVeditControl@@@PAUboolean_struct@_builtIn@@@Z 
01:00011134 ?_getAutoVScroll@listEdit@@SAXQAVeditControl@@@PAPAUboolean_struct@_builtIn@@@Z 
01:00011150 ?setHScroll@listEdit@@SAXQAVeditControl@@@@Z 
01:00011164 ?setHScroll@listEdit@@SAXQAVeditControl@@@PAUboolean_struct@_builtIn@@@Z 
01:00011180 ?_getHScroll@listEdit@@SAXQAVeditControl@@@PAPAUboolean_struct@_builtIn@@@Z 
01:0001119C ?setWantReturn@listEdit@@SAXQAVeditControl@@@@Z 
01:000111B0 ?setWantReturn@listEdit@@SAXQAVeditControl@@@PAUboolean_struct@_builtIn@@@Z 
01:000111CC ?_getWantReturn@listEdit@@SAXQAVeditControl@@@PAPAUboolean_struct@_builtIn@@@Z 
01:000111E8 ?setCueBanner@listEdit@@SAXQAVeditControl@@@PB_WPAUboolean_struct@_builtIn@@@Z 
01:00011204 ?_new@listEdit@@SAXQAVcontainerWindow@@@PAPAV1@@@Z  (Idle)
01:0001122C ?_new@listEdit@@SAXPAPAV1@@@Z  (Idle)
01:00011254 ?_object_facts_initializer@listEdit@@SGXQAV1@@@Z 
01:0001126C ?classInfo@listControl@@SAXPAPB_W0@Z 
01:00011288 ?new@listControl@@SAXQAV1@@QAVcontainerWindow@@@PBUwintype@vpiDomains@@@Z 
01:000112A8 ?new@listControl@@SAXQAV1@@PBUwintype@vpiDomains@@@Z 
01:0001131C ?initialize@listControl@@SAXQAVwindow@@@@Z 
01:00011350 ?initSelectAt@listControl@@SAXQAV1@@@Z 
01:00011410 ?setMaxDropDownRows@listControl@@SAXQAV1@@I@Z 
01:00011448 ?correctMaxDropDownRows@listControl@@SAXQAV1@@@Z 
01:00011538 ?_getMaxDropDownRows@listControl@@SAXQAV1@@PAI@Z 
01:0001154C ?_getDroppedState@listControl@@SAXQAV1@@PAPAUboolean_struct@_builtIn@@@Z 
01:00011580 ?addRow@listControl@@SAXQAV1@@PAU?$__list_struct@Ustring@@@@@Z 
01:000115A8 ?addRowAt@listControl@@SAXQAV1@@PBUpositiveOptional@@PAU?$__list_struct@Ustring@@@@@Z 
01:000115D0 ?addRowList@listControl@@SAXQAV1@@PAU?$__list_struct@PAU?$__list_struct@Ustring@@@@@@@Z 
01:000115F8 ?addRowListAt@listControl@@SAXQAV1@@PBUpositiveOptional@@PAU?$__list_struct@PAU?$__list_struct@Ustring@@@@@@@Z 
01:00011620 ?add@listControl@@SAXQAV1@@PB_W@Z 
01:000116C0 ?addAt@listControl@@SAXQAV1@@PBUpositiveOptional@@PB_W@Z 
01:00011744 ?addList@listControl@@SAXQAV1@@PAU?$__list_struct@Ustring@@@@@Z 
01:000117B4 ?addListAt@listControl@@SAXQAV1@@PBUpositiveOptional@@PAU?$__list_struct@Ustring@@@@@Z 
01:00011824 ?clearAll@listControl@@SAXQAV1@@@Z 
01:000118F8 ?delete@listControl@@SAXQAV1@@PBUpositive@@@Z 
01:000119B8 ?_getAllRows@listControl@@SAXQAV1@@PAPAU?$__list_struct@PAPAU?$__list_struct@Ustring@@@@@@@Z 
01:000119E0 ?_getAll@listControl@@SAXQAV1@@PAPAU?$__list_struct@Ustring@@@@@Z 
01:00011A2C ?_getCount@listControl@@SAXQAV1@@PAH@Z 
01:00011AA0 ?_getRowAt@listControl@@SAXQAV1@@PBUpositive@@PAPAU?$__list_struct@Ustring@@@@@Z 
01:00011AD0 ?_getAt@listControl@@SAXQAV1@@PBUpositive@@PAPB_W@Z 
01:00011B30 ?getAllSelectedRows@listControl@@SAXQAV1@@PAPAU?$__list_struct@PAPAU?$__list_struct@Ustring@@@@@@PAPAU?$__list_struct@Upositive@@@@@Z 
01:00011B58 ?_toPositiveList@listControl@@SAXPAU?$__list_struct@Uinteger@@@@PAPAU?$__list_struct@Upositive@@@@@Z 
01:00011BC8 ?getAllSelected@listControl@@SAXQAV1@@PAPAU?$__list_struct@Ustring@@@@PAPAU?$__list_struct@Upositive@@@@@Z 
01:00011CBC ?_getSelectedItems@listControl@@SAXQAV1@@PAPAU?$__list_struct@Ustring@@@@@Z 
01:00011CDC ?_getSelectedIndices@listControl@@SAXQAV1@@PAPAU?$__list_struct@Upositive@@@@@Z 
01:00011CFC ?_indexesToItemList@listControl@@SAXQAV1@@PAU?$__list_struct@Upositive@@@@PAPAU?$__list_struct@Ustring@@@@@Z 
01:00011D7C ?_tryGetSelectedIndex@listControl@@SAXQAV1@@AAUpositive@@@Z 
01:00011E24 ?isSelectedIndex@listControl@@SAXQAV1@@PBUpositive@@@Z 
01:00011EB8 ?selectAt@listControl@@SAXQAV1@@PBUpositive@@PAUboolean_struct@_builtIn@@@Z 
01:00012114 ?suspend@listControl@@SAXQAV1@@@Z 
01:0001215C ?resume@listControl@@SAXQAV1@@@Z 
01:000121A4 ?_insertListAt@listControl@@SAXHPAU?$__list_struct@Ustring@@@@1PAPAU?$__list_struct@U2@@@@Z 
01:00012298 ?_deleteListItem@listControl@@SAXHPAU?$__list_struct@Ustring@@@@PAPAU?$__list_struct@U2@@@@Z 
01:00012318 ?_getListItem@listControl@@SAXHPAU?$__list_struct@Ustring@@@@PAPB_W@Z 
01:00012370 ?addSelectionChangedListener@listControl@@SAXQAV1@@X@Z 
01:00012390 ?removeSelectionChangedListener@listControl@@SAXQAV1@@X@Z 
01:00012458 ?addDelayedSelectionChangedListener@listControl@@SAXQAV1@@PBUpositive@@X@Z 
01:00012498 ?removeDelayedSelectionChangedListener@listControl@@SAXQAV1@@X@Z 
01:00012564 ?dispatchSelectionChanged@listControl@@SAXQAV1@@PAU?$__list_struct@Upositive@@@@1@Z 
01:00012800 ?onListControlTimer@listControl@@SAXQAV1@@QAVwindow@@@PBUtimerId@@@Z 
01:000128F0 ?addCloseUpListener@listControl@@SAXQAV1@@X@Z 
01:00012910 ?removeCloseUpListener@listControl@@SAXQAV1@@X@Z 
01:000129D8 ?dispatchCloseUp@listControl@@SAXQAV1@@@Z 
01:00012A58 ?addDropDownListener@listControl@@SAXQAV1@@X@Z 
01:00012A78 ?removeDropDownListener@listControl@@SAXQAV1@@X@Z 
01:00012B40 ?dispatchDropDown@listControl@@SAXQAV1@@@Z 
01:00012BC4 ?dispatchEvent@listControl@@SAXQAVcontrol@@@PAUcontrolInfo_struct@vpiDomains@@@Z 
01:00012C40 ?setVScroll@listControl@@SAXQAV1@@@Z 
01:00012C54 ?setVScroll@listControl@@SAXQAV1@@PAUboolean_struct@_builtIn@@@Z 
01:00012CE0 ?_getVScroll@listControl@@SAXQAV1@@PAPAUboolean_struct@_builtIn@@@Z 
01:00012D3C ?setStaticScrollbar@listControl@@SAXQAV1@@@Z 
01:00012D50 ?setStaticScrollbar@listControl@@SAXQAV1@@PAUboolean_struct@_builtIn@@@Z 
01:00012DAC ?_getStaticScrollbar@listControl@@SAXQAV1@@PAPAUboolean_struct@_builtIn@@@Z 
01:00012E08 ?setAllowPartialRows@listControl@@SAXQAV1@@@Z 
01:00012E1C ?setAllowPartialRows@listControl@@SAXQAV1@@PAUboolean_struct@_builtIn@@@Z 
01:00012EA8 ?_getAllowPartialRows@listControl@@SAXQAV1@@PAPAUboolean_struct@_builtIn@@@Z 
01:00012F04 ?setSort@listControl@@SAXQAV1@@@Z 
01:00012F18 ?setSort@listControl@@SAXQAV1@@PAUboolean_struct@_builtIn@@@Z 
01:00012FA4 ?_getSort@listControl@@SAXQAV1@@PAPAUboolean_struct@_builtIn@@@Z 
01:00013000 ?_stringList2tabbedString@listControl@@SAXPAU?$__list_struct@Ustring@@@@PAPB_W@Z 
01:00013020 ?_tabbedString2stringList@listControl@@SAXPB_WPAPAU?$__list_struct@Ustring@@@@@Z 
01:00013040 ?_stringListList2stringList@listControl@@SAXPAU?$__list_struct@PAU?$__list_struct@Ustring@@@@@@PAPAU?$__list_struct@U2@@@@Z 
01:000130B0 ?_stringList2stringListList@listControl@@SAXPAU?$__list_struct@Ustring@@@@PAPAU?$__list_struct@PAPAU?$__list_struct@U2@@@@@@Z 
01:00013120 ?_new@listControl@@SAXQAVcontainerWindow@@@PBUwintype@vpiDomains@@PAPAV1@@@Z  (Idle)
01:0001314C ?_new@listControl@@SAXPBUwintype@vpiDomains@@PAPAV1@@@Z  (Idle)
01:00013174 ?_object_facts_initializer@listControl@@SGXQAV1@@@Z 
01:0001319C ?classInfo@listButton@@SAXPAPB_W0@Z 
01:000131B8 ?new@listButton@@SAXQAV1@@@Z 
01:000131CC ?new@listButton@@SAXQAV1@@QAVcontainerWindow@@@@Z 
01:000131E8 ?setAlignBaseline@listButton@@SAXQAV1@@PAUboolean_struct@_builtIn@@@Z 
01:00013228 ?_getAlignBaseline@listButton@@SAXQAV1@@PAPAUboolean_struct@_builtIn@@@Z 
01:0001323C ?_new@listButton@@SAXQAVcontainerWindow@@@PAPAV1@@@Z  (Idle)
01:00013264 ?_new@listButton@@SAXPAPAV1@@@Z  (Idle)
01:0001328C ?_object_facts_initializer@listButton@@SGXQAV1@@@Z 
01:000132A4 ?classInfo@listBox@@SAXPAPB_W0@Z 
01:000132C0 ?new@listBox@@SAXQAV1@@QAVcontainerWindow@@@@Z 
01:000132E0 ?new@listBox@@SAXQAV1@@@Z 
01:0001331C ?initialize@listBox@@SAXQAVwindow@@@@Z 
01:00013354 ?initTopIndex@listBox@@SAXQAV1@@@Z 
01:0001339C ?setTopIndex@listBox@@SAXQAV1@@H@Z 
01:000133FC ?_getTopIndex@listBox@@SAXQAV1@@PAH@Z 
01:0001346C ?addDoubleClickListener@listBox@@SAXQAV1@@X@Z 
01:0001348C ?removeDoubleClickListener@listBox@@SAXQAV1@@X@Z 
01:00013554 ?addDropDownListener@listBox@@SAXQAVlistControl@@@X@Z 
01:00013570 ?removeDropDownListener@listBox@@SAXQAVlistControl@@@X@Z 
01:0001358C ?addCloseUpListener@listBox@@SAXQAVlistControl@@@X@Z 
01:000135A8 ?removeCloseUpListener@listBox@@SAXQAVlistControl@@@X@Z 
01:000135C4 ?setMaxDropDownRows@listBox@@SAXQAVlistControl@@@I@Z 
01:000135E0 ?_getMaxDropDownRows@listBox@@SAXQAVlistControl@@@PAI@Z 
01:000135FC ?_getDroppedState@listBox@@SAXQAVlistControl@@@PAPAUboolean_struct@_builtIn@@@Z 
01:00013618 ?dispatchActivated@listBox@@SAXQAV1@@@Z 
01:00013684 ?dispatchEvent@listBox@@SAXQAVcontrol@@@PAUcontrolInfo_struct@vpiDomains@@@Z 
01:000136C0 ?setHScroll@listBox@@SAXQAV1@@@Z 
01:000136D4 ?setHScroll@listBox@@SAXQAV1@@PAUboolean_struct@_builtIn@@@Z 
01:00013748 ?_getHScroll@listBox@@SAXQAV1@@PAPAUboolean_struct@_builtIn@@@Z 
01:000137A4 ?setBorder@listBox@@SAXQAV1@@@Z 
01:000137B8 ?setBorder@listBox@@SAXQAV1@@PAUboolean_struct@_builtIn@@@Z 
01:00013814 ?_getBorder@listBox@@SAXQAV1@@PAPAUboolean_struct@_builtIn@@@Z 
01:00013894 ?setExtendedSel@listBox@@SAXQAV1@@@Z 
01:000138A8 ?setExtendedSel@listBox@@SAXQAV1@@PAUboolean_struct@_builtIn@@@Z 
01:00013934 ?_getExtendedSel@listBox@@SAXQAV1@@PAPAUboolean_struct@_builtIn@@@Z 
01:00013990 ?setUseTabStops@listBox@@SAXQAV1@@@Z 
01:000139A4 ?setUseTabStops@listBox@@SAXQAV1@@PAUboolean_struct@_builtIn@@@Z 
01:00013A30 ?_getUseTabStops@listBox@@SAXQAV1@@PAPAUboolean_struct@_builtIn@@@Z 
01:00013A8C ?setMultiSelect@listBox@@SAXQAV1@@@Z 
01:00013AA0 ?setMultiSelect@listBox@@SAXQAV1@@PAUboolean_struct@_builtIn@@@Z 
01:00013AFC ?_getMultiSelect@listBox@@SAXQAV1@@PAPAUboolean_struct@_builtIn@@@Z 
01:00013B58 ?setAutoNotify@listBox@@SAXQAV1@@@Z 
01:00013B6C ?setAutoNotify@listBox@@SAXQAV1@@PAUboolean_struct@_builtIn@@@Z 
01:00013BC8 ?_getAutoNotify@listBox@@SAXQAV1@@PAPAUboolean_struct@_builtIn@@@Z 
01:00013C48 ?setMultiColumn@listBox@@SAXQAV1@@@Z 
01:00013C5C ?setMultiColumn@listBox@@SAXQAV1@@PAUboolean_struct@_builtIn@@@Z 
01:00013CB8 ?_getMultiColumn@listBox@@SAXQAV1@@PAPAUboolean_struct@_builtIn@@@Z 
01:00013D14 ?setColumnWidth@listBox@@SAXQAV1@@H@Z 
01:00013D74 ?setTabStops@listBox@@SAXQAV1@@PAU?$__list_struct@Uinteger@@@@@Z 
01:00013DBC ?initColumnWidth@listBox@@SAXQAV1@@@Z 
01:00013E04 ?initTabStops@listBox@@SAXQAV1@@@Z 
--- From 'Obj\Forms.80533223.obj'
01:00013E50 ?_new@listBox@@SAXQAVcontainerWindow@@@PAPAV1@@@Z 
--- From 'Obj\controls.F62EA529.obj'
01:00013E78 ?_new@listBox@@SAXPAPAV1@@@Z  (Idle)
01:00013EA0 ?classInfo@integerControl@@SAXPAPB_W0@Z 
01:00013EBC ?new@integerControl@@SAXQAV1@@@Z 
01:00013F0C ?new@integerControl@@SAXQAV1@@QAVcontainerWindow@@@@Z 
01:00013F28 ?_onIntValidate@integerControl@@SAXQAV1@@QAVcontrol@@@PAPAUvalidateResult_struct@3@@Z 
01:00013FD4 ?setInteger@integerControl@@SAXQAV1@@H@Z 
01:00013FF4 ?_getInteger@integerControl@@SAXQAV1@@PAH@Z 
01:00014034 ?_tryGetInteger@integerControl@@SAXQAV1@@PAH@Z 
01:00014080 ?setMaximum@integerControl@@SAXQAV1@@H@Z 
01:000140E0 ?_getMaximum@integerControl@@SAXQAV1@@PAH@Z 
01:000140F4 ?setMinimum@integerControl@@SAXQAV1@@H@Z 
01:00014154 ?_getMinimum@integerControl@@SAXQAV1@@PAH@Z 
01:00014168 ?setMandatory@integerControl@@SAXQAV1@@@Z 
01:0001417C ?setMandatory@integerControl@@SAXQAV1@@PAUboolean_struct@_builtIn@@@Z 
01:00014190 ?_getMandatory@integerControl@@SAXQAV1@@PAPAUboolean_struct@_builtIn@@@Z 
01:000141A4 ?_checkContent@integerControl@@SAXQAV1@@PB_WPAPAUvalue_struct@core@@@Z 
01:00014278 ?_whetherEmptyStringAvailable@integerControl@@SAXQAV1@@PAUboolean_struct@_builtIn@@PAPAUvalue_struct@core@@@Z 
01:00014304 ?_checkMinMax@integerControl@@SAXQAV1@@HPAPAUvalue_struct@core@@@Z 
01:000144FC ?setIllegalValueMessage@integerControl@@SAXPB_W@Z  (Idle)
01:0001450C ?setIllegalValueMandatoryMessage@integerControl@@SAXPB_W@Z  (Idle)
01:0001451C ?setIllegalValueMinimumMaximumMessage@integerControl@@SAXPB_W@Z  (Idle)
01:0001452C ?setIllegalValueMinimumMessage@integerControl@@SAXPB_W@Z  (Idle)
01:0001453C ?setIllegalValueMaximumMessage@integerControl@@SAXPB_W@Z  (Idle)
01:0001454C ?_new@integerControl@@SAXQAVcontainerWindow@@@PAPAV1@@@Z  (Idle)
01:00014574 ?_new@integerControl@@SAXPAPAV1@@@Z  (Idle)
01:0001459C ?_class_facts_initializer@integerControl@@SGXXZ 
01:000145DC ?_object_facts_initializer@integerControl@@SGXQAV1@@@Z 
01:00014604 ?classInfo@iconControl@@SAXPAPB_W0@Z  (Idle)
01:00014620 ?new@iconControl@@SAXQAV1@@@Z 
01:000146C8 ?new@iconControl@@SAXQAV1@@QAVcontainerWindow@@@@Z 
01:000146E4 ?setIcon@iconControl@@SAXQAVwindow@@@PBUresid@vpiDomains@@@Z 
01:000147B0 ?autoAdjustRect@iconControl@@SAXQAV1@@@Z 
01:00014868 ?_getIcon@iconControl@@SAXQAV1@@AAUresid@vpiDomains@@@Z 
01:00014898 ?setHInstance@iconControl@@SAXQAV1@@PBUhModule@@@Z 
01:000148AC ?_getHInstance@iconControl@@SAXQAV1@@AAUhModule@@@Z 
01:000148C0 ?show@iconControl@@SAXQAVwindow@@@@Z 
01:000149DC ?create@iconControl@@SAXQAV1@@PBUwindowHandle@vpiDomains@@@Z 
01:00014A9C ?_onIconNative@iconControl@@SAXQAV1@@QAVwindow@@@IIHPAPAUnativeResponse_struct@3@@Z 
01:00014B18 ?onControlPaint@iconControl@@SAXQAV1@@QAVdrawWindow@@@PAUrct_struct@vpiDomains@@QAVwindowGDI@@@@Z 
01:00014C50 ?setRect@iconControl@@SAXQAVcontrol@@@PAUrct_struct@vpiDomains@@@Z 
--- From 'Obj\errorPresentationDialog.9174D14B.obj'
01:00014C9C ?_new@iconControl@@SAXQAVcontainerWindow@@@PAPAV1@@@Z 
--- From 'Obj\controls.F62EA529.obj'
01:00014CC4 ?_new@iconControl@@SAXPAPAV1@@@Z  (Idle)
01:00014CEC ?_object_facts_initializer@iconControl@@SGXQAV1@@@Z 
01:00014D04 ?classInfo@groupBox@@SAXPAPB_W0@Z 
01:00014D20 ?new@groupBox@@SAXQAV1@@QAVcontainerWindow@@@@Z 
01:00014D3C ?new@groupBox@@SAXQAV1@@@Z 
01:00014D8C ?show@groupBox@@SAXQAVwindow@@@@Z 
01:00014DF8 ?setClientRect@groupBox@@SAXQAVwindow@@@PAUrct_struct@vpiDomains@@@Z 
01:00014ED0 ?setBorderStyle@groupBox@@SAXQAV1@@PAUborderStyle_struct@1@@Z 
01:00014F10 ?_getBorderStyle@groupBox@@SAXQAV1@@PAPAUborderStyle_struct@1@@Z 
01:00014F24 ?_onControlNative@groupBox@@SAXQAV1@@QAVwindow@@@IIHPAPAUnativeResponse_struct@3@@Z 
01:00015118 ?_inflateClientRect@groupBox@@SAXQAV1@@PAUrct_struct@vpiDomains@@PAPAU34@@Z 
01:000151E8 ?borderStyle_offsets@groupBox@@SAXPAUborderStyle_struct@1@PAHPAHPAHPAHPAPB_W@Z 
01:000152A8 ?drawNCBackground@groupBox@@SAXQAV1@@PBUhDC@gui_Native@@PAUrct_struct@vpiDomains@@@Z 
01:000153CC ?drawNCBorder@groupBox@@SAXPAUborderStyle_struct@1@PBUhDC@gui_Native@@PAUrct_struct@vpiDomains@@H@Z 
01:00015654 ?drawNCCaption@groupBox@@SAXQAV1@@PBUhDC@gui_Native@@PAUrct_struct@vpiDomains@@PBUpositive@@@Z 
01:0001583C ?setText@groupBox@@SAXQAVwindow@@@PB_W@Z 
01:0001585C ?invalidate@groupBox@@SAXQAV1@@@Z 
--- From 'Obj\Forms.80533223.obj'
01:000158A4 ?_new@groupBox@@SAXQAVcontainerWindow@@@PAPAV1@@@Z 
--- From 'Obj\controls.F62EA529.obj'
01:000158CC ?_new@groupBox@@SAXPAPAV1@@@Z  (Idle)
01:000158F4 ?_object_facts_initializer@groupBox@@SGXQAV1@@@Z 
01:0001590C ?classInfo@editControl@@SAXPAPB_W0@Z 
01:00015928 ?new@editControl@@SAXQAV1@@QAVcontainerWindow@@@@Z 
01:00015944 ?new@editControl@@SAXQAV1@@@Z 
01:00015990 ?show@editControl@@SAXQAVwindow@@@@Z 
01:000159B8 ?setOuterRect@editControl@@SAXQAVwindow@@@PAUrct_struct@vpiDomains@@@Z 
01:00015A30 ?_fixEditControlOuterRect@editControl@@SAXPAUboolean_struct@_builtIn@@PAUrct_struct@vpiDomains@@PAPAU45@@Z 
01:00015AD0 ?setAlignBaseline@editControl@@SAXQAV1@@PAUboolean_struct@_builtIn@@@Z 
01:00015B10 ?_getAlignBaseline@editControl@@SAXQAV1@@PAPAUboolean_struct@_builtIn@@@Z 
01:00015B24 ?addModifiedListener@editControl@@SAXQAV1@@X@Z 
01:00015B44 ?removeModifiedListener@editControl@@SAXQAV1@@X@Z 
01:00015C0C ?anonymous$17$100_60$adddelayedmodifiedlistener/2@editControl@@SAXPAUanonymous$17$100_60$adddelayedmodifiedlistener/2c_struct@1@@Z 
01:00015C44 ?addDelayedModifiedListener@editControl@@SAXQAV1@@PBUpositive@@X@Z 
01:00015CB4 ?removeDelayedModifiedListener@editControl@@SAXQAV1@@X@Z 
01:00015D80 ?dispatchModified@editControl@@SAXQAV1@@@Z 
01:00015E98 ?dispatchEvent@editControl@@SAXQAVcontrol@@@PAUcontrolInfo_struct@vpiDomains@@@Z 
01:00015EC8 ?selectText@editControl@@SAXQAV1@@PBUcharCount@@1@Z 
01:00015EF4 ?selectAll@editControl@@SAXQAV1@@@Z 
01:00015F24 ?getTextSelection@editControl@@SAXQAV1@@AAUcharCount@@1@Z 
01:00015F50 ?setAutoHScroll@editControl@@SAXQAV1@@@Z 
01:00015F64 ?setAutoHScroll@editControl@@SAXQAV1@@PAUboolean_struct@_builtIn@@@Z 
01:00015FF0 ?_getAutoHScroll@editControl@@SAXQAV1@@PAPAUboolean_struct@_builtIn@@@Z 
01:0001604C ?setAutoVScroll@editControl@@SAXQAV1@@@Z 
01:00016060 ?setAutoVScroll@editControl@@SAXQAV1@@PAUboolean_struct@_builtIn@@@Z 
01:000160EC ?_getAutoVScroll@editControl@@SAXQAV1@@PAPAUboolean_struct@_builtIn@@@Z 
01:00016148 ?setBorder@editControl@@SAXQAV1@@@Z 
01:0001615C ?setBorder@editControl@@SAXQAV1@@PAUboolean_struct@_builtIn@@@Z 
01:000161E8 ?_getBorder@editControl@@SAXQAV1@@PAPAUboolean_struct@_builtIn@@@Z 
01:000162E0 ?setMultiLine@editControl@@SAXQAV1@@@Z 
01:000162F4 ?setMultiLine@editControl@@SAXQAV1@@PAUboolean_struct@_builtIn@@@Z 
01:00016380 ?_getMultiLine@editControl@@SAXQAV1@@PAPAUboolean_struct@_builtIn@@@Z 
01:000163DC ?setVScroll@editControl@@SAXQAV1@@@Z 
01:000163F0 ?setVScroll@editControl@@SAXQAV1@@PAUboolean_struct@_builtIn@@@Z 
01:00016464 ?_getVScroll@editControl@@SAXQAV1@@PAPAUboolean_struct@_builtIn@@@Z 
01:000164C0 ?setHScroll@editControl@@SAXQAV1@@@Z 
01:000164D4 ?setHScroll@editControl@@SAXQAV1@@PAUboolean_struct@_builtIn@@@Z 
01:00016548 ?_getHScroll@editControl@@SAXQAV1@@PAPAUboolean_struct@_builtIn@@@Z 
01:000165A4 ?setWantReturn@editControl@@SAXQAV1@@@Z 
01:000165B8 ?setWantReturn@editControl@@SAXQAV1@@PAUboolean_struct@_builtIn@@@Z 
01:0001662C ?_getWantReturn@editControl@@SAXQAV1@@PAPAUboolean_struct@_builtIn@@@Z 
01:00016688 ?setPassword@editControl@@SAXQAV1@@@Z 
01:0001669C ?setPassword@editControl@@SAXQAV1@@PAUboolean_struct@_builtIn@@@Z 
01:00016728 ?_getPassword@editControl@@SAXQAV1@@PAPAUboolean_struct@_builtIn@@@Z 
01:00016784 ?setHideSel@editControl@@SAXQAV1@@@Z 
01:00016798 ?setHideSel@editControl@@SAXQAV1@@PAUboolean_struct@_builtIn@@@Z 
01:00016824 ?_getHideSel@editControl@@SAXQAV1@@PAPAUboolean_struct@_builtIn@@@Z 
01:000168A4 ?setReadOnly@editControl@@SAXQAV1@@@Z 
01:000168B8 ?setReadOnly@editControl@@SAXQAV1@@PAUboolean_struct@_builtIn@@@Z 
01:00016980 ?_getReadOnly@editControl@@SAXQAV1@@PAPAUboolean_struct@_builtIn@@@Z 
01:000169DC ?setAlignment@editControl@@SAXQAV1@@PAUalignment_struct@vpiDomains@@@Z 
01:00016AD0 ?_getAlignment@editControl@@SAXQAV1@@PAPAUalignment_struct@vpiDomains@@@Z 
01:00016B70 ?setUpperCase@editControl@@SAXQAV1@@@Z 
01:00016B84 ?setUpperCase@editControl@@SAXQAV1@@PAUboolean_struct@_builtIn@@@Z 
01:00016C34 ?_getUpperCase@editControl@@SAXQAV1@@PAPAUboolean_struct@_builtIn@@@Z 
01:00016C90 ?setLowerCase@editControl@@SAXQAV1@@@Z 
01:00016CA4 ?setLowerCase@editControl@@SAXQAV1@@PAUboolean_struct@_builtIn@@@Z 
01:00016D44 ?_getLowerCase@editControl@@SAXQAV1@@PAPAUboolean_struct@_builtIn@@@Z 
01:00016DA0 ?anonymous$18$402_20$setcuebanner/2@editControl@@SAXPAUanonymous$18$402_20$setcuebanner/2c_struct@1@@Z 
01:00016DFC ?setCueBanner@editControl@@SAXQAV1@@PB_WPAUboolean_struct@_builtIn@@@Z 
--- From 'Obj\Forms.80533223.obj'
01:00016E40 ?_new@editControl@@SAXQAVcontainerWindow@@@PAPAV1@@@Z 
--- From 'Obj\controls.F62EA529.obj'
01:00016E68 ?_new@editControl@@SAXPAPAV1@@@Z  (Idle)
01:00016E90 ?_object_facts_initializer@editControl@@SGXQAV1@@@Z 
01:00016EB0 ?classInfo@control_exception@@SAXPAPB_W0@Z 
01:00016ECC ?raise_NoSelectedRadioButtonException@control_exception@@SAXX@Z 
01:00016EEC ?raise_WrongRadioButtonException@control_exception@@SAXXQAVradioButton@@@@Z 
01:00016F70 ?raise_IntegerControlIllegalContentException@control_exception@@SAXX@Z 
01:00016F90 ?raise_RealControlIllegalContentException@control_exception@@SAXX@Z 
01:00016FB0 ?raise_MinimumGreaterThanMaximumException@control_exception@@SAXXPAN@Z 
01:00017024 ?raise_MaximumLessThanMinimumException@control_exception@@SAXXPAN@Z 
01:00017098 ?raise_OnlyOneCancelException@control_exception@@SAXX@Z 
01:000170B8 ?noSelectedRadioButton_exception@control_exception@@SAXPAXPAPB_W1@Z 
01:000170E0 ?wrongRadioButton_exception@control_exception@@SAXPAXPAPB_W1@Z 
01:00017108 ?integerControlIllegalContent_exception@control_exception@@SAXPAXPAPB_W1@Z 
01:00017130 ?realControlIllegalContent_exception@control_exception@@SAXPAXPAPB_W1@Z 
01:00017158 ?minimumGreaterThanMaximum_exception@control_exception@@SAXPAXPAPB_W1@Z 
01:00017180 ?maximumLessThanMinimum_exception@control_exception@@SAXPAXPAPB_W1@Z 
01:000171A8 ?onlyOneCancel_exception@control_exception@@SAXPAXPAPB_W1@Z 
01:000171D0 ?classInfo@containerControl@@SAXPAPB_W0@Z  (Idle)
01:000171EC ?new@containerControl@@SAXQAV1@@QAVcontainerWindow@@@@Z 
01:00017208 ?new@containerControl@@SAXQAV1@@@Z 
01:000172C8 ?show@containerControl@@SAXQAVwindow@@@@Z 
01:00017470 ?_tryGetControl@containerControl@@SAXQAVcontainerWindow@@@PAPAVcontrol@@@@Z 
01:00017490 ?setContainer@containerControl@@SAXQAVcontrol@@@QAVcontainerWindow@@@@Z 
01:00017540 ?_onControlEraseBackground@containerControl@@SAXQAVdrawWindow@@@QAVwindowGDI@@@PAPAUeraseBackgroundResponse_struct@2@@Z 
01:00017554 ?_onControlNative@containerControl@@SAXQAV1@@QAVwindow@@@IIHPAPAUnativeResponse_struct@3@@Z 
01:00017644 ?_validate@containerControl@@SAXQAVcontrol@@@PAPAUvalidateResult_struct@2@@Z 
01:000176A4 ?_new@containerControl@@SAXQAVcontainerWindow@@@PAPAV1@@@Z  (Idle)
01:000176CC ?_new@containerControl@@SAXPAPAV1@@@Z  (Idle)
01:000176F4 ?_object_facts_initializer@containerControl@@SGXQAV1@@@Z 
01:0001770C ?classInfo@checkButton@@SAXPAPB_W0@Z 
01:00017728 ?new@checkButton@@SAXQAV1@@QAVcontainerWindow@@@@Z 
01:00017744 ?new@checkButton@@SAXQAV1@@@Z 
01:00017784 ?initialize@checkButton@@SAXQAVwindow@@@@Z 
01:000177AC ?setOuterRect@checkButton@@SAXQAVwindow@@@PAUrct_struct@vpiDomains@@@Z 
01:000177EC ?_fixCheckButtonOuterRect@checkButton@@SAXQAV1@@PAUboolean_struct@_builtIn@@PAUrct_struct@vpiDomains@@PAPAU56@@Z 
01:00017890 ?setAlignBaseline@checkButton@@SAXQAV1@@PAUboolean_struct@_builtIn@@@Z 
01:000178D0 ?_getAlignBaseline@checkButton@@SAXQAV1@@PAPAUboolean_struct@_builtIn@@@Z 
01:000178E4 ?defaultClickResponder@checkButton@@SAXQAV1@@@Z 
01:000178EC ?setClickResponder@checkButton@@SAXQAV1@@X@Z 
01:00017900 ?_getClickResponder@checkButton@@SAXQAV1@@PAX@Z 
01:00017914 ?resetClickResponder@checkButton@@SAXQAV1@@@Z 
01:00017928 ?addStateChangedListener@checkButton@@SAXQAV1@@X@Z 
01:00017948 ?removeStateChangedListener@checkButton@@SAXQAV1@@X@Z 
01:00017A10 ?dispatchActivated@checkButton@@SAXQAV1@@@Z 
01:00017A7C ?dispatchStateChanged@checkButton@@SAXQAV1@@PAUstate_struct@1@1@Z 
01:00017B38 ?dispatchEvent@checkButton@@SAXQAVcontrol@@@PAUcontrolInfo_struct@vpiDomains@@@Z 
01:00017B54 ?_getCheckedState@checkButton@@SAXQAV1@@PAPAUstate_struct@1@@Z 
01:00017BB0 ?setCheckedState@checkButton@@SAXQAV1@@PAUstate_struct@1@@Z 
01:00017C20 ?state2integral@checkButton@@SAXPAUstate_struct@1@PAI@Z 
01:00017C54 ?setChecked@checkButton@@SAXQAV1@@PAUboolean_struct@_builtIn@@@Z 
01:00017C80 ?_getChecked@checkButton@@SAXQAV1@@PAPAUboolean_struct@_builtIn@@@Z 
01:00017CA8 ?setStyle@checkButton@@SAXQAV1@@PAUboolean_struct@_builtIn@@1@Z 
01:00017DCC ?getStyle@checkButton@@SAXQAV1@@PAPAUboolean_struct@_builtIn@@1@Z 
01:00017ED8 ?setAuto@checkButton@@SAXQAV1@@@Z 
01:00017EEC ?setAuto@checkButton@@SAXQAV1@@PAUboolean_struct@_builtIn@@@Z 
01:00017F18 ?_getAuto@checkButton@@SAXQAV1@@PAPAUboolean_struct@_builtIn@@@Z 
01:00017F38 ?setLeftText@checkButton@@SAXQAV1@@@Z 
01:00017F4C ?setLeftText@checkButton@@SAXQAV1@@PAUboolean_struct@_builtIn@@@Z 
01:00017FC0 ?_getLeftText@checkButton@@SAXQAV1@@PAPAUboolean_struct@_builtIn@@@Z 
01:0001801C ?_new@checkButton@@SAXQAVcontainerWindow@@@PAPAV1@@@Z  (Idle)
01:00018044 ?_new@checkButton@@SAXPAPAV1@@@Z  (Idle)
01:0001806C ?state2integral@checkButton@@SAXPAPAUstate_struct@1@I@Z 
01:000180EC ?_object_facts_initializer@checkButton@@SGXQAV1@@@Z 
01:00018110 ?classInfo@button@@SAXPAPB_W0@Z 
01:0001812C ?new@button@@SAXQAV1@@QAVcontainerWindow@@@@Z 
01:00018148 ?new@button@@SAXQAV1@@@Z 
01:00018178 ?anonymous$19$36_25$newok/1@button@@SAXPAUanonymous$19$36_25$newok/1c_struct@1@QAVwindow@@@H@Z 
01:00018228 ?newOk@button@@SAXQAV1@@QAVcontainerWindow@@@@Z 
01:000182A4 ?newCancel@button@@SAXQAV1@@QAVcontainerWindow@@@@Z 
01:00018328 ?show@button@@SAXQAVwindow@@@@Z 
01:000183F8 ?anonymous$20$65_25$defaultheight/1@button@@SAXPAUanonymous$20$65_25$defaultheight/1c_struct@1@@Z 
01:00018418 ?defaultHeight@button@@SGXQAV1@@PAUboolean_struct@_builtIn@@@Z 
01:0001846C ?defaultHeight@button@@SGPAUboolean_struct@_builtIn@@QAV1@@@Z 
01:000184AC ?onCancelButtonDestroy@button@@SAXQAV1@@QAVwindow@@@@Z 
01:00018560 ?_getClickResponder@button@@SAXQAV1@@PAX@Z 
01:00018574 ?setClickResponder@button@@SAXQAV1@@X@Z 
01:00018588 ?resetClickResponder@button@@SAXQAV1@@@Z 
01:0001859C ?_defaultClickResponder@button@@SAXQAV1@@PAPAUactionResponse_struct@1@@Z 
01:000185B0 ?dispatchClick@button@@SAXQAV1@@@Z 
01:00018658 ?invokeDefaultAction@button@@SAXQAV1@@@Z 
01:000186AC ?tryValidateParentContainer@button@@SAXQAV1@@@Z 
01:0001872C ?click@button@@SAXQAV1@@@Z 
01:00018734 ?dispatchEvent@button@@SAXQAVcontrol@@@PAUcontrolInfo_struct@vpiDomains@@@Z 
01:00018750 ?setValidateOnClick@button@@SAXQAV1@@@Z 
01:00018764 ?setValidateOnClick@button@@SAXQAV1@@PAUboolean_struct@_builtIn@@@Z 
01:00018778 ?_getValidateOnClick@button@@SAXQAV1@@PAPAUboolean_struct@_builtIn@@@Z 
--- From 'Obj\Forms.80533223.obj'
01:0001878C ?_new@button@@SAXQAVcontainerWindow@@@PAPAV1@@@Z 
--- From 'Obj\controls.F62EA529.obj'
01:000187B4 ?_new@button@@SAXPAPAV1@@@Z  (Idle)
--- From 'Obj\Forms.80533223.obj'
01:000187DC ?_newOk@button@@SAXQAVcontainerWindow@@@PAPAV1@@@Z 
01:00018804 ?_newCancel@button@@SAXQAVcontainerWindow@@@PAPAV1@@@Z 
--- From 'Obj\controls.F62EA529.obj'
01:0001882C ?_object_facts_initializer@button@@SGXQAV1@@@Z 
01:000191B4 versionControl?_initObject@@@QAGXQAV1@H@Z 
01:000191DC ?@create_object@versionControl@@SGQAV1@@XZ 
01:000191F8 versionControl?_InternalFinalizer@@@QAGXQAV1@@Z 
01:00019D20 timerControl?_initObject@@@QAGXQAV1@H@Z 
01:00019D70 ?@create_object@timerControl@@SGQAV1@@XZ 
01:00019D8C timerControl?_InternalFinalizer@@@QAGXQAV1@@Z 
--- From 'Obj\controlSupport.99797704.obj'
01:0001A6DC textControl?_initObject@@@QAGXQAV1@H@Z 
--- From 'Obj\controls.F62EA529.obj'
01:0001A718 ?@create_object@textControl@@SGQAV1@@XZ 
--- From 'Obj\controlSupport.99797704.obj'
01:0001A734 textControl?_InternalFinalizer@@@QAGXQAV1@@Z 
--- From 'Obj\controls.F62EA529.obj'
01:0001B03C scrollControl?_initObject@@@QAGXQAV1@H@Z 
01:0001B06C ?@create_object@scrollControl@@SGQAV1@@XZ 
01:0001B088 scrollControl?_InternalFinalizer@@@QAGXQAV1@@Z 
01:0001BCA0 realControl?_initObject@@@QAGXQAV1@H@Z 
01:0001BCDC ?@create_object@realControl@@SGQAV1@@XZ 
01:0001BCF8 realControl?_InternalFinalizer@@@QAGXQAV1@@Z 
01:0001BD10 radioButtonGroup?_initObject@@@QAGXQAV1@H@Z 
01:0001BD28 ?@create_object@radioButtonGroup@@SGQAV1@@XZ 
01:0001BD44 radioButtonGroup?_InternalFinalizer@@@QAGXQAV1@@Z 
01:0001C688 radioButton?_initObject@@@QAGXQAV1@H@Z 
01:0001C6C4 ?@create_object@radioButton@@SGQAV1@@XZ 
01:0001C6E0 radioButton?_InternalFinalizer@@@QAGXQAV1@@Z 
01:0001DE10 listEdit?_initObject@@@QAGXQAV1@H@Z 
01:0001DE54 ?@create_object@listEdit@@SGQAV1@@XZ 
01:0001DE70 listEdit?_InternalFinalizer@@@QAGXQAV1@@Z 
01:0001E808 listControl?_initObject@@@QAGXQAV1@H@Z 
01:0001E844 ?@create_object@listControl@@SGQAV1@@XZ 
01:0001E860 listControl?_InternalFinalizer@@@QAGXQAV1@@Z 
01:0001F428 listButton?_initObject@@@QAGXQAV1@H@Z 
01:0001F460 ?@create_object@listButton@@SGQAV1@@XZ 
01:0001F47C listButton?_InternalFinalizer@@@QAGXQAV1@@Z 
01:00020034 listBox?_initObject@@@QAGXQAV1@H@Z 
01:00020064 ?@create_object@listBox@@SGQAV1@@XZ 
01:00020080 listBox?_InternalFinalizer@@@QAGXQAV1@@Z 
01:00020C98 integerControl?_initObject@@@QAGXQAV1@H@Z 
01:00020CD4 ?@create_object@integerControl@@SGQAV1@@XZ 
01:00020CF0 integerControl?_InternalFinalizer@@@QAGXQAV1@@Z 
01:000226BC iconControl?_initObject@@@QAGXQAV1@H@Z 
01:00022704 ?@create_object@iconControl@@SGQAV1@@XZ 
01:00022720 iconControl?_InternalFinalizer@@@QAGXQAV1@@Z 
01:000243B8 groupBox?_initObject@@@QAGXQAV1@H@Z 
01:000243EC ?@create_object@groupBox@@SGQAV1@@XZ 
01:00024408 groupBox?_InternalFinalizer@@@QAGXQAV1@@Z 
01:00024D60 editControl?_initObject@@@QAGXQAV1@H@Z 
01:00024D9C ?@create_object@editControl@@SGQAV1@@XZ 
01:00024DB8 editControl?_InternalFinalizer@@@QAGXQAV1@@Z 
01:00027058 containerControl?_initObject@@@QAGXQAV1@H@Z 
01:000270AC ?@create_object@containerControl@@SGQAV1@@XZ 
01:000270C8 containerControl?_InternalFinalizer@@@QAGXQAV1@@Z 
01:000279FC checkButton?_initObject@@@QAGXQAV1@H@Z 
01:00027A38 ?@create_object@checkButton@@SGQAV1@@XZ 
01:00027A54 checkButton?_InternalFinalizer@@@QAGXQAV1@@Z 
01:000283AC button?_initObject@@@QAGXQAV1@H@Z 
01:000283E8 ?@create_object@button@@SGQAV1@@XZ 
01:00028404 button?_InternalFinalizer@@@QAGXQAV1@@Z 
--- From 'Obj\gui.B1A70004.obj'
01:00028420 ?classInfo@window@@SAXPAPB_W0@Z 
--- From 'Obj\controlSupport.99797704.obj'
01:0002843C ?new@window@@SAXQAV1@@@Z 
--- From 'Obj\gui.B1A70004.obj'
01:00028454 ?new@window@@SAXQAV1@@0@Z 
01:000284A0 ?_getDefaultWindowExtension@window@@SAXQAV1@@PAPAVwindowExtension@@@@Z 
01:000284B4 ?_getWindowExtension@window@@SAXQAV1@@PAPAVwindowExtension@@@@Z 
01:000284C8 ?setWindowExtension@window@@SAXQAV1@@QAVwindowExtension@@@@Z 
01:000284E8 ?setNewHandler@window@@SAXQAV1@@PBUwindowHandle@@X@Z 
01:00028540 ?show@window@@SAXQAV1@@@Z 
01:0002855C ?_tryGetVpiWindow@window@@SAXQAV1@@AAUwindowHandle@vpiDomains@@@Z 
01:00028580 ?isShown@window@@SAXQAV1@@@Z 
01:00028598 ?_getVpiWindow@window@@SAXQAV1@@AAUwindowHandle@vpiDomains@@@Z 
01:000285D0 ?attachVpiWindow@window@@SAXQAV1@@PBUwindowHandle@vpiDomains@@@Z 
01:000286B0 ?detachVpiWindow@window@@SAXQAV1@@@Z 
01:000286C0 ?destroy@window@@SAXQAV1@@@Z 
01:00028714 ?isDestroying@window@@SAXQAV1@@@Z 
01:0002872C ?close@window@@SAXQAV1@@@Z 
01:0002874C ?setSetting@window@@SAXQAV1@@PAUsetting_struct@1@X@Z 
01:000287B4 ?whenCreated@window@@SAXQAV1@@X@Z 
01:00028824 ?initialize@window@@SAXQAV1@@@Z 
01:000289B0 ?isInitializing@window@@SAXQAV1@@@Z 
01:000289CC ?_getParent@window@@SAXQAV1@@PAPAV1@@@Z 
01:00028A48 ?setParent@window@@SAXQAV1@@0@Z 
01:00028AA0 ?_getDialogParent@window@@SAXQAV1@@PAPAVdialog@@@@Z 
01:00028B08 ?_getText@window@@SAXQAV1@@PAPB_W@Z 
01:00028BBC ?anonymous$2$214_18$settext/1@window@@SAXPAUanonymous$2$214_18$settext/1c_struct@1@@Z 
01:00028BF0 ?setText@window@@SAXQAV1@@PB_W@Z 
01:00028CE0 ?_getData@window@@SAXQAV1@@PAH@Z 
01:00028D90 ?anonymous$3$233_18$setdata/1@window@@SAXPAUanonymous$3$233_18$setdata/1c_struct@1@@Z 
01:00028DC4 ?setData@window@@SAXQAV1@@H@Z 
01:00028EB4 ?_getOuterRect@window@@SAXQAV1@@PAPAUrct_struct@vpiDomains@@@Z 
01:00028EE0 ?setOuterRect@window@@SAXQAV1@@PAUrct_struct@vpiDomains@@@Z 
01:00028F54 ?anonymous$4$248_18$setclientrect/1@window@@SAXPAUanonymous$4$248_18$setclientrect/1c_struct@1@@Z 
01:00028F94 ?setClientRect@window@@SAXQAV1@@PAUrct_struct@vpiDomains@@@Z 
01:00029084 ?_getClientRect@window@@SAXQAV1@@PAPAUrct_struct@vpiDomains@@@Z 
01:000291F8 ?getClientSize@window@@SAXQAV1@@PAHPAH@Z 
01:00029240 ?_adjustRectEx@window@@SAXQAV1@@PAUrct_struct@vpiDomains@@PAPAU34@@Z 
01:000293EC ?_windowHasMenu@window@@SAXPBUwindowHandle@@IAAUbooleanInt@@@Z 
01:0002942C ?center@window@@SAXQAV1@@@Z 
01:00029454 ?center@window@@SAXQAV1@@PAUrct_struct@vpiDomains@@@Z 
01:0002947C ?centerTo@window@@SAXQAV1@@0@Z 
01:000295AC ?_mapPointsTo@window@@SAXQAV1@@0PAU?$__list_struct@Upnt@@@@PAPAU?$__list_struct@U4@@@@Z 
01:000295F8 ?_mapPointTo@window@@SAXQAV1@@0PAUpnt_struct@vpiDomains@@PAPAU45@@Z 
01:00029644 ?anonymous$5$350_18$seticon/1@window@@SAXPAUanonymous$5$350_18$seticon/1c_struct@1@@Z 
01:00029678 ?setIcon@window@@SAXQAV1@@PBUresid@vpiDomains@@@Z 
01:00029768 ?anonymous$6$356_21$setfocus/0@window@@SAXPAUanonymous$6$356_21$setfocus/0c_struct@1@@Z 
01:00029794 ?setFocus@window@@SAXQAV1@@@Z 
01:000297CC ?anonymous$7$360_21$bringtotop/0@window@@SAXPAUanonymous$7$360_21$bringtotop/0c_struct@1@@Z 
01:000297F8 ?bringToTop@window@@SAXQAV1@@@Z 
01:00029830 ?anonymous$8$364_21$setactive/0@window@@SAXPAUanonymous$8$364_21$setactive/0c_struct@1@@Z 
01:0002985C ?setActive@window@@SAXQAV1@@@Z 
01:00029894 ?anonymous$9$375_18$setfont/1@window@@SAXPAUanonymous$9$375_18$setfont/1c_struct@1@@Z 
01:000298C8 ?setFont@window@@SAXQAV1@@PBUfont@vpiDomains@@@Z 
01:000299B8 ?_getFont@window@@SAXQAV1@@AAUfont@vpiDomains@@@Z 
01:00029A80 ?getFontMetrics@window@@SAXQAV1@@AAUpositive@@11@Z 
01:00029BC4 ?addHandler@window@@SAXQAV1@@X@Z 
01:00029BE4 ?removeHandler@window@@SAXQAV1@@X@Z 
01:00029CA8 ?setSubClassHandler@window@@SAXQAV1@@XPAUboolean_struct@_builtIn@@@Z 
01:00029D48 ?attachSpecialHandler@window@@SAXQAV1@@PBUwindowHandle@vpiDomains@@@Z 
01:00029ED0 ?_getOwnPaint@window@@SAXQAV1@@AAUbooleanInt@core@@@Z 
01:00029EFC ?_subclassEH@window@@SAXQAV1@@PBUwindowHandle@@PAUevent_struct@vpiDomains@@PAH@Z 
01:00029F6C ?_sendEvent@window@@SAXQAV1@@PAUevent_struct@vpiDomains@@PAH@Z 
01:00029F9C ?_sendEvent@window@@SAXQAV1@@PAUevent_struct@vpiDomains@@PAUboolean_struct@_builtIn@@PAH@Z 
01:00029FE4 ?anonymous$10$490_21$postevent/1@window@@SAXPAUanonymous$10$490_21$postevent/1c_struct@1@@Z 
01:0002A018 ?postEvent@window@@SAXQAV1@@PAUevent_struct@vpiDomains@@@Z 
01:0002A054 ?postUserEvent@window@@SAXQAV1@@HH@Z 
01:0002A088 ?_getClassName@window@@SAXQAV1@@PAPB_W@Z 
01:0002A0B4 ?_timerSet@window@@SAXQAV1@@PBUpositive@@AAUtimerId@vpiDomains@@@Z 
01:0002A0E4 ?timerKill@window@@SAXQAV1@@PBUtimerId@vpiDomains@@@Z 
01:0002A0F4 ?_getAttrVal@window@@SAXQAV1@@HPAH@Z 
01:0002A11C $getDialogs$window$predicate$(i,o)$c$_m15 
01:0002A17C $getChildWindows$window$predicate$(i,o)$c$_m16 
01:0002A1DC ?isChild@window@@SAXQAV1@@0@Z 
01:0002A224 ?isChild@window@@SAXPBUhwnd@@0@Z 
01:0002A264 ?menuPopUp@window@@SAXQAV1@@PAUmenu_struct@vpiDomains@@PAUpnt_struct@4@PBUmenuAlign@4@@Z 
01:0002A290 ?anonymous$11$543_21$cursorset/1@window@@SAXPAUanonymous$11$543_21$cursorset/1c_struct@1@@Z 
01:0002A2D0 ?cursorSet@window@@SAXQAV1@@PBUcursor@vpiDomains@@@Z 
01:0002A30C ?cursorSet@window@@SAXQAV1@@PBUcursor@vpiDomains@@PAUboolean_struct@_builtIn@@@Z 
01:0002A34C ?cursorSet@window@@SAXQAV1@@PBUhModule@@PBUcursor@vpiDomains@@PAUboolean_struct@_builtIn@@@Z 
01:0002A38C ?_cursorGetPos@window@@SAXQAV1@@PAPAUpnt_struct@vpiDomains@@@Z 
01:0002A3B8 ?_cursorGet@window@@SAXQAV1@@AAUcursor@vpiDomains@@@Z 
01:0002A3E4 ?_checkState@window@@SAXQAV1@@PBUwsflag@vpiDomains@@PAPAUboolean_struct@_builtIn@@@Z 
01:0002A440 ?isFlagSet@window@@SAXQAV1@@PBUwsflag@vpiDomains@@@Z 
01:0002A46C ?_getState@window@@SAXQAV1@@PAPAU?$__list_struct@Uwsflag@@@@@Z 
01:0002A530 ?setState@window@@SAXQAV1@@PAU?$__list_struct@Uwsflag@@@@@Z 
01:0002A840 ?windowContinue@window@@SAXPAXPAPB_W1@Z 
01:0002A868 ?setEnabled@window@@SAXQAV1@@@Z 
01:0002A87C ?setEnabled@window@@SAXQAV1@@PAUboolean_struct@_builtIn@@@Z 
01:0002A8A8 ?_getEnabled@window@@SAXQAV1@@PAPAUboolean_struct@_builtIn@@@Z 
01:0002A8C4 ?setVisible@window@@SAXQAV1@@@Z 
01:0002A8D8 ?setVisible@window@@SAXQAV1@@PAUboolean_struct@_builtIn@@@Z 
01:0002A904 ?_getVisible@window@@SAXQAV1@@PAPAUboolean_struct@_builtIn@@@Z 
01:0002A920 ?clearState@window@@SAXQAV1@@PAU?$__list_struct@Uwsflag@@@@@Z 
01:0002A958 ?addState@window@@SAXQAV1@@PAU?$__list_struct@Uwsflag@@@@@Z 
01:0002AAF0 ?clearStateList@window@@SAXQAV1@@PAU?$__list_struct@Uwsflag@@@@@Z 
01:0002ABD0 ?isDynStateFlagTrigger@window@@SAXPBUwsflag@vpiDomains@@PAPAU?$__list_struct@U2@@@@Z 
01:0002ACB8 ?addShowListener@window@@SAXQAV1@@X@Z 
01:0002ACD8 ?removeShowListener@window@@SAXQAV1@@X@Z 
01:0002ADA0 ?handleShow@window@@SAXQAVwindowExtension@@@QAV1@@H@Z 
01:0002AE24 ?addDestroyListener@window@@SAXQAV1@@X@Z 
01:0002AE44 ?removeDestroyListener@window@@SAXQAV1@@X@Z 
01:0002AF0C ?handleDestroy@window@@SAXQAVwindowExtension@@@QAV1@@@Z 
01:0002AFA8 ?addGetFocusListener@window@@SAXQAV1@@X@Z 
01:0002AFC8 ?removeGetFocusListener@window@@SAXQAV1@@X@Z 
01:0002B090 ?handleFocus@window@@SAXQAVwindowExtension@@@QAV1@@@Z 
01:0002B110 ?addLoseFocusListener@window@@SAXQAV1@@X@Z 
01:0002B130 ?removeLoseFocusListener@window@@SAXQAV1@@X@Z 
01:0002B1F8 ?handleLoseFocus@window@@SAXQAVwindowExtension@@@QAV1@@@Z 
01:0002B278 ?addSizeListener@window@@SAXQAV1@@X@Z 
01:0002B298 ?removeSizeListener@window@@SAXQAV1@@X@Z 
01:0002B360 ?handleSize@window@@SAXQAVwindowExtension@@@QAV1@@HH@Z 
01:0002B3E0 ?addMoveListener@window@@SAXQAV1@@X@Z 
01:0002B400 ?removeMoveListener@window@@SAXQAV1@@X@Z 
01:0002B4C8 ?handleMove@window@@SAXQAVwindowExtension@@@QAV1@@HH@Z 
01:0002B548 ?addTimerListener@window@@SAXQAV1@@X@Z 
01:0002B56C ?removeTimerListener@window@@SAXQAV1@@X@Z 
01:0002B638 ?handleTimer@window@@SAXQAVwindowExtension@@@QAV1@@PBUtimerId@vpiDomains@@@Z 
01:0002B800 ?delayCall@window@@SAXQAV1@@PBUpositive@@X@Z 
01:0002B934 ?addMenuItemListener@window@@SAXQAV1@@X@Z 
01:0002B958 ?removeMenuItemListener@window@@SAXQAV1@@X@Z 
01:0002BBB4 ?addMenuItemListener@window@@SAXQAV1@@PBUmenuTag@vpiDomains@@X@Z 
01:0002BBF4 ?handleMenuCommand@window@@SAXQAVwindowExtension@@@QAV1@@PBUmenuTag@vpiDomains@@@Z 
01:0002BC50 ?_retrieveMenuListener@window@@SAXQAV1@@PBUmenuTag@vpiDomains@@PAX@Z 
01:0002BCF8 ?_getContextMenuResponder@window@@SAXQAV1@@PAX@Z 
01:0002BD10 ?setContextMenuResponder@window@@SAXQAV1@@X@Z 
01:0002BDA8 ?resetContextMenuResponder@window@@SAXQAV1@@@Z 
01:0002BDC0 ?_defaultContextMenuResponder@window@@SAXQAV1@@PAUcontextMenuInput_struct@1@PAPAUcontextMenuResponse_struct@1@@Z 
01:0002BDD4 ?_contextMenuHandler@window@@SAXQAV1@@PBUwindowHandle@@PAUevent_struct@vpiDomains@@PAH@Z 
01:0002BE5C ?_parse_wm_contextmenu_lparam@window@@SAXPBUwindowHandle@vpiDomains@@HPAPAUcontextMenuInput_struct@1@@Z 
01:0002BEB4 ?addNativeMessageHandler@window@@SAXQAV1@@X@Z 
01:0002BEE4 ?removeNativeMessageHandler@window@@SAXQAV1@@X@Z 
01:0002BFB0 ?anonymous$12$961_21$enablehook/0@window@@SAXPAUanonymous$12$961_21$enablehook/0c_struct@1@@Z 
01:0002BFE0 ?enableHook@window@@SAXQAV1@@@Z 
01:0002C018 ?_handleNative@window@@SAXQAVwindowExtension@@@QAV1@@IIHPAPAUnativeResponse_struct@1@@Z 
01:0002C1FC ?clearMinimizeSize@window@@SAXQAV1@@@Z 
01:0002C210 ?setMinimizeSize@window@@SAXQAV1@@HH@Z 
01:0002C240 ?tryHandleMinimumSize@window@@SAXQAV1@@H@Z 
01:0002C29C ?fixMinimumSize@window@@SAXPAXH@Z 
01:0002C2CC ?addUserListener@window@@SAXQAV1@@X@Z 
01:0002C2F0 ?removeUserListener@window@@SAXQAV1@@X@Z 
01:0002C3BC ?handleUser@window@@SAXQAVwindowExtension@@@QAV1@@HH@Z 
01:0002C510 ?postAction@window@@SAXQAV1@@X@Z 
01:0002C550 ?anonymous$13$1055_29$getpostactionqueue/0@window@@SAXPAUanonymous$13$1055_29$getpostactionqueue/0c_struct@1@@Z 
01:0002C5B0 ?_getPostActionQueue@window@@SAXQAV1@@PAPAVmonitorQueue@@@PAX@Z 
01:0002C70C ?addStateListener@window@@SAXQAV1@@X@Z 
01:0002C730 ?removeStateListener@window@@SAXQAV1@@X@Z 
01:0002C7FC ?handleStateChange@window@@SAXQAVwindowExtension@@@QAV1@@PAUstateInfo_struct@vpiDomains@@@Z 
01:0002C880 ?_getEventHandler@window@@SAXQAV1@@PAX@Z 
01:0002C8CC ?_dispatchAutoHandler@window@@SAXQAV1@@PBUwindowHandle@@PAUevent_struct@vpiDomains@@PAH@Z 
01:0002CECC ?_dummyEventHandler@window@@SAXPBUwindowHandle@@PAUevent_struct@vpiDomains@@PAH@Z 
01:0002CED8 ?_eventFormat@window@@SAXPAUevent_struct@vpiDomains@@PAPB_W@Z  (Idle)
01:0002CFB0 ?_tryConvertVPIWin2Window@window@@SAXPBUwindowHandle@vpiDomains@@PAPAV1@@@Z 
01:0002CFD4 ?_tryConvertVPIWin2Dialog@window@@SAXPBUwindowHandle@vpiDomains@@PAPAVdialog@@@@Z  (Idle)
01:0002CFF8 ?wrapVPIWin@window@@SAXQAV1@@PBUwindowHandle@vpiDomains@@@Z 
01:0002D050 ?unwrapVPIWin@window@@SAXQAV1@@@Z 
01:0002D0DC ?_unwrap_eventHandler@window@@SAXQAV1@@PAX@Z 
01:0002D128 ?wrapExtendedInfo@window@@SAXQAV1@@PBUwindowHandle@@@Z 
01:0002D1C8 ?checkNotWrapped@window@@SAXPBUwindowHandle@@@Z 
01:0002D228 ?_convertVPIWin2Window@window@@SAXPBUwindowHandle@vpiDomains@@PAPAV1@@@Z 
01:0002D35C ?checkSaveScreenWin@window@@SAXPBUwindowHandle@@QAV1@@@Z 
01:0002D3B4 ?saveOldHandler@window@@SAXQAV1@@PBUwindowHandle@vpiDomains@@@Z 
01:0002D4B8 ?_dispatchWrapHandler@window@@SAXQAV1@@PBUwindowHandle@@PAUevent_struct@vpiDomains@@PAH@Z 
01:0002D528 ?_getProcessWindow@window@@SAXPAXPAPAV1@@@Z  (Idle)
01:0002D544 ?_getScreenWindow@window@@SAXPAPAV1@@@Z 
01:0002D598 ?_tryGetFocusWindow@window@@SAXPAPAV1@@@Z 
01:0002D5BC ?_getActiveWindow@window@@SAXPAPAV1@@@Z  (Idle)
--- From 'Obj\errorPresentationDialog.9174D14B.obj'
01:0002D5E0 ?_getDefaultDialogParent@window@@SAXPAPAV1@@@Z 
--- From 'Obj\gui.B1A70004.obj'
01:0002D628 ?_new@window@@SAXPAPAV1@@@Z  (Idle)
01:0002D650 ?_new@window@@SAXQAV1@@PAPAV1@@@Z  (Idle)
01:0002D678 ?_wrapVPIWin@window@@SAXPBUwindowHandle@vpiDomains@@PAPAV1@@@Z 
01:0002D6A0 ?_class_facts_initializer@window@@SGXXZ 
01:0002D6D0 ?_object_facts_initializer@window@@SGXQAV1@@@Z 
01:0002D6F4 ?actionUserEventId@window@@SGXH@Z  (Idle)
01:0002D700 ?actionUserEventId@window@@SGHXZ  (Idle)
01:0002D708 ?classInfo@popupWindow@@SAXPAPB_W0@Z 
01:0002D724 ?new@popupWindow@@SAXQAV1@@@Z 
01:0002D8C4 ?show@popupWindow@@SAXQAVwindow@@@@Z 
01:0002D9EC ?onFrameShow@popupWindow@@SAXQAV1@@QAVwindow@@@H@Z 
01:0002DBD0 ?onInnerDialogShow@popupWindow@@SAXQAV1@@QAVwindow@@@H@Z 
01:0002DC20 ?onChildDialogMenu@popupWindow@@SAXQAV1@@QAVwindow@@@PBUmenuTag@@@Z 
01:0002DCC0 ?_onFrameNative@popupWindow@@SAXQAV1@@QAVwindow@@@IIHPAPAUnativeResponse_struct@3@@Z 
01:0002DEC4 ?_onFrameEraseBackground@popupWindow@@SAXQAVdrawWindow@@@QAVwindowGDI@@@PAPAUeraseBackgroundResponse_struct@2@@Z 
01:0002DED8 ?onFrameSize@popupWindow@@SAXQAV1@@QAVwindow@@@@Z 
01:0002DF44 ?onFrameMove@popupWindow@@SAXQAV1@@QAVwindow@@@@Z 
01:0002DF50 ?updateUnitRect@popupWindow@@SAXQAV1@@@Z 
01:0002DFA0 ?tryRestoreRect@popupWindow@@SAXQAV1@@@Z 
01:0002DFEC ?onFrameFocus@popupWindow@@SAXQAV1@@QAVwindow@@@@Z 
01:0002E070 ?initFocus@popupWindow@@SAXQAV1@@@Z 
01:0002E16C ?setInitFocus@popupWindow@@SAXQAVdialog@@@QAVcontrol@@@@Z 
01:0002E1C4 ?_tryGetInitFocus@popupWindow@@SAXQAVdialog@@@PAPAVcontrol@@@@Z 
01:0002E1FC ?_tryGetInitFocus_inner@popupWindow@@SAXQAV1@@PAPAVcontrol@@@@Z 
01:0002E2C4 ?restroreDefaultButtonAndFocus@popupWindow@@SAXQAV1@@@Z 
01:0002E3B4 ?tryClearPreviousDefaultButton@popupWindow@@SAXQAV1@@@Z 
01:0002E458 ?onFrameState@popupWindow@@SAXQAV1@@QAVwindow@@@PAUstateInfo_struct@vpiDomains@@@Z 
01:0002E49C ?setModal@popupWindow@@SAXQAVdialog@@@PAUboolean_struct@_builtIn@@@Z 
01:0002E4A4 ?setRect@popupWindow@@SAXQAVdialog@@@PAUrct_struct@vpiDomains@@@Z 
01:0002E520 ?moveFormWindow@popupWindow@@SAXQAV1@@@Z 
01:0002E59C ?_getRect@popupWindow@@SAXQAVdialog@@@PAPAUrct_struct@vpiDomains@@@Z 
01:0002E5B0 ?suspendLayout@popupWindow@@SAXQAVdialog@@@@Z 
01:0002E5D8 ?resumeLayout@popupWindow@@SAXQAVdialog@@@@Z 
01:0002E654 ?_onInternalDialogClose@popupWindow@@SAXQAV1@@QAVwindow@@@PAPAUcloseResponse_struct@frameDecoration@@@Z 
01:0002E67C ?defaultMeasureSizeResponder@popupWindow@@SAXQAV1@@0PAHPAH@Z 
01:0002E694 ?_getRctArea@popupWindow@@SAXPAUrct_struct@vpiDomains@@PAH@Z 
01:0002E6D0 ?getOrientationVector@popupWindow@@SAXPAUorientation_struct@1@PAHPAH@Z 
01:0002E728 ?_layoutOrigo@popupWindow@@SAXPAUorigo_struct@1@HHPAPAUrct_struct@vpiDomains@@@Z 
01:0002E810 ?_anonymous$14$417_13$layout/0@popupWindow@@SAXPAUtuple_struct@core@@HPBUpositive@@PAUrct_struct@vpiDomains@@0PAPAUcompareResult_struct@_builtIn@@@Z 
01:0002E89C ?layout@popupWindow@@SAXQAV1@@@Z 
01:0002EA30 ?_new@popupWindow@@SAXPAPAV1@@@Z  (Idle)
01:0002EA58 ?_object_facts_initializer@popupWindow@@SGXQAV1@@@Z 
01:0002EA90 ?frameWindow@popupWindow@@SGQAVdrawWindow@@@QAV1@@@Z 
01:0002EA9C ?origoList@popupWindow@@SGXQAV1@@PAU?$__list_struct@Uorigo@@@@@Z 
01:0002EAAC ?origoList@popupWindow@@SGPAU?$__list_struct@Uorigo@@@@QAV1@@@Z 
01:0002EAB8 ?measureSizeResponder@popupWindow@@SGXQAV1@@X@Z 
01:0002EAC8 ?measureSizeResponder@popupWindow@@SGXQAV1@@@Z 
01:0002EAD4 ?destroy@popupWindow@@SAXQAVwindow@@@@Z 
01:0002EAF0 ?close@popupWindow@@SAXQAVwindow@@@@Z 
01:0002EB0C ?_getParent@popupWindow@@SAXQAVwindow@@@PAPAV2@@@Z 
01:0002EB28 ?setParent@popupWindow@@SAXQAVwindow@@@0@Z 
01:0002EB44 ?_getText@popupWindow@@SAXQAVwindow@@@PAPB_W@Z 
01:0002EB60 ?setText@popupWindow@@SAXQAVwindow@@@PB_W@Z 
01:0002EB7C ?_getOuterRect@popupWindow@@SAXQAVwindow@@@PAPAUrct_struct@vpiDomains@@@Z 
01:0002EB98 ?setOuterRect@popupWindow@@SAXQAVwindow@@@PAUrct_struct@vpiDomains@@@Z 
01:0002EBB4 ?setClientRect@popupWindow@@SAXQAVwindow@@@PAUrct_struct@vpiDomains@@@Z 
01:0002EBD0 ?_getClientRect@popupWindow@@SAXQAVwindow@@@PAPAUrct_struct@vpiDomains@@@Z 
01:0002EBEC ?center@popupWindow@@SAXQAVwindow@@@@Z 
01:0002EC08 ?center@popupWindow@@SAXQAVwindow@@@PAUrct_struct@vpiDomains@@@Z 
01:0002EC24 ?centerTo@popupWindow@@SAXQAVwindow@@@0@Z 
01:0002EC40 ?addMoveListener@popupWindow@@SAXQAVwindow@@@X@Z 
01:0002EC5C ?removeMoveListener@popupWindow@@SAXQAVwindow@@@X@Z 
01:0002EC78 ?setFocus@popupWindow@@SAXQAVwindow@@@@Z 
01:0002EC94 ?setActive@popupWindow@@SAXQAVwindow@@@@Z 
01:0002ECB0 ?setIcon@popupWindow@@SAXQAVwindow@@@PBUresid@vpiDomains@@@Z 
01:0002ECD0 ?menuPopUp@popupWindow@@SAXQAVwindow@@@PAUmenu_struct@vpiDomains@@PAUpnt_struct@4@PBUmenuAlign@4@@Z 
01:0002ECF0 ?addMenuItemListener@popupWindow@@SAXQAVwindow@@@X@Z 
01:0002ED10 ?addMenuItemListener@popupWindow@@SAXQAVwindow@@@PBUmenuTag@vpiDomains@@X@Z 
01:0002ED30 ?removeMenuItemListener@popupWindow@@SAXQAVwindow@@@X@Z 
01:0002ED50 ?_getState@popupWindow@@SAXQAVwindow@@@PAPAU?$__list_struct@Uwsflag@@@@@Z 
01:0002ED70 ?setState@popupWindow@@SAXQAVwindow@@@PAU?$__list_struct@Uwsflag@@@@@Z 
01:0002ED90 ?setEnabled@popupWindow@@SAXQAVwindow@@@@Z 
01:0002EDAC ?setEnabled@popupWindow@@SAXQAVwindow@@@PAUboolean_struct@_builtIn@@@Z 
01:0002EDCC ?_getEnabled@popupWindow@@SAXQAVwindow@@@PAPAUboolean_struct@_builtIn@@@Z 
01:0002EDEC ?setVisible@popupWindow@@SAXQAVwindow@@@@Z 
01:0002EE08 ?setVisible@popupWindow@@SAXQAVwindow@@@PAUboolean_struct@_builtIn@@@Z 
01:0002EE28 ?_getVisible@popupWindow@@SAXQAVwindow@@@PAPAUboolean_struct@_builtIn@@@Z 
01:0002EE48 ?clearState@popupWindow@@SAXQAVwindow@@@PAU?$__list_struct@Uwsflag@@@@@Z 
01:0002EE68 ?getScrollRange@popupWindow@@SAXQAVdrawWindow@@@PBUscrollType@vpiDomains@@PAHPAH@Z 
01:0002EE88 ?setScrollRange@popupWindow@@SAXQAVdrawWindow@@@PBUscrollType@vpiDomains@@HH@Z 
01:0002EEA8 ?_getScrollPos@popupWindow@@SAXQAVdrawWindow@@@PBUscrollType@vpiDomains@@PAH@Z 
01:0002EEC8 ?setScrollPos@popupWindow@@SAXQAVdrawWindow@@@PBUscrollType@vpiDomains@@H@Z 
01:0002EEE8 ?_getScrollProportion@popupWindow@@SAXQAVdrawWindow@@@PBUscrollType@vpiDomains@@PAI@Z 
01:0002EF08 ?setScrollProportion@popupWindow@@SAXQAVdrawWindow@@@PBUscrollType@vpiDomains@@I@Z 
01:0002EF28 ?_getScrollBarInfo@popupWindow@@SAXQAVdrawWindow@@@PBUscrollType@vpiDomains@@PAPAUscrollBarInfo_struct@2@@Z 
01:0002EF48 ?_getScrollInfo@popupWindow@@SAXQAVdrawWindow@@@PBUscrollType@vpiDomains@@PAPAUscrollInfo_struct@2@@Z 
01:0002EF68 ?addVScrollListener@popupWindow@@SAXQAVdrawWindow@@@X@Z 
01:0002EF88 ?removeVScrollListener@popupWindow@@SAXQAVdrawWindow@@@X@Z 
01:0002EFA8 ?addHScrollListener@popupWindow@@SAXQAVdrawWindow@@@X@Z 
01:0002EFC8 ?removeHScrollListener@popupWindow@@SAXQAVdrawWindow@@@X@Z 
01:0002EFE8 ?handlePaint@popupWindow@@SAXQAVdrawWindowExtension@@@QAVdrawWindow@@@PAUrct_struct@vpiDomains@@QAVwindowGDI@@@@Z 
01:0002F004 ?_handleEraseBackground@popupWindow@@SAXQAVdrawWindowExtension@@@QAVdrawWindow@@@PAPAUeraseBackgroundResponse_struct@3@@Z 
01:0002F020 ?handleMouseDown@popupWindow@@SAXQAVdrawWindowExtension@@@QAVdrawWindow@@@PAUpnt_struct@vpiDomains@@PBUkeyModifier@5@H@Z 
01:0002F03C ?handleMouseUp@popupWindow@@SAXQAVdrawWindowExtension@@@QAVdrawWindow@@@PAUpnt_struct@vpiDomains@@PBUkeyModifier@5@H@Z 
01:0002F058 ?handleMouseMove@popupWindow@@SAXQAVdrawWindowExtension@@@QAVdrawWindow@@@PAUpnt_struct@vpiDomains@@PBUkeyModifier@5@PAU?$__list_struct@Uinteger@@@@@Z 
01:0002F074 ?handleMouseDbl@popupWindow@@SAXQAVdrawWindowExtension@@@QAVdrawWindow@@@PAUpnt_struct@vpiDomains@@PBUkeyModifier@5@H@Z 
01:0002F090 ?_handleChar@popupWindow@@SAXQAVdrawWindowExtension@@@QAVdrawWindow@@@HPBUkeyModifier@vpiDomains@@PAPAUcharResponse_struct@3@@Z 
01:0002F0AC ?_handleKeyDown@popupWindow@@SAXQAVdrawWindowExtension@@@QAVdrawWindow@@@HPBUkeyModifier@vpiDomains@@PAPAUkeyDownResponse_struct@3@@Z 
01:0002F0C8 ?_handleKeyUp@popupWindow@@SAXQAVdrawWindowExtension@@@QAVdrawWindow@@@HPBUkeyModifier@vpiDomains@@PAPAUkeyUpResponse_struct@3@@Z 
01:0002F0E4 ?handleVScroll@popupWindow@@SAXQAVdrawWindowExtension@@@QAVdrawWindow@@@PBUscrollCode@vpiDomains@@H@Z 
01:0002F100 ?handleHScroll@popupWindow@@SAXQAVdrawWindowExtension@@@QAVdrawWindow@@@PBUscrollCode@vpiDomains@@H@Z 
01:0002F11C ?handleShow@popupWindow@@SAXQAVwindowExtension@@@QAVwindow@@@H@Z 
01:0002F138 ?handleDestroy@popupWindow@@SAXQAVwindowExtension@@@QAVwindow@@@@Z 
01:0002F154 ?handleSize@popupWindow@@SAXQAVwindowExtension@@@QAVwindow@@@HH@Z 
01:0002F170 ?handleMove@popupWindow@@SAXQAVwindowExtension@@@QAVwindow@@@HH@Z 
01:0002F18C ?handleFocus@popupWindow@@SAXQAVwindowExtension@@@QAVwindow@@@@Z 
01:0002F1A8 ?handleLoseFocus@popupWindow@@SAXQAVwindowExtension@@@QAVwindow@@@@Z 
01:0002F1C4 ?handleMenuCommand@popupWindow@@SAXQAVwindowExtension@@@QAVwindow@@@PBUmenuTag@vpiDomains@@@Z 
01:0002F1E0 ?handleTimer@popupWindow@@SAXQAVwindowExtension@@@QAVwindow@@@PBUtimerId@vpiDomains@@@Z 
01:0002F1FC ?_handleNative@popupWindow@@SAXQAVwindowExtension@@@QAVwindow@@@IIHPAPAUnativeResponse_struct@3@@Z 
01:0002F218 ?handleUser@popupWindow@@SAXQAVwindowExtension@@@QAVwindow@@@HH@Z 
01:0002F234 ?handleStateChange@popupWindow@@SAXQAVwindowExtension@@@QAVwindow@@@PAUstateInfo_struct@vpiDomains@@@Z 
01:0002F250 ?classInfo@pictureCanvas@@SAXPAPB_W0@Z  (Idle)
01:0002F26C ?new@pictureCanvas@@SAXQAV1@@@Z 
01:0002F28C ?new@pictureCanvas@@SAXQAV1@@PBUpositive@@1@Z 
01:0002F310 ?_getPicture@pictureCanvas@@SAXQAV1@@AAUpicture@vpiDomains@@@Z 
01:0002F368 ?setSize@pictureCanvas@@SAXQAV1@@PBUpositive@@1@Z 
01:0002F458 ?getSize@pictureCanvas@@SAXQAV1@@AAUpositive@@1@Z 
01:0002F474 ?_getWidth@pictureCanvas@@SAXQAV1@@AAUpositive@@@Z 
01:0002F488 ?setWidth@pictureCanvas@@SAXQAV1@@PBUpositive@@@Z 
01:0002F4A0 ?_getHeight@pictureCanvas@@SAXQAV1@@AAUpositive@@@Z 
01:0002F4B4 ?setHeight@pictureCanvas@@SAXQAV1@@PBUpositive@@@Z 
01:0002F4D8 ?setMapScale@pictureCanvas@@SAXQAV1@@PAUpnt_struct@vpiDomains@@111@Z 
01:0002F50C ?getMapScale@pictureCanvas@@SAXQAV1@@PAPAUpnt_struct@vpiDomains@@111@Z 
01:0002F540 ?setMapMode@pictureCanvas@@SAXQAV1@@PBUmapmode@@@Z 
01:0002F574 ?_getMapMode@pictureCanvas@@SAXQAV1@@AAUmapmode@@@Z 
01:0002F5A8 ?setClip@pictureCanvas@@SAXQAV1@@PAUrct_struct@vpiDomains@@@Z 
01:0002F5DC ?_getClip@pictureCanvas@@SAXQAV1@@PAPAUrct_struct@vpiDomains@@@Z 
01:0002F610 ?setFont@pictureCanvas@@SAXQAVwindowGDI@@@PBUfont@@@Z 
01:0002F644 ?_getFont@pictureCanvas@@SAXQAVwindowGDI@@@AAUfont@@@Z 
01:0002F678 ?_new@pictureCanvas@@SAXPAPAV1@@@Z  (Idle)
01:0002F6A0 ?_new@pictureCanvas@@SAXPBUpositive@@0PAPAV1@@@Z  (Idle)
01:0002F6CC ?_object_facts_initializer@pictureCanvas@@SGXQAV1@@@Z 
01:0002F6E4 ?setBackColor@pictureCanvas@@SAXQAVwindowGDI@@@PBUcolor@@@Z 
01:0002F700 ?_getBackColor@pictureCanvas@@SAXQAVwindowGDI@@@AAUcolor@@@Z 
01:0002F71C ?setForeColor@pictureCanvas@@SAXQAVwindowGDI@@@PBUcolor@@@Z 
01:0002F738 ?_getForeColor@pictureCanvas@@SAXQAVwindowGDI@@@AAUcolor@@@Z 
01:0002F754 ?setBackMode@pictureCanvas@@SAXQAVwindowGDI@@@PBUbk_mode@@@Z 
01:0002F770 ?_getBackMode@pictureCanvas@@SAXQAVwindowGDI@@@AAUbk_mode@@@Z 
01:0002F78C ?_getPen@pictureCanvas@@SAXQAVwindowGDI@@@PAPAUpen_struct@vpiDomains@@@Z 
01:0002F7A8 ?setPen@pictureCanvas@@SAXQAVwindowGDI@@@PAUpen_struct@vpiDomains@@@Z 
01:0002F7C4 ?_getBrush@pictureCanvas@@SAXQAVwindowGDI@@@PAPAUbrush_struct@vpiDomains@@@Z 
01:0002F7E0 ?setBrush@pictureCanvas@@SAXQAVwindowGDI@@@PAUbrush_struct@vpiDomains@@@Z 
01:0002F7FC ?_getDrawTools@pictureCanvas@@SAXQAVwindowGDI@@@PAPAUdrawtools_struct@vpiDomains@@@Z 
01:0002F818 ?setDrawTools@pictureCanvas@@SAXQAVwindowGDI@@@PAUdrawtools_struct@vpiDomains@@@Z 
01:0002F834 ?clear@pictureCanvas@@SAXQAVwindowGDI@@@PBUcolor@@@Z 
01:0002F850 ?clear@pictureCanvas@@SAXQAVwindowGDI@@@PAUrct_struct@vpiDomains@@PBUcolor@@@Z 
01:0002F86C ?_getDrawMode@pictureCanvas@@SAXQAVwindowGDI@@@AAUdrawMode@@@Z 
01:0002F888 ?setDrawMode@pictureCanvas@@SAXQAVwindowGDI@@@PBUdrawMode@@@Z 
01:0002F8A4 ?_getNativeGraphicContext@pictureCanvas@@SAXQAVwindowGDI@@@PAPAUboolean_struct@_builtIn@@AAUhandle@@@Z 
01:0002F8C0 ?releaseNativeGraphicContext@pictureCanvas@@SAXQAVwindowGDI@@@PBUhandle@@PAUboolean_struct@_builtIn@@@Z 
01:0002F8DC ?_getPixelColor@pictureCanvas@@SAXQAVwindowGDI@@@PAUpnt_struct@vpiDomains@@AAUcolor@@@Z 
01:0002F8F8 ?getTextExtent@pictureCanvas@@SAXQAVwindowGDI@@@PB_WAAUpositive@@2@Z 
01:0002F914 ?getTextExtent@pictureCanvas@@SAXQAVwindowGDI@@@PB_WPBUcharCountOptional@@AAUpositive@@3@Z 
01:0002F930 ?drawTextInRect@pictureCanvas@@SAXQAVwindowGDI@@@PAUrct_struct@vpiDomains@@PB_WPAU?$__list_struct@Uinteger@@@@@Z 
01:0002F94C ?drawTextInRect@pictureCanvas@@SAXQAVwindowGDI@@@PAUrct_struct@vpiDomains@@PB_WPBUcharCountOptional@@PAU?$__list_struct@Uinteger@@@@@Z 
01:0002F968 ?drawText@pictureCanvas@@SAXQAVwindowGDI@@@PAUpnt_struct@vpiDomains@@PB_WPBUcharCountOptional@@@Z 
01:0002F984 ?drawText@pictureCanvas@@SAXQAVwindowGDI@@@PAUpnt_struct@vpiDomains@@PB_W@Z 
01:0002F9A0 ?drawRoundRect@pictureCanvas@@SAXQAVwindowGDI@@@PAUrct_struct@vpiDomains@@HH@Z 
01:0002F9BC ?drawRect@pictureCanvas@@SAXQAVwindowGDI@@@PAUrct_struct@vpiDomains@@@Z 
01:0002F9D8 ?drawFocusRect@pictureCanvas@@SAXQAVwindowGDI@@@PAUrct_struct@vpiDomains@@@Z 
01:0002F9F4 ?drawPolyline@pictureCanvas@@SAXQAVwindowGDI@@@PAU?$__list_struct@Upnt@@@@@Z 
01:0002FA10 ?drawPolygon@pictureCanvas@@SAXQAVwindowGDI@@@PAU?$__list_struct@Upnt@@@@@Z 
01:0002FA2C ?drawPixel@pictureCanvas@@SAXQAVwindowGDI@@@PAUpnt_struct@vpiDomains@@PBUcolor@@@Z 
01:0002FA48 ?drawPie@pictureCanvas@@SAXQAVwindowGDI@@@PAUrct_struct@vpiDomains@@PAUpnt_struct@4@2@Z 
01:0002FA64 ?drawLine@pictureCanvas@@SAXQAVwindowGDI@@@PAUpnt_struct@vpiDomains@@1@Z 
01:0002FA84 ?drawIcon@pictureCanvas@@SAXQAVwindowGDI@@@PAUpnt_struct@vpiDomains@@PBUresid@@@Z 
01:0002FAA4 ?drawFloodFill@pictureCanvas@@SAXQAVwindowGDI@@@PAUpnt_struct@vpiDomains@@PBUcolor@@@Z 
01:0002FAC4 ?drawEllipse@pictureCanvas@@SAXQAVwindowGDI@@@PAUrct_struct@vpiDomains@@@Z 
01:0002FAE4 ?drawArc@pictureCanvas@@SAXQAVwindowGDI@@@PAUrct_struct@vpiDomains@@PAUpnt_struct@4@2@Z 
01:0002FB04 ?pictDraw@pictureCanvas@@SAXQAVwindowGDI@@@PBUpicture@@PAUpnt_struct@vpiDomains@@PBUrop@@@Z 
01:0002FB24 ?pictDraw@pictureCanvas@@SAXQAVwindowGDI@@@PBUpicture@@PAUrct_struct@vpiDomains@@2PBUrop@@@Z 
01:0002FB44 ?getFontMetrics@pictureCanvas@@SAXQAVwindowGDI@@@AAUpositive@@11@Z 
01:0002FB78 ?_convertLPtoDP@pictureCanvas@@SAXQAVdrawWindow@@@PAU?$__list_struct@Upnt@@@@PAPAU?$__list_struct@U3@@@@Z 
01:0002FBAC ?_convertDPtoLP@pictureCanvas@@SAXQAVdrawWindow@@@PAU?$__list_struct@Upnt@@@@PAPAU?$__list_struct@U3@@@@Z 
01:0002FBE0 ?getScrollRange@pictureCanvas@@SAXQAVdrawWindow@@@PBUscrollType@vpiDomains@@PAHPAH@Z 
01:0002FC14 ?setScrollRange@pictureCanvas@@SAXQAVdrawWindow@@@PBUscrollType@vpiDomains@@HH@Z 
01:0002FC48 ?_getScrollPos@pictureCanvas@@SAXQAVdrawWindow@@@PBUscrollType@vpiDomains@@PAH@Z 
01:0002FC7C ?setScrollPos@pictureCanvas@@SAXQAVdrawWindow@@@PBUscrollType@vpiDomains@@H@Z 
01:0002FCB0 ?_getScrollProportion@pictureCanvas@@SAXQAVdrawWindow@@@PBUscrollType@vpiDomains@@PAI@Z 
01:0002FCE4 ?setScrollProportion@pictureCanvas@@SAXQAVdrawWindow@@@PBUscrollType@vpiDomains@@I@Z 
01:0002FD18 ?scroll@pictureCanvas@@SAXQAVdrawWindow@@@PAUrct_struct@vpiDomains@@HH@Z 
01:0002FD4C ?scroll@pictureCanvas@@SAXQAVdrawWindow@@@PAUrct_struct@vpiDomains@@HHI@Z 
01:0002FD80 ?_getScrollBarInfo@pictureCanvas@@SAXQAVdrawWindow@@@PBUscrollType@vpiDomains@@PAPAUscrollBarInfo_struct@2@@Z 
01:0002FDB4 ?_getScrollInfo@pictureCanvas@@SAXQAVdrawWindow@@@PBUscrollType@vpiDomains@@PAPAUscrollInfo_struct@2@@Z 
01:0002FDE8 ?addVScrollListener@pictureCanvas@@SAXQAVdrawWindow@@@X@Z 
01:0002FE1C ?removeVScrollListener@pictureCanvas@@SAXQAVdrawWindow@@@X@Z 
01:0002FE50 ?addHScrollListener@pictureCanvas@@SAXQAVdrawWindow@@@X@Z 
01:0002FE84 ?removeHScrollListener@pictureCanvas@@SAXQAVdrawWindow@@@X@Z 
01:0002FEB8 ?setPaintResponder@pictureCanvas@@SAXQAVdrawWindow@@@X@Z 
01:0002FEEC ?_getPaintResponder@pictureCanvas@@SAXQAVdrawWindow@@@PAX@Z 
01:0002FF20 ?resetPaintResponder@pictureCanvas@@SAXQAVdrawWindow@@@@Z 
01:0002FF50 ?update@pictureCanvas@@SAXQAVdrawWindow@@@@Z 
01:0002FF80 ?validateRect@pictureCanvas@@SAXQAVdrawWindow@@@PAUrct_struct@vpiDomains@@@Z 
01:0002FFB4 ?needsUpdate@pictureCanvas@@SAXQAVdrawWindow@@@PAUrct_struct@vpiDomains@@@Z 
01:0002FFE8 ?invalidate@pictureCanvas@@SAXQAVdrawWindow@@@@Z 
01:00030018 ?invalidate@pictureCanvas@@SAXQAVdrawWindow@@@PAUrct_struct@vpiDomains@@@Z 
01:0003004C ?_getInvalidRect@pictureCanvas@@SAXQAVdrawWindow@@@PAPAUrct_struct@vpiDomains@@@Z 
01:00030080 ?setEraseBackgroundResponder@pictureCanvas@@SAXQAVdrawWindow@@@X@Z 
01:000300B4 ?_getEraseBackgroundResponder@pictureCanvas@@SAXQAVdrawWindow@@@PAX@Z 
01:000300E8 ?resetEraseBackgroundResponder@pictureCanvas@@SAXQAVdrawWindow@@@@Z 
01:00030118 ?_getWindowGDI@pictureCanvas@@SAXQAVdrawWindow@@@PAPAVwindowGDI@@@@Z 
01:0003014C ?captureMouse@pictureCanvas@@SAXQAVdrawWindow@@@@Z 
01:0003017C ?releaseMouse@pictureCanvas@@SAXQAVdrawWindow@@@@Z 
01:000301AC ?addMouseDownListener@pictureCanvas@@SAXQAVdrawWindow@@@X@Z 
01:000301E0 ?removeMouseDownListener@pictureCanvas@@SAXQAVdrawWindow@@@X@Z 
01:00030214 ?addMouseUpListener@pictureCanvas@@SAXQAVdrawWindow@@@X@Z 
01:00030248 ?removeMouseUpListener@pictureCanvas@@SAXQAVdrawWindow@@@X@Z 
01:0003027C ?addMouseDblListener@pictureCanvas@@SAXQAVdrawWindow@@@X@Z 
01:000302B0 ?removeMouseDblListener@pictureCanvas@@SAXQAVdrawWindow@@@X@Z 
01:000302E4 ?addMouseMoveListener@pictureCanvas@@SAXQAVdrawWindow@@@X@Z 
01:00030318 ?removeMouseMoveListener@pictureCanvas@@SAXQAVdrawWindow@@@X@Z 
01:0003034C ?setCharResponder@pictureCanvas@@SAXQAVdrawWindow@@@X@Z 
01:00030380 ?_getCharResponder@pictureCanvas@@SAXQAVdrawWindow@@@PAX@Z 
01:000303B4 ?resetCharResponder@pictureCanvas@@SAXQAVdrawWindow@@@@Z 
01:000303E4 ?setKeyDownResponder@pictureCanvas@@SAXQAVdrawWindow@@@X@Z 
01:00030418 ?_getKeyDownResponder@pictureCanvas@@SAXQAVdrawWindow@@@PAX@Z 
01:0003044C ?resetKeyDownResponder@pictureCanvas@@SAXQAVdrawWindow@@@@Z 
01:0003047C ?setKeyUpResponder@pictureCanvas@@SAXQAVdrawWindow@@@X@Z 
01:000304B0 ?_getKeyUpResponder@pictureCanvas@@SAXQAVdrawWindow@@@PAX@Z 
01:000304E4 ?resetKeyUpResponder@pictureCanvas@@SAXQAVdrawWindow@@@@Z 
01:00030514 ?setCaretSize@pictureCanvas@@SAXQAVdrawWindow@@@PBUpositive@@1@Z 
01:00030548 ?setCaret@pictureCanvas@@SAXQAVdrawWindow@@@PAUpnt_struct@vpiDomains@@PBUpositive@@2@Z 
01:0003057C ?setCaret@pictureCanvas@@SAXQAVdrawWindow@@@PAUpnt_struct@vpiDomains@@@Z 
01:000305B0 ?hideCaret@pictureCanvas@@SAXQAVdrawWindow@@@@Z 
01:000305E0 ?_getDefaultDrawWindowExtension@pictureCanvas@@SAXQAVdrawWindow@@@PAPAVdrawWindowExtension@@@@Z 
01:00030614 ?_getDrawWindowExtension@pictureCanvas@@SAXQAVdrawWindow@@@PAPAVdrawWindowExtension@@@@Z 
01:00030648 ?setDrawWindowExtension@pictureCanvas@@SAXQAVdrawWindow@@@QAVdrawWindowExtension@@@@Z 
01:0003067C ?show@pictureCanvas@@SAXQAVwindow@@@@Z 
01:000306A8 ?addShowListener@pictureCanvas@@SAXQAVwindow@@@X@Z 
01:000306D8 ?removeShowListener@pictureCanvas@@SAXQAVwindow@@@X@Z 
01:00030708 ?isShown@pictureCanvas@@SAXQAVwindow@@@@Z 
01:00030738 ?initialize@pictureCanvas@@SAXQAVwindow@@@@Z 
01:00030768 ?isInitializing@pictureCanvas@@SAXQAVwindow@@@@Z 
01:00030798 ?destroy@pictureCanvas@@SAXQAVwindow@@@@Z 
01:000307C8 ?isDestroying@pictureCanvas@@SAXQAVwindow@@@@Z 
01:000307F8 ?addDestroyListener@pictureCanvas@@SAXQAVwindow@@@X@Z 
01:00030828 ?removeDestroyListener@pictureCanvas@@SAXQAVwindow@@@X@Z 
01:00030858 ?close@pictureCanvas@@SAXQAVwindow@@@@Z 
01:00030888 ?_getParent@pictureCanvas@@SAXQAVwindow@@@PAPAV2@@@Z 
01:000308B8 ?setParent@pictureCanvas@@SAXQAVwindow@@@0@Z 
01:000308E8 ?_getDialogParent@pictureCanvas@@SAXQAVwindow@@@PAPAVdialog@@@@Z 
01:00030918 $getDialogs$pictureCanvas$predicate$(i,o)$c$_m15 
01:00030948 $getChildWindows$pictureCanvas$predicate$(i,o)$c$_m16 
01:00030978 ?isChild@pictureCanvas@@SAXQAVwindow@@@0@Z 
01:000309A8 ?_getText@pictureCanvas@@SAXQAVwindow@@@PAPB_W@Z 
01:000309D8 ?setText@pictureCanvas@@SAXQAVwindow@@@PB_W@Z 
01:00030A08 ?_getOuterRect@pictureCanvas@@SAXQAVwindow@@@PAPAUrct_struct@vpiDomains@@@Z 
01:00030A38 ?setOuterRect@pictureCanvas@@SAXQAVwindow@@@PAUrct_struct@vpiDomains@@@Z 
01:00030A68 ?setClientRect@pictureCanvas@@SAXQAVwindow@@@PAUrct_struct@vpiDomains@@@Z 
01:00030A98 ?_getClientRect@pictureCanvas@@SAXQAVwindow@@@PAPAUrct_struct@vpiDomains@@@Z 
01:00030AC8 ?getClientSize@pictureCanvas@@SAXQAVwindow@@@PAHPAH@Z 
01:00030AF8 ?_adjustRectEx@pictureCanvas@@SAXQAVwindow@@@PAUrct_struct@vpiDomains@@PAPAU34@@Z 
01:00030B28 ?center@pictureCanvas@@SAXQAVwindow@@@@Z 
01:00030B58 ?center@pictureCanvas@@SAXQAVwindow@@@PAUrct_struct@vpiDomains@@@Z 
01:00030B88 ?centerTo@pictureCanvas@@SAXQAVwindow@@@0@Z 
01:00030BB8 ?addSizeListener@pictureCanvas@@SAXQAVwindow@@@X@Z 
01:00030BE8 ?removeSizeListener@pictureCanvas@@SAXQAVwindow@@@X@Z 
01:00030C18 ?addMoveListener@pictureCanvas@@SAXQAVwindow@@@X@Z 
01:00030C48 ?removeMoveListener@pictureCanvas@@SAXQAVwindow@@@X@Z 
01:00030C78 ?_mapPointsTo@pictureCanvas@@SAXQAVwindow@@@0PAU?$__list_struct@Upnt@@@@PAPAU?$__list_struct@U4@@@@Z 
01:00030CAC ?_mapPointTo@pictureCanvas@@SAXQAVwindow@@@0PAUpnt_struct@vpiDomains@@PAPAU45@@Z 
01:00030CE0 ?setFocus@pictureCanvas@@SAXQAVwindow@@@@Z 
01:00030D10 ?addGetFocusListener@pictureCanvas@@SAXQAVwindow@@@X@Z 
01:00030D44 ?removeGetFocusListener@pictureCanvas@@SAXQAVwindow@@@X@Z 
01:00030D78 ?addLoseFocusListener@pictureCanvas@@SAXQAVwindow@@@X@Z 
01:00030DAC ?removeLoseFocusListener@pictureCanvas@@SAXQAVwindow@@@X@Z 
01:00030DE0 ?setActive@pictureCanvas@@SAXQAVwindow@@@@Z 
01:00030E10 ?bringToTop@pictureCanvas@@SAXQAVwindow@@@@Z 
01:00030E40 ?setIcon@pictureCanvas@@SAXQAVwindow@@@PBUresid@vpiDomains@@@Z 
01:00030E74 ?menuPopUp@pictureCanvas@@SAXQAVwindow@@@PAUmenu_struct@vpiDomains@@PAUpnt_struct@4@PBUmenuAlign@4@@Z 
01:00030EA8 ?addMenuItemListener@pictureCanvas@@SAXQAVwindow@@@X@Z 
01:00030EDC ?addMenuItemListener@pictureCanvas@@SAXQAVwindow@@@PBUmenuTag@vpiDomains@@X@Z 
01:00030F10 ?removeMenuItemListener@pictureCanvas@@SAXQAVwindow@@@X@Z 
01:00030F44 ?setContextMenuResponder@pictureCanvas@@SAXQAVwindow@@@X@Z 
01:00030F78 ?_getContextMenuResponder@pictureCanvas@@SAXQAVwindow@@@PAX@Z 
01:00030FAC ?resetContextMenuResponder@pictureCanvas@@SAXQAVwindow@@@@Z 
01:00030FDC ?cursorSet@pictureCanvas@@SAXQAVwindow@@@PBUcursor@vpiDomains@@@Z 
01:00031010 ?cursorSet@pictureCanvas@@SAXQAVwindow@@@PBUcursor@vpiDomains@@PAUboolean_struct@_builtIn@@@Z 
01:00031044 ?cursorSet@pictureCanvas@@SAXQAVwindow@@@PBUhModule@@PBUcursor@vpiDomains@@PAUboolean_struct@_builtIn@@@Z 
01:00031078 ?_cursorGetPos@pictureCanvas@@SAXQAVwindow@@@PAPAUpnt_struct@vpiDomains@@@Z 
01:000310AC ?_cursorGet@pictureCanvas@@SAXQAVwindow@@@AAUcursor@vpiDomains@@@Z 
01:000310E0 ?_getState@pictureCanvas@@SAXQAVwindow@@@PAPAU?$__list_struct@Uwsflag@@@@@Z 
01:00031114 ?isFlagSet@pictureCanvas@@SAXQAVwindow@@@PBUwsflag@vpiDomains@@@Z 
01:00031148 ?setState@pictureCanvas@@SAXQAVwindow@@@PAU?$__list_struct@Uwsflag@@@@@Z 
01:0003117C ?setEnabled@pictureCanvas@@SAXQAVwindow@@@@Z 
01:000311AC ?setEnabled@pictureCanvas@@SAXQAVwindow@@@PAUboolean_struct@_builtIn@@@Z 
01:000311E0 ?_getEnabled@pictureCanvas@@SAXQAVwindow@@@PAPAUboolean_struct@_builtIn@@@Z 
01:00031214 ?setVisible@pictureCanvas@@SAXQAVwindow@@@@Z 
01:00031244 ?setVisible@pictureCanvas@@SAXQAVwindow@@@PAUboolean_struct@_builtIn@@@Z 
01:00031278 ?_getVisible@pictureCanvas@@SAXQAVwindow@@@PAPAUboolean_struct@_builtIn@@@Z 
01:000312AC ?clearState@pictureCanvas@@SAXQAVwindow@@@PAU?$__list_struct@Uwsflag@@@@@Z 
01:000312E0 ?setMinimizeSize@pictureCanvas@@SAXQAVwindow@@@HH@Z 
01:00031314 ?clearMinimizeSize@pictureCanvas@@SAXQAVwindow@@@@Z 
01:00031344 ?_timerSet@pictureCanvas@@SAXQAVwindow@@@PBUpositive@@AAUtimerId@vpiDomains@@@Z 
01:00031378 ?timerKill@pictureCanvas@@SAXQAVwindow@@@PBUtimerId@vpiDomains@@@Z 
01:000313AC ?addTimerListener@pictureCanvas@@SAXQAVwindow@@@X@Z 
01:000313E0 ?removeTimerListener@pictureCanvas@@SAXQAVwindow@@@X@Z 
01:00031414 ?delayCall@pictureCanvas@@SAXQAVwindow@@@PBUpositive@@X@Z 
01:00031448 ?addNativeMessageHandler@pictureCanvas@@SAXQAVwindow@@@X@Z 
01:0003147C ?removeNativeMessageHandler@pictureCanvas@@SAXQAVwindow@@@X@Z 
01:000314B0 ?addUserListener@pictureCanvas@@SAXQAVwindow@@@X@Z 
01:000314E4 ?removeUserListener@pictureCanvas@@SAXQAVwindow@@@X@Z 
01:00031518 ?postAction@pictureCanvas@@SAXQAVwindow@@@X@Z 
01:0003154C ?addStateListener@pictureCanvas@@SAXQAVwindow@@@X@Z 
01:00031580 ?removeStateListener@pictureCanvas@@SAXQAVwindow@@@X@Z 
01:000315B4 ?_tryGetVpiWindow@pictureCanvas@@SAXQAVwindow@@@AAUwindowHandle@vpiDomains@@@Z 
01:000315E8 ?_getVpiWindow@pictureCanvas@@SAXQAVwindow@@@AAUwindowHandle@vpiDomains@@@Z 
01:0003161C ?_getData@pictureCanvas@@SAXQAVwindow@@@PAH@Z 
01:00031650 ?setData@pictureCanvas@@SAXQAVwindow@@@H@Z 
01:00031684 ?_getClassName@pictureCanvas@@SAXQAVwindow@@@PAPB_W@Z 
01:000316B8 ?_getAttrVal@pictureCanvas@@SAXQAVwindow@@@HPAH@Z 
01:000316EC ?addHandler@pictureCanvas@@SAXQAVwindow@@@X@Z 
01:00031720 ?removeHandler@pictureCanvas@@SAXQAVwindow@@@X@Z 
01:00031754 ?setSubClassHandler@pictureCanvas@@SAXQAVwindow@@@XPAUboolean_struct@_builtIn@@@Z 
01:00031788 ?_sendEvent@pictureCanvas@@SAXQAVwindow@@@PAUevent_struct@vpiDomains@@PAH@Z 
01:000317BC ?_sendEvent@pictureCanvas@@SAXQAVwindow@@@PAUevent_struct@vpiDomains@@PAUboolean_struct@_builtIn@@PAH@Z 
01:000317F0 ?postEvent@pictureCanvas@@SAXQAVwindow@@@PAUevent_struct@vpiDomains@@@Z 
01:00031824 ?postUserEvent@pictureCanvas@@SAXQAVwindow@@@HH@Z 
01:00031858 ?_getEventHandler@pictureCanvas@@SAXQAVwindow@@@PAX@Z 
01:0003188C ?unwrapVPIWin@pictureCanvas@@SAXQAVwindow@@@@Z 
01:000318BC ?_getDefaultWindowExtension@pictureCanvas@@SAXQAVwindow@@@PAPAVwindowExtension@@@@Z 
01:000318F0 ?_getWindowExtension@pictureCanvas@@SAXQAVwindow@@@PAPAVwindowExtension@@@@Z 
01:00031924 ?setWindowExtension@pictureCanvas@@SAXQAVwindow@@@QAVwindowExtension@@@@Z 
01:00031958 ?whenCreated@pictureCanvas@@SAXQAVwindow@@@X@Z 
01:0003198C ?classInfo@gui_exception@@SAXPAPB_W0@Z 
01:000319A8 ?raise_NoWindowException@gui_exception@@SAXX@Z 
01:000319C8 ?raise_InitializeException@gui_exception@@SAXX@Z 
01:000319E8 ?raise_TwiceAttachException@gui_exception@@SAXX@Z 
01:00031A08 ?raise_RemoveHandlerException@gui_exception@@SAXX@Z 
01:00031A28 ?raise_ClearStateException@gui_exception@@SAXX@Z 
01:00031A48 ?raise_ShowAfterDestroyException@gui_exception@@SAXX@Z 
01:00031A68 ?raise_WindowIsWrappedException@gui_exception@@SAXXPBUwindowHandle@vpiDomains@@@Z 
01:00031AD8 ?raise_WindowCannotBeWrappedException@gui_exception@@SAXXPBUwindowHandle@vpiDomains@@@Z 
--- From 'Obj\controlSupport.99797704.obj'
01:00031B48 ?raise_UnableToSetPropertyException@gui_exception@@SAXXPB_W@Z 
--- From 'Obj\gui.B1A70004.obj'
01:00031BBC ?raise_ObjectAlreadyExistsException@gui_exception@@SAXX@Z 
01:00031BDC ?raise_WrongButtonException@gui_exception@@SAXXQAVbutton@@@@Z 
01:00031C60 ?raise_TryGetInitFocusAfterShowException@gui_exception@@SAXX@Z 
01:00031C80 ?raise_CouldNotSetParentException@gui_exception@@SAXX@Z 
01:00031CA0 ?noWindow_exception@gui_exception@@SAXPAXPAPB_W1@Z 
01:00031CC8 ?twiceAttach_exception@gui_exception@@SAXPAXPAPB_W1@Z 
01:00031CF0 ?showAfterDestroy_exception@gui_exception@@SAXPAXPAPB_W1@Z 
01:00031D18 ?initializeWindow_exception@gui_exception@@SAXPAXPAPB_W1@Z 
01:00031D40 ?clearStateAfterShow_exception@gui_exception@@SAXPAXPAPB_W1@Z 
01:00031D68 ?windowIsAlreadyWrapped_exception@gui_exception@@SAXPAXPAPB_W1@Z 
01:00031D90 ?windowCannotBeWrapped_exception@gui_exception@@SAXPAXPAPB_W1@Z 
01:00031DB8 ?removeHandler_exception@gui_exception@@SAXPAXPAPB_W1@Z  (Idle)
01:00031DE0 ?unableToSetPropertyAfterShow_exception@gui_exception@@SAXPAXPAPB_W1@Z 
01:00031E08 ?objectAlreadyExists_exception@gui_exception@@SAXPAXPAPB_W1@Z 
01:00031E30 ?wrongButton_exception@gui_exception@@SAXPAXPAPB_W1@Z 
01:00031E58 ?tryGetInitFocusAfterShow_exception@gui_exception@@SAXPAXPAPB_W1@Z 
01:00031E80 ?couldNotSetParent_exception@gui_exception@@SAXPAXPAPB_W1@Z 
01:00031EA8 ?classInfo@frameDecoration@@SAXPAPB_W0@Z 
01:00031EC4 ?new@frameDecoration@@SAXQAV1@@QAVwindow@@@@Z 
01:00031F14 ?setDecoration@frameDecoration@@SAXQAV1@@PAUdecoration_struct@1@@Z 
01:00032080 ?_buttonListToStateList@frameDecoration@@SAXPAU?$__list_struct@UdecorationButton@@@@PAPAU?$__list_struct@Uwsflag@@@@@Z 
01:000320F0 ?button_state@frameDecoration@@SAXPAUdecorationButton_struct@1@AAUwsflag@vpiDomains@@@Z 
01:00032124 ?_getDecoration@frameDecoration@@SAXQAV1@@PAPAUdecoration_struct@1@@Z 
01:00032158 ?_getDecoration@frameDecoration@@SAXPAU?$__list_struct@Uwsflag@@@@PAPAUdecoration_struct@1@@Z 
01:000321F0 ?_stateListToButtonList@frameDecoration@@SAXPAU?$__list_struct@Uwsflag@@@@PAPAU?$__list_struct@UdecorationButton@@@@@Z 
01:00032288 ?setBorder@frameDecoration@@SAXQAV1@@PAUborder_struct@1@@Z 
01:0003232C ?_getBorder@frameDecoration@@SAXQAV1@@PAPAUborder_struct@1@@Z 
01:0003239C ?border_state@frameDecoration@@SAXPAUborder_struct@1@AAUwsflag@vpiDomains@@@Z 
01:000323D8 ?_defaultCloseResponder@frameDecoration@@SAXQAVwindow@@@PAPAUcloseResponse_struct@1@@Z 
01:000323EC ?setCloseResponder@frameDecoration@@SAXQAV1@@X@Z 
01:00032400 ?_getCloseResponder@frameDecoration@@SAXQAV1@@PAX@Z 
01:00032414 ?resetCloseResponder@frameDecoration@@SAXQAV1@@@Z 
01:00032428 ?_handleClose@frameDecoration@@SAXQAV1@@PBUwindowHandle@@PAUevent_struct@vpiDomains@@PAH@Z 
01:00032480 ?_new@frameDecoration@@SAXQAVwindow@@@PAPAV1@@@Z  (Idle)
01:000324A8 ?button_state@frameDecoration@@SAXPAPAUdecorationButton_struct@1@PBUwsflag@vpiDomains@@@Z 
01:000324E8 ?border_state@frameDecoration@@SAXPAPAUborder_struct@1@PBUwsflag@vpiDomains@@@Z 
01:0003253C ?_object_facts_initializer@frameDecoration@@SGXQAV1@@@Z 
01:00032554 ?classInfo@formWindow@@SAXPAPB_W0@Z 
01:00032570 ?new@formWindow@@SAXQAV1@@@Z 
--- From 'Obj\Forms.80533223.obj'
01:000327EC ?new@formWindow@@SAXQAV1@@QAVwindow@@@@Z 
--- From 'Obj\gui.B1A70004.obj'
01:00032808 ?setFormWindowExtension@formWindow@@SAXQAV1@@QAVformWindowExtension@@@@Z 
01:0003283C ?_getFormWindowExtension@formWindow@@SAXQAV1@@PAPAVformWindowExtension@@@@Z 
01:00032860 ?_getDefaultFormWindowExtension@formWindow@@SAXQAV1@@PAPAVformWindowExtension@@@@Z 
01:00032884 ?isMaximizable@formWindow@@SAXQAV1@@@Z 
01:00032910 ?show@formWindow@@SAXQAVwindow@@@@Z 
01:00032A20 ?onFrameShow@formWindow@@SAXQAV1@@QAVwindow@@@H@Z 
01:00032C84 ?setRectIfRestored@formWindow@@SAXQAV1@@@Z 
01:00032D1C ?_getInitRect@formWindow@@SAXQAV1@@PAPAUrct_struct@vpiDomains@@@Z 
01:00032F18 ?onInnerDialogShow@formWindow@@SAXQAV1@@QAVwindow@@@H@Z 
01:00032F68 ?onChildDialogMenu@formWindow@@SAXQAV1@@QAVwindow@@@PBUmenuTag@@@Z 
01:00033028 ?_onFrameNative@formWindow@@SAXQAV1@@QAVwindow@@@IIHPAPAUnativeResponse_struct@3@@Z 
01:0003324C ?_onFrameEraseBackground@formWindow@@SAXQAVdrawWindow@@@QAVwindowGDI@@@PAPAUeraseBackgroundResponse_struct@2@@Z 
01:00033260 ?onFrameSize@formWindow@@SAXQAV1@@QAVwindow@@@@Z 
01:000332CC ?onFrameMove@formWindow@@SAXQAV1@@QAVwindow@@@@Z 
01:000332D8 ?updateUnitRect@formWindow@@SAXQAV1@@@Z 
01:0003333C ?tryRestoreRect@formWindow@@SAXQAV1@@@Z 
01:00033388 ?onFrameFocus@formWindow@@SAXQAV1@@QAVwindow@@@@Z 
01:00033408 ?initFocus@formWindow@@SAXQAV1@@@Z 
01:00033504 ?setInitFocus@formWindow@@SAXQAVdialog@@@QAVcontrol@@@@Z 
01:0003355C ?_tryGetInitFocus@formWindow@@SAXQAVdialog@@@PAPAVcontrol@@@@Z 
01:00033594 ?_tryGetInitFocus_inner@formWindow@@SAXQAV1@@PAPAVcontrol@@@@Z 
01:0003365C ?restroreDefaultButtonAndFocus@formWindow@@SAXQAV1@@@Z 
01:0003374C ?tryClearPreviousDefaultButton@formWindow@@SAXQAV1@@@Z 
01:000337F0 ?onFrameState@formWindow@@SAXQAV1@@QAVwindow@@@PAUstateInfo_struct@vpiDomains@@@Z 
01:00033834 ?setModal@formWindow@@SAXQAVdialog@@@PAUboolean_struct@_builtIn@@@Z 
01:0003383C ?setRect@formWindow@@SAXQAVdialog@@@PAUrct_struct@vpiDomains@@@Z 
01:000338BC ?moveFormWindow@formWindow@@SAXQAV1@@@Z 
01:00033948 ?_getRect@formWindow@@SAXQAVdialog@@@PAPAUrct_struct@vpiDomains@@@Z 
01:0003395C ?suspendLayout@formWindow@@SAXQAVdialog@@@@Z 
01:00033984 ?resumeLayout@formWindow@@SAXQAVdialog@@@@Z 
01:00033A00 ?setCloseResponder@formWindow@@SAXQAVframeDecoration@@@X@Z 
01:00033A98 ?_onInternalDialogClose@formWindow@@SAXQAV1@@QAVwindow@@@PAPAUcloseResponse_struct@frameDecoration@@@Z 
01:00033AD0 ?_emulateExtension@formWindow@@SAXQAV1@@PBUwindowHandle@@PAUevent_struct@vpiDomains@@PAH@Z 
01:00033BC8 ?assertInstance@formWindow@@SAXQAV1@@@Z 
01:00033C08 ?cleanupInstances@formWindow@@SAXXZ 
01:00033D80 ?_getShown_nd@formWindow@@SAXPAPAV1@@@Z  (Idle)
01:00033E1C ?_new@formWindow@@SAXPAPAV1@@@Z  (Idle)
01:00033E44 ?_new@formWindow@@SAXQAVwindow@@@PAPAV1@@@Z  (Idle)
01:00033E6C ?_object_facts_initializer@formWindow@@SGXQAV1@@@Z 
01:00033E98 ?destroy@formWindow@@SAXQAVwindow@@@@Z 
01:00033EC4 ?close@formWindow@@SAXQAVwindow@@@@Z 
01:00033EF0 ?_getParent@formWindow@@SAXQAVwindow@@@PAPAV2@@@Z 
01:00033F1C ?setParent@formWindow@@SAXQAVwindow@@@0@Z 
01:00033F48 ?_getText@formWindow@@SAXQAVwindow@@@PAPB_W@Z 
01:00033F74 ?setText@formWindow@@SAXQAVwindow@@@PB_W@Z 
01:00033FA0 ?_getOuterRect@formWindow@@SAXQAVwindow@@@PAPAUrct_struct@vpiDomains@@@Z 
01:00033FCC ?setOuterRect@formWindow@@SAXQAVwindow@@@PAUrct_struct@vpiDomains@@@Z 
01:00033FF8 ?setClientRect@formWindow@@SAXQAVwindow@@@PAUrct_struct@vpiDomains@@@Z 
01:00034024 ?_getClientRect@formWindow@@SAXQAVwindow@@@PAPAUrct_struct@vpiDomains@@@Z 
01:00034050 ?center@formWindow@@SAXQAVwindow@@@@Z 
01:0003407C ?center@formWindow@@SAXQAVwindow@@@PAUrct_struct@vpiDomains@@@Z 
01:000340A8 ?centerTo@formWindow@@SAXQAVwindow@@@0@Z 
01:000340D4 ?addMoveListener@formWindow@@SAXQAVwindow@@@X@Z 
01:00034100 ?removeMoveListener@formWindow@@SAXQAVwindow@@@X@Z 
01:0003412C ?setFocus@formWindow@@SAXQAVwindow@@@@Z 
01:00034158 ?setActive@formWindow@@SAXQAVwindow@@@@Z 
01:00034184 ?setIcon@formWindow@@SAXQAVwindow@@@PBUresid@vpiDomains@@@Z 
01:000341B4 ?menuPopUp@formWindow@@SAXQAVwindow@@@PAUmenu_struct@vpiDomains@@PAUpnt_struct@4@PBUmenuAlign@4@@Z 
01:000341E4 ?addMenuItemListener@formWindow@@SAXQAVwindow@@@X@Z 
01:00034214 ?addMenuItemListener@formWindow@@SAXQAVwindow@@@PBUmenuTag@vpiDomains@@X@Z 
01:00034244 ?removeMenuItemListener@formWindow@@SAXQAVwindow@@@X@Z 
01:00034274 ?_getState@formWindow@@SAXQAVwindow@@@PAPAU?$__list_struct@Uwsflag@@@@@Z 
01:000342A4 ?setState@formWindow@@SAXQAVwindow@@@PAU?$__list_struct@Uwsflag@@@@@Z 
01:000342D4 ?setEnabled@formWindow@@SAXQAVwindow@@@@Z 
01:00034300 ?setEnabled@formWindow@@SAXQAVwindow@@@PAUboolean_struct@_builtIn@@@Z 
01:00034330 ?_getEnabled@formWindow@@SAXQAVwindow@@@PAPAUboolean_struct@_builtIn@@@Z 
01:00034360 ?setVisible@formWindow@@SAXQAVwindow@@@@Z 
01:0003438C ?setVisible@formWindow@@SAXQAVwindow@@@PAUboolean_struct@_builtIn@@@Z 
01:000343BC ?_getVisible@formWindow@@SAXQAVwindow@@@PAPAUboolean_struct@_builtIn@@@Z 
01:000343EC ?clearState@formWindow@@SAXQAVwindow@@@PAU?$__list_struct@Uwsflag@@@@@Z 
01:0003441C ?setDecoration@formWindow@@SAXQAVframeDecoration@@@PAUdecoration_struct@2@@Z 
01:0003444C ?_getDecoration@formWindow@@SAXQAVframeDecoration@@@PAPAUdecoration_struct@2@@Z 
01:0003447C ?setBorder@formWindow@@SAXQAVframeDecoration@@@PAUborder_struct@2@@Z 
01:000344AC ?_getBorder@formWindow@@SAXQAVframeDecoration@@@PAPAUborder_struct@2@@Z 
01:000344DC ?resetCloseResponder@formWindow@@SAXQAVframeDecoration@@@@Z 
01:00034508 ?getScrollRange@formWindow@@SAXQAVdrawWindow@@@PBUscrollType@vpiDomains@@PAHPAH@Z 
01:00034538 ?setScrollRange@formWindow@@SAXQAVdrawWindow@@@PBUscrollType@vpiDomains@@HH@Z 
01:00034568 ?_getScrollPos@formWindow@@SAXQAVdrawWindow@@@PBUscrollType@vpiDomains@@PAH@Z 
01:00034598 ?setScrollPos@formWindow@@SAXQAVdrawWindow@@@PBUscrollType@vpiDomains@@H@Z 
01:000345C8 ?_getScrollProportion@formWindow@@SAXQAVdrawWindow@@@PBUscrollType@vpiDomains@@PAI@Z 
01:000345F8 ?setScrollProportion@formWindow@@SAXQAVdrawWindow@@@PBUscrollType@vpiDomains@@I@Z 
01:00034628 ?_getScrollBarInfo@formWindow@@SAXQAVdrawWindow@@@PBUscrollType@vpiDomains@@PAPAUscrollBarInfo_struct@2@@Z 
01:00034658 ?_getScrollInfo@formWindow@@SAXQAVdrawWindow@@@PBUscrollType@vpiDomains@@PAPAUscrollInfo_struct@2@@Z 
01:00034688 ?addVScrollListener@formWindow@@SAXQAVdrawWindow@@@X@Z 
01:000346B8 ?removeVScrollListener@formWindow@@SAXQAVdrawWindow@@@X@Z 
01:000346E8 ?addHScrollListener@formWindow@@SAXQAVdrawWindow@@@X@Z 
01:00034718 ?removeHScrollListener@formWindow@@SAXQAVdrawWindow@@@X@Z 
01:00034748 ?setMinimized@formWindow@@SAXQAVdocumentWindow@@@PAUboolean_struct@_builtIn@@@Z 
01:00034778 ?_getMinimized@formWindow@@SAXQAVdocumentWindow@@@PAPAUboolean_struct@_builtIn@@@Z 
01:000347A8 ?isMinimized@formWindow@@SAXQAVdocumentWindow@@@@Z 
01:000347D4 ?_mdiGetRestoredRect@formWindow@@SAXQAVdocumentWindow@@@PAPAUrct_struct@vpiDomains@@@Z 
01:00034804 ?addActivateListener@formWindow@@SAXQAVdocumentWindow@@@X@Z 
01:00034834 ?removeActivateListener@formWindow@@SAXQAVdocumentWindow@@@X@Z 
01:00034864 ?addDeactivateListener@formWindow@@SAXQAVdocumentWindow@@@X@Z 
01:00034894 ?removeDeactivateListener@formWindow@@SAXQAVdocumentWindow@@@X@Z 
01:000348C4 ?menuUpdate@formWindow@@SAXQAVdocumentWindow@@@@Z 
01:000348F0 ?menuSetText@formWindow@@SAXQAVdocumentWindow@@@PBUmenuTag@vpiDomains@@PB_W@Z 
01:00034920 ?menuSet@formWindow@@SAXQAVdocumentWindow@@@PAUmenu_struct@vpiDomains@@@Z 
01:00034950 ?_menuGet@formWindow@@SAXQAVdocumentWindow@@@PAPAUmenu_struct@vpiDomains@@@Z 
01:00034980 ?menuEnable@formWindow@@SAXQAVdocumentWindow@@@PBUmenuTag@vpiDomains@@PAUboolean_struct@_builtIn@@@Z 
01:000349B0 ?menuCheck@formWindow@@SAXQAVdocumentWindow@@@PBUmenuTag@vpiDomains@@PAUboolean_struct@_builtIn@@@Z 
01:000349E0 ?addInitMenuListener@formWindow@@SAXQAVdocumentWindow@@@X@Z 
01:00034A10 ?removeInitMenuListener@formWindow@@SAXQAVdocumentWindow@@@X@Z 
01:00034A40 ?_getDefaultDocumentWindowExtension@formWindow@@SAXQAVdocumentWindow@@@PAPAVdocumentWindowExtension@@@@Z 
01:00034A70 ?_getDocumentWindowExtension@formWindow@@SAXQAVdocumentWindow@@@PAPAVdocumentWindowExtension@@@@Z 
01:00034AA0 ?setDocumentWindowExtension@formWindow@@SAXQAVdocumentWindow@@@QAVdocumentWindowExtension@@@@Z 
01:00034AD0 ?handlePaint@formWindow@@SAXQAVdrawWindowExtension@@@QAVdrawWindow@@@PAUrct_struct@vpiDomains@@QAVwindowGDI@@@@Z 
01:00034AFC ?_handleEraseBackground@formWindow@@SAXQAVdrawWindowExtension@@@QAVdrawWindow@@@PAPAUeraseBackgroundResponse_struct@3@@Z 
01:00034B28 ?handleMouseDown@formWindow@@SAXQAVdrawWindowExtension@@@QAVdrawWindow@@@PAUpnt_struct@vpiDomains@@PBUkeyModifier@5@H@Z 
01:00034B54 ?handleMouseUp@formWindow@@SAXQAVdrawWindowExtension@@@QAVdrawWindow@@@PAUpnt_struct@vpiDomains@@PBUkeyModifier@5@H@Z 
01:00034B80 ?handleMouseMove@formWindow@@SAXQAVdrawWindowExtension@@@QAVdrawWindow@@@PAUpnt_struct@vpiDomains@@PBUkeyModifier@5@PAU?$__list_struct@Uinteger@@@@@Z 
01:00034BAC ?handleMouseDbl@formWindow@@SAXQAVdrawWindowExtension@@@QAVdrawWindow@@@PAUpnt_struct@vpiDomains@@PBUkeyModifier@5@H@Z 
01:00034BD8 ?_handleChar@formWindow@@SAXQAVdrawWindowExtension@@@QAVdrawWindow@@@HPBUkeyModifier@vpiDomains@@PAPAUcharResponse_struct@3@@Z 
01:00034C04 ?_handleKeyDown@formWindow@@SAXQAVdrawWindowExtension@@@QAVdrawWindow@@@HPBUkeyModifier@vpiDomains@@PAPAUkeyDownResponse_struct@3@@Z 
01:00034C30 ?_handleKeyUp@formWindow@@SAXQAVdrawWindowExtension@@@QAVdrawWindow@@@HPBUkeyModifier@vpiDomains@@PAPAUkeyUpResponse_struct@3@@Z 
01:00034C5C ?handleVScroll@formWindow@@SAXQAVdrawWindowExtension@@@QAVdrawWindow@@@PBUscrollCode@vpiDomains@@H@Z 
01:00034C88 ?handleHScroll@formWindow@@SAXQAVdrawWindowExtension@@@QAVdrawWindow@@@PBUscrollCode@vpiDomains@@H@Z 
01:00034CB4 ?handleShow@formWindow@@SAXQAVwindowExtension@@@QAVwindow@@@H@Z 
01:00034CE0 ?handleDestroy@formWindow@@SAXQAVwindowExtension@@@QAVwindow@@@@Z 
01:00034D0C ?handleSize@formWindow@@SAXQAVwindowExtension@@@QAVwindow@@@HH@Z 
01:00034D38 ?handleMove@formWindow@@SAXQAVwindowExtension@@@QAVwindow@@@HH@Z 
01:00034D64 ?handleFocus@formWindow@@SAXQAVwindowExtension@@@QAVwindow@@@@Z 
01:00034D90 ?handleLoseFocus@formWindow@@SAXQAVwindowExtension@@@QAVwindow@@@@Z 
01:00034DBC ?handleMenuCommand@formWindow@@SAXQAVwindowExtension@@@QAVwindow@@@PBUmenuTag@vpiDomains@@@Z 
01:00034DE8 ?handleTimer@formWindow@@SAXQAVwindowExtension@@@QAVwindow@@@PBUtimerId@vpiDomains@@@Z 
01:00034E14 ?_handleNative@formWindow@@SAXQAVwindowExtension@@@QAVwindow@@@IIHPAPAUnativeResponse_struct@3@@Z 
01:00034E40 ?handleUser@formWindow@@SAXQAVwindowExtension@@@QAVwindow@@@HH@Z 
01:00034E6C ?handleStateChange@formWindow@@SAXQAVwindowExtension@@@QAVwindow@@@PAUstateInfo_struct@vpiDomains@@@Z 
01:00034E98 ?handleActivate@formWindow@@SAXQAVdocumentWindowExtension@@@QAVdocumentWindow@@@@Z 
01:00034EC4 ?handleDeactivate@formWindow@@SAXQAVdocumentWindowExtension@@@QAVdocumentWindow@@@@Z 
01:00034EF0 ?handleInitMenu@formWindow@@SAXQAVdocumentWindowExtension@@@QAVdocumentWindow@@@@Z 
01:00034F1C ?classInfo@drawWindow@@SAXPAPB_W0@Z 
--- From 'Obj\controlSupport.99797704.obj'
01:00034F38 ?new@drawWindow@@SAXQAV1@@@Z 
--- From 'Obj\gui.B1A70004.obj'
01:00034F78 ?new@drawWindow@@SAXQAV1@@QAVwindow@@@@Z 
01:00034F94 ?_getDefaultDrawWindowExtension@drawWindow@@SAXQAV1@@PAPAVdrawWindowExtension@@@@Z 
01:00034FA8 ?_getDrawWindowExtension@drawWindow@@SAXQAV1@@PAPAVdrawWindowExtension@@@@Z 
01:00034FBC ?setDrawWindowExtension@drawWindow@@SAXQAV1@@QAVdrawWindowExtension@@@@Z 
01:00034FF0 ?setWindowExtension@drawWindow@@SAXQAVwindow@@@QAVwindowExtension@@@@Z 
01:00035014 ?wrapVPIWin@drawWindow@@SAXQAV1@@PBUwindowHandle@vpiDomains@@@Z 
01:00035054 ?_convertVPIWin2drawWindow@1@SAXPBUwindowHandle@vpiDomains@@PAPAV1@@@Z  (Idle)
01:000350C0 ?initialize@drawWindow@@SAXQAVwindow@@@@Z 
01:00035180 ?initOne@drawWindow@@SAXQAV1@@PAUsetting_struct@1@@Z 
01:000352C8 ?_getPaintResponder@drawWindow@@SAXQAV1@@PAX@Z 
01:000352DC ?setPaintResponder@drawWindow@@SAXQAV1@@X@Z 
01:000352F0 ?resetPaintResponder@drawWindow@@SAXQAV1@@@Z 
01:00035304 ?handlePaint@drawWindow@@SAXQAVdrawWindowExtension@@@QAV1@@PAUrct_struct@vpiDomains@@QAVwindowGDI@@@@Z 
01:00035340 ?defaultPaintResponder@drawWindow@@SAXQAV1@@PAUrct_struct@vpiDomains@@QAVwindowGDI@@@@Z 
01:00035348 ?_getEraseBackgroundResponder@drawWindow@@SAXQAV1@@PAX@Z 
01:0003535C ?setEraseBackgroundResponder@drawWindow@@SAXQAV1@@X@Z 
01:00035370 ?resetEraseBackgroundResponder@drawWindow@@SAXQAV1@@@Z 
01:00035384 ?_handleEraseBackground@drawWindow@@SAXQAVdrawWindowExtension@@@QAV1@@PAPAUeraseBackgroundResponse_struct@1@@Z 
01:000353C0 ?_defaultEraseBackgroundResponder@drawWindow@@SAXQAV1@@QAVwindowGDI@@@PAPAUeraseBackgroundResponse_struct@1@@Z 
01:000353D4 ?addMouseDownListener@drawWindow@@SAXQAV1@@X@Z 
01:000353F4 ?removeMouseDownListener@drawWindow@@SAXQAV1@@X@Z 
01:000354BC ?handleMouseDown@drawWindow@@SAXQAVdrawWindowExtension@@@QAV1@@PAUpnt_struct@vpiDomains@@PBUkeyModifier@5@H@Z 
01:00035544 ?addMouseUpListener@drawWindow@@SAXQAV1@@X@Z 
01:00035564 ?removeMouseUpListener@drawWindow@@SAXQAV1@@X@Z 
01:0003562C ?handleMouseUp@drawWindow@@SAXQAVdrawWindowExtension@@@QAV1@@PAUpnt_struct@vpiDomains@@PBUkeyModifier@5@H@Z 
01:000356B4 ?addMouseDblListener@drawWindow@@SAXQAV1@@X@Z 
01:000356D4 ?removeMouseDblListener@drawWindow@@SAXQAV1@@X@Z 
01:0003579C ?handleMouseDbl@drawWindow@@SAXQAVdrawWindowExtension@@@QAV1@@PAUpnt_struct@vpiDomains@@PBUkeyModifier@5@H@Z 
01:00035824 ?addMouseMoveListener@drawWindow@@SAXQAV1@@X@Z 
01:00035844 ?removeMouseMoveListener@drawWindow@@SAXQAV1@@X@Z 
01:0003590C ?handleMouseMove@drawWindow@@SAXQAVdrawWindowExtension@@@QAV1@@PAUpnt_struct@vpiDomains@@PBUkeyModifier@5@PAU?$__list_struct@Uinteger@@@@@Z 
01:00035994 ?_getCharResponder@drawWindow@@SAXQAV1@@PAX@Z 
01:000359A8 ?setCharResponder@drawWindow@@SAXQAV1@@X@Z 
01:000359BC ?resetCharResponder@drawWindow@@SAXQAV1@@@Z 
01:000359D0 ?_handleChar@drawWindow@@SAXQAVdrawWindowExtension@@@QAV1@@HPBUkeyModifier@vpiDomains@@PAPAUcharResponse_struct@1@@Z 
01:00035A0C ?_defaultCharResponder@drawWindow@@SAXQAV1@@HPBUkeyModifier@@PAPAUcharResponse_struct@1@@Z 
01:00035A20 ?_getKeyDownResponder@drawWindow@@SAXQAV1@@PAX@Z 
01:00035A34 ?setKeyDownResponder@drawWindow@@SAXQAV1@@X@Z 
01:00035A48 ?resetKeyDownResponder@drawWindow@@SAXQAV1@@@Z 
01:00035A5C ?_handleKeyDown@drawWindow@@SAXQAVdrawWindowExtension@@@QAV1@@HPBUkeyModifier@vpiDomains@@PAPAUkeyDownResponse_struct@1@@Z 
01:00035A98 ?_defaultKeyDownResponder@drawWindow@@SAXQAV1@@HPBUkeyModifier@@PAPAUkeyDownResponse_struct@1@@Z 
01:00035AAC ?_getKeyUpResponder@drawWindow@@SAXQAV1@@PAX@Z 
01:00035AC0 ?setKeyUpResponder@drawWindow@@SAXQAV1@@X@Z 
01:00035AD4 ?resetKeyUpResponder@drawWindow@@SAXQAV1@@@Z 
01:00035AE8 ?_handleKeyUp@drawWindow@@SAXQAVdrawWindowExtension@@@QAV1@@HPBUkeyModifier@vpiDomains@@PAPAUkeyUpResponse_struct@1@@Z 
01:00035B24 ?_defaultKeyUpResponder@drawWindow@@SAXQAV1@@HPBUkeyModifier@@PAPAUkeyUpResponse_struct@1@@Z 
01:00035B38 ?addVScrollListener@drawWindow@@SAXQAV1@@X@Z 
01:00035B58 ?removeVScrollListener@drawWindow@@SAXQAV1@@X@Z 
01:00035C20 ?handleVScroll@drawWindow@@SAXQAVdrawWindowExtension@@@QAV1@@PBUscrollCode@vpiDomains@@H@Z 
01:00035CA4 ?addHScrollListener@drawWindow@@SAXQAV1@@X@Z 
01:00035CC4 ?removeHScrollListener@drawWindow@@SAXQAV1@@X@Z 
01:00035D8C ?handleHScroll@drawWindow@@SAXQAVdrawWindowExtension@@@QAV1@@PBUscrollCode@vpiDomains@@H@Z 
01:00035E10 ?isEventHandledInDrawWindow@drawWindow@@SAXPAUevent_struct@vpiDomains@@@Z 
01:00035E88 ?_dispatchAutoHandler@drawWindow@@SAXQAV1@@PBUwindowHandle@@PAUevent_struct@vpiDomains@@PAH@Z 
01:00036460 ?_getEventHandler@drawWindow@@SAXQAVwindow@@@PAX@Z 
01:00036490 ?update@drawWindow@@SAXQAV1@@@Z 
01:000364CC ?validateRect@drawWindow@@SAXQAV1@@PAUrct_struct@vpiDomains@@@Z 
01:000364F4 ?needsUpdate@drawWindow@@SAXQAV1@@PAUrct_struct@vpiDomains@@@Z 
01:0003651C ?invalidate@drawWindow@@SAXQAV1@@@Z 
01:00036558 ?invalidate@drawWindow@@SAXQAV1@@PAUrct_struct@vpiDomains@@@Z 
01:00036598 ?_getInvalidRect@drawWindow@@SAXQAV1@@PAPAUrct_struct@vpiDomains@@@Z 
01:000365C4 ?_getClip@drawWindow@@SAXQAV1@@PAPAUrct_struct@vpiDomains@@@Z 
01:00036658 ?setClip@drawWindow@@SAXQAV1@@PAUrct_struct@vpiDomains@@@Z 
01:000367B8 ?captureMouse@drawWindow@@SAXQAV1@@@Z 
01:000367DC ?releaseMouse@drawWindow@@SAXQAV1@@@Z 
01:000367EC ?_convertLPtoDP@drawWindow@@SAXQAV1@@PAU?$__list_struct@Upnt@@@@PAPAU?$__list_struct@U3@@@@Z 
01:0003681C ?_convertDPtoLP@drawWindow@@SAXQAV1@@PAU?$__list_struct@Upnt@@@@PAPAU?$__list_struct@U3@@@@Z 
01:0003684C ?getScrollRange@drawWindow@@SAXQAV1@@PBUscrollType@vpiDomains@@PAHPAH@Z 
01:00036878 ?setScrollRange@drawWindow@@SAXQAV1@@PBUscrollType@vpiDomains@@HH@Z 
01:00036900 ?_getScrollPos@drawWindow@@SAXQAV1@@PBUscrollType@vpiDomains@@PAH@Z 
01:00036930 ?setScrollPos@drawWindow@@SAXQAV1@@PBUscrollType@vpiDomains@@H@Z 
01:000369B0 ?_getScrollProportion@drawWindow@@SAXQAV1@@PBUscrollType@vpiDomains@@PAI@Z 
01:000369E0 ?setScrollProportion@drawWindow@@SAXQAV1@@PBUscrollType@vpiDomains@@I@Z 
01:00036A60 ?scroll@drawWindow@@SAXQAV1@@PAUrct_struct@vpiDomains@@HH@Z 
01:00036AEC ?scroll@drawWindow@@SAXQAV1@@PAUrct_struct@vpiDomains@@HHI@Z 
01:00036B50 ?_getScrollBarInfo@drawWindow@@SAXQAV1@@PBUscrollType@vpiDomains@@PAPAUscrollBarInfo_struct@1@@Z 
01:00036C84 ?_getScrollBarObjCode@drawWindow@@SAXHAAUunsigned32@@@Z 
01:00036CE0 ?_getScrollInfo@drawWindow@@SAXQAV1@@PBUscrollType@vpiDomains@@PAPAUscrollInfo_struct@1@@Z 
01:00036DC8 ?setCaretSize@drawWindow@@SAXQAV1@@PBUpositive@@1@Z 
01:00036ED0 ?setCaret@drawWindow@@SAXQAV1@@PAUpnt_struct@vpiDomains@@PBUpositive@@2@Z 
01:00036EFC ?setCaret@drawWindow@@SAXQAV1@@PAUpnt_struct@vpiDomains@@@Z 
01:00037038 ?hideCaret@drawWindow@@SAXQAV1@@@Z 
01:00037074 ?_getMapMode@drawWindow@@SAXQAV1@@AAUmapmode@vpiDomains@@@Z 
01:00037108 ?setMapMode@drawWindow@@SAXQAV1@@PBUmapmode@vpiDomains@@@Z 
01:00037208 ?getMapScale@drawWindow@@SAXQAV1@@PAPAUpnt_struct@vpiDomains@@111@Z 
01:000372C0 ?setMapScale@drawWindow@@SAXQAV1@@PAUpnt_struct@vpiDomains@@111@Z 
01:000373DC ?getTextExtent@drawWindow@@SAXQAVwindowGDI@@@PB_WAAUpositive@@2@Z 
01:00037404 ?getTextExtent@drawWindow@@SAXQAVwindowGDI@@@PB_WPBUcharCountOptional@@AAUpositive@@3@Z 
01:00037434 ?setBackColor@drawWindow@@SAXQAVwindowGDI@@@PBUcolor@@@Z 
01:0003745C ?_getBackColor@drawWindow@@SAXQAVwindowGDI@@@AAUcolor@@@Z 
01:0003748C ?setForeColor@drawWindow@@SAXQAVwindowGDI@@@PBUcolor@@@Z 
01:000374B4 ?_getForeColor@drawWindow@@SAXQAVwindowGDI@@@AAUcolor@@@Z 
01:000374E4 ?setBackMode@drawWindow@@SAXQAVwindowGDI@@@PBUbk_mode@@@Z 
01:0003750C ?_getBackMode@drawWindow@@SAXQAVwindowGDI@@@AAUbk_mode@@@Z 
01:0003753C ?_getPen@drawWindow@@SAXQAVwindowGDI@@@PAPAUpen_struct@vpiDomains@@@Z 
01:00037568 ?setPen@drawWindow@@SAXQAVwindowGDI@@@PAUpen_struct@vpiDomains@@@Z 
01:00037590 ?_getBrush@drawWindow@@SAXQAVwindowGDI@@@PAPAUbrush_struct@vpiDomains@@@Z 
01:000375BC ?setBrush@drawWindow@@SAXQAVwindowGDI@@@PAUbrush_struct@vpiDomains@@@Z 
01:000375E4 ?_getDrawTools@drawWindow@@SAXQAVwindowGDI@@@PAPAUdrawtools_struct@vpiDomains@@@Z 
01:00037610 ?setDrawTools@drawWindow@@SAXQAVwindowGDI@@@PAUdrawtools_struct@vpiDomains@@@Z 
01:00037638 ?clear@drawWindow@@SAXQAVwindowGDI@@@PBUcolor@@@Z 
01:00037660 ?clear@drawWindow@@SAXQAVwindowGDI@@@PAUrct_struct@vpiDomains@@PBUcolor@@@Z 
01:0003768C ?_getDrawMode@drawWindow@@SAXQAVwindowGDI@@@AAUdrawMode@@@Z 
01:000376B8 ?setDrawMode@drawWindow@@SAXQAVwindowGDI@@@PBUdrawMode@@@Z 
01:000376E0 ?_getNativeGraphicContext@drawWindow@@SAXQAVwindowGDI@@@PAPAUboolean_struct@_builtIn@@AAUhandle@@@Z 
01:0003771C ?releaseNativeGraphicContext@drawWindow@@SAXQAVwindowGDI@@@PBUhandle@@PAUboolean_struct@_builtIn@@@Z 
01:0003775C ?_getPixelColor@drawWindow@@SAXQAVwindowGDI@@@PAUpnt_struct@vpiDomains@@AAUcolor@@@Z 
01:0003778C ?drawTextInRect@drawWindow@@SAXQAVwindowGDI@@@PAUrct_struct@vpiDomains@@PB_WPBUcharCountOptional@@PAU?$__list_struct@Uinteger@@@@@Z 
01:000377BC ?drawTextInRect@drawWindow@@SAXQAVwindowGDI@@@PAUrct_struct@vpiDomains@@PB_WPAU?$__list_struct@Uinteger@@@@@Z 
01:000377E4 ?drawText@drawWindow@@SAXQAVwindowGDI@@@PAUpnt_struct@vpiDomains@@PB_WPBUcharCountOptional@@@Z 
01:00037820 ?drawText@drawWindow@@SAXQAVwindowGDI@@@PAUpnt_struct@vpiDomains@@PB_W@Z 
01:00037870 ?drawRoundRect@drawWindow@@SAXQAVwindowGDI@@@PAUrct_struct@vpiDomains@@HH@Z 
01:0003789C ?drawRect@drawWindow@@SAXQAVwindowGDI@@@PAUrct_struct@vpiDomains@@@Z 
01:000378C4 ?drawFocusRect@drawWindow@@SAXQAVwindowGDI@@@PAUrct_struct@vpiDomains@@@Z 
01:00037938 ?drawPolyline@drawWindow@@SAXQAVwindowGDI@@@PAU?$__list_struct@Upnt@@@@@Z 
01:00037960 ?drawPolygon@drawWindow@@SAXQAVwindowGDI@@@PAU?$__list_struct@Upnt@@@@@Z 
01:00037988 ?drawPixel@drawWindow@@SAXQAVwindowGDI@@@PAUpnt_struct@vpiDomains@@PBUcolor@@@Z 
01:000379B4 ?drawPie@drawWindow@@SAXQAVwindowGDI@@@PAUrct_struct@vpiDomains@@PAUpnt_struct@4@2@Z 
01:000379FC ?drawLine@drawWindow@@SAXQAVwindowGDI@@@PAUpnt_struct@vpiDomains@@1@Z 
01:00037A28 ?drawIcon@drawWindow@@SAXQAVwindowGDI@@@PAUpnt_struct@vpiDomains@@PBUresid@@@Z 
01:00037A60 ?drawFloodFill@drawWindow@@SAXQAVwindowGDI@@@PAUpnt_struct@vpiDomains@@PBUcolor@@@Z 
01:00037A8C ?drawEllipse@drawWindow@@SAXQAVwindowGDI@@@PAUrct_struct@vpiDomains@@@Z 
01:00037AB4 ?drawArc@drawWindow@@SAXQAVwindowGDI@@@PAUrct_struct@vpiDomains@@PAUpnt_struct@4@2@Z 
01:00037AFC ?pictDraw@drawWindow@@SAXQAVwindowGDI@@@PBUpicture@@PAUpnt_struct@vpiDomains@@PBUrop@@@Z 
01:00037B24 ?pictDraw@drawWindow@@SAXQAVwindowGDI@@@PBUpicture@@PAUrct_struct@vpiDomains@@2PBUrop@@@Z 
01:00037B4C ?_getWindowGDI@drawWindow@@SAXQAV1@@PAPAVwindowGDI@@@@Z 
01:00037B74 ?addHandler@drawWindow@@SAXQAVwindow@@@X@Z 
01:00037B98 ?removeHandler@drawWindow@@SAXQAVwindow@@@X@Z 
01:00037C5C ?_new@drawWindow@@SAXPAPAV1@@@Z  (Idle)
01:00037C84 ?_new@drawWindow@@SAXQAVwindow@@@PAPAV1@@@Z 
01:00037CAC ?_wrapVPIWin@drawWindow@@SAXPBUwindowHandle@vpiDomains@@PAPAV1@@@Z 
01:00037CD4 ?_object_facts_initializer@drawWindow@@SGXQAV1@@@Z 
01:00037D0C ?handleShow@drawWindow@@SAXQAVwindowExtension@@@QAVwindow@@@H@Z 
01:00037D28 ?handleDestroy@drawWindow@@SAXQAVwindowExtension@@@QAVwindow@@@@Z 
01:00037D44 ?handleSize@drawWindow@@SAXQAVwindowExtension@@@QAVwindow@@@HH@Z 
01:00037D60 ?handleMove@drawWindow@@SAXQAVwindowExtension@@@QAVwindow@@@HH@Z 
01:00037D7C ?handleFocus@drawWindow@@SAXQAVwindowExtension@@@QAVwindow@@@@Z 
01:00037D98 ?handleLoseFocus@drawWindow@@SAXQAVwindowExtension@@@QAVwindow@@@@Z 
01:00037DB4 ?handleMenuCommand@drawWindow@@SAXQAVwindowExtension@@@QAVwindow@@@PBUmenuTag@vpiDomains@@@Z 
01:00037DD0 ?handleTimer@drawWindow@@SAXQAVwindowExtension@@@QAVwindow@@@PBUtimerId@vpiDomains@@@Z 
01:00037DEC ?_handleNative@drawWindow@@SAXQAVwindowExtension@@@QAVwindow@@@IIHPAPAUnativeResponse_struct@3@@Z 
01:00037E08 ?handleUser@drawWindow@@SAXQAVwindowExtension@@@QAVwindow@@@HH@Z 
01:00037E24 ?handleStateChange@drawWindow@@SAXQAVwindowExtension@@@QAVwindow@@@PAUstateInfo_struct@vpiDomains@@@Z 
01:00037E40 ?classInfo@documentWindow@@SAXPAPB_W0@Z 
01:00037E5C ?new@documentWindow@@SAXQAV1@@@Z 
01:00037ED8 ?new@documentWindow@@SAXQAV1@@QAVwindow@@@@Z 
01:00037EF4 ?_getDefaultDocumentWindowExtension@documentWindow@@SAXQAV1@@PAPAVdocumentWindowExtension@@@@Z 
01:00037F08 ?_getDocumentWindowExtension@documentWindow@@SAXQAV1@@PAPAVdocumentWindowExtension@@@@Z 
01:00037F2C ?setDocumentWindowExtension@documentWindow@@SAXQAV1@@QAVdocumentWindowExtension@@@@Z 
01:00037F50 ?setDrawWindowExtension@documentWindow@@SAXQAVdrawWindow@@@QAVdrawWindowExtension@@@@Z 
01:00037F74 ?wrapVPIWin@documentWindow@@SAXQAV1@@PBUwindowHandle@vpiDomains@@@Z 
01:00037FE8 ?checkTopLevelType@documentWindow@@SAXPBUwindowHandle@@@Z 
01:00038068 ?show@documentWindow@@SAXQAVwindow@@@@Z 
01:00038298 ?_getFullState@documentWindow@@SAXQAV1@@PAUboolean_struct@_builtIn@@PAPAU?$__list_struct@Uwsflag@@@@@Z 
01:000382E0 ?setMaximized@documentWindow@@SAXPAUboolean_struct@_builtIn@@@Z 
01:00038348 ?setMaximized@documentWindow@@SAXPAUboolean_struct@_builtIn@@PBUwindowHandle@vpiDomains@@@Z 
01:0003837C ?getStateOfActive@documentWindow@@SAXAAUwindowHandle@vpiDomains@@PAPAUboolean_struct@_builtIn@@@Z 
--- From 'Obj\messageControl.CCD407ED.obj'
01:00038460 ?isMaximized@documentWindow@@SAXXZ 
--- From 'Obj\gui.B1A70004.obj'
01:0003848C ?_getMaximized@documentWindow@@SAXPAPAUboolean_struct@_builtIn@@@Z  (Idle)
01:000384CC ?activateNextMDI@documentWindow@@SAXXZ  (Idle)
01:000384DC ?activatePreviousMDI@documentWindow@@SAXXZ  (Idle)
01:000384F0 ?activateNextMDI@documentWindow@@SAXH@Z 
01:00038558 ?setMinimized@documentWindow@@SAXQAV1@@PAUboolean_struct@_builtIn@@@Z 
01:00038584 ?isMinimized@documentWindow@@SAXQAV1@@@Z 
01:000385C4 ?_getMinimized@documentWindow@@SAXQAV1@@PAPAUboolean_struct@_builtIn@@@Z 
01:00038608 ?_mdiGetRestoredRect@documentWindow@@SAXQAV1@@PAPAUrct_struct@vpiDomains@@@Z 
01:00038630 ?moveTile@documentWindow@@SAXPAU?$__list_struct@Uinteger@@@@@Z  (Idle)
01:00038640 ?moveCascade@documentWindow@@SAXPAU?$__list_struct@Uinteger@@@@@Z  (Idle)
01:00038650 ?arrangeMinimized@documentWindow@@SAXXZ  (Idle)
01:0003865C ?addActivateListener@documentWindow@@SAXQAV1@@X@Z 
01:0003867C ?removeActivateListener@documentWindow@@SAXQAV1@@X@Z 
01:00038744 ?handleActivate@documentWindow@@SAXQAVdocumentWindowExtension@@@QAV1@@@Z 
01:000387C4 ?addDeactivateListener@documentWindow@@SAXQAV1@@X@Z 
01:000387E4 ?removeDeactivateListener@documentWindow@@SAXQAV1@@X@Z 
01:000388AC ?handleDeactivate@documentWindow@@SAXQAVdocumentWindowExtension@@@QAV1@@@Z 
01:0003892C ?addInitMenuListener@documentWindow@@SAXQAV1@@X@Z 
01:0003894C ?removeInitMenuListener@documentWindow@@SAXQAV1@@X@Z 
01:00038A14 ?handleInitMenu@documentWindow@@SAXQAVdocumentWindowExtension@@@QAV1@@@Z 
01:00038A94 ?isEventHandledInDocumentWindow@documentWindow@@SAXPAUevent_struct@vpiDomains@@@Z 
01:00038ABC ?_dispatchAutoHandler@documentWindow@@SAXQAV1@@PBUwindowHandle@@PAUevent_struct@vpiDomains@@PAH@Z 
01:00038D40 ?_getEventHandler@documentWindow@@SAXQAVwindow@@@PAX@Z 
01:00038D70 ?menuUpdate@documentWindow@@SAXQAV1@@@Z 
01:00038D94 ?menuSetText@documentWindow@@SAXQAV1@@PBUmenuTag@vpiDomains@@PB_W@Z 
01:00038DC0 ?menuSet@documentWindow@@SAXQAV1@@PAUmenu_struct@vpiDomains@@@Z 
01:00038E08 ?_menuGet@documentWindow@@SAXQAV1@@PAPAUmenu_struct@vpiDomains@@@Z 
01:00038E78 ?menuEnable@documentWindow@@SAXQAV1@@PBUmenuTag@vpiDomains@@PAUboolean_struct@_builtIn@@@Z 
01:00038EB8 ?menuCheck@documentWindow@@SAXQAV1@@PBUmenuTag@vpiDomains@@PAUboolean_struct@_builtIn@@@Z 
01:00038EF8 ?addHandler@documentWindow@@SAXQAVwindow@@@X@Z 
01:00038F1C ?removeHandler@documentWindow@@SAXQAVwindow@@@X@Z 
01:00038FE0 ?_new@documentWindow@@SAXPAPAV1@@@Z 
01:00039008 ?_new@documentWindow@@SAXQAVwindow@@@PAPAV1@@@Z  (Idle)
01:00039030 ?_wrapVPIWin@documentWindow@@SAXPBUwindowHandle@vpiDomains@@PAPAV1@@@Z  (Idle)
01:00039058 ?handlePaint@documentWindow@@SAXQAVdrawWindowExtension@@@QAVdrawWindow@@@PAUrct_struct@vpiDomains@@QAVwindowGDI@@@@Z 
01:00039084 ?_handleEraseBackground@documentWindow@@SAXQAVdrawWindowExtension@@@QAVdrawWindow@@@PAPAUeraseBackgroundResponse_struct@3@@Z 
01:000390B0 ?handleMouseDown@documentWindow@@SAXQAVdrawWindowExtension@@@QAVdrawWindow@@@PAUpnt_struct@vpiDomains@@PBUkeyModifier@5@H@Z 
01:000390DC ?handleMouseUp@documentWindow@@SAXQAVdrawWindowExtension@@@QAVdrawWindow@@@PAUpnt_struct@vpiDomains@@PBUkeyModifier@5@H@Z 
01:00039108 ?handleMouseMove@documentWindow@@SAXQAVdrawWindowExtension@@@QAVdrawWindow@@@PAUpnt_struct@vpiDomains@@PBUkeyModifier@5@PAU?$__list_struct@Uinteger@@@@@Z 
01:00039134 ?handleMouseDbl@documentWindow@@SAXQAVdrawWindowExtension@@@QAVdrawWindow@@@PAUpnt_struct@vpiDomains@@PBUkeyModifier@5@H@Z 
01:00039160 ?_handleChar@documentWindow@@SAXQAVdrawWindowExtension@@@QAVdrawWindow@@@HPBUkeyModifier@vpiDomains@@PAPAUcharResponse_struct@3@@Z 
01:0003918C ?_handleKeyDown@documentWindow@@SAXQAVdrawWindowExtension@@@QAVdrawWindow@@@HPBUkeyModifier@vpiDomains@@PAPAUkeyDownResponse_struct@3@@Z 
01:000391B8 ?_handleKeyUp@documentWindow@@SAXQAVdrawWindowExtension@@@QAVdrawWindow@@@HPBUkeyModifier@vpiDomains@@PAPAUkeyUpResponse_struct@3@@Z 
01:000391E4 ?handleVScroll@documentWindow@@SAXQAVdrawWindowExtension@@@QAVdrawWindow@@@PBUscrollCode@vpiDomains@@H@Z 
01:00039210 ?handleHScroll@documentWindow@@SAXQAVdrawWindowExtension@@@QAVdrawWindow@@@PBUscrollCode@vpiDomains@@H@Z 
01:0003923C ?handleShow@documentWindow@@SAXQAVwindowExtension@@@QAVwindow@@@H@Z 
01:00039268 ?handleDestroy@documentWindow@@SAXQAVwindowExtension@@@QAVwindow@@@@Z 
01:00039294 ?handleSize@documentWindow@@SAXQAVwindowExtension@@@QAVwindow@@@HH@Z 
01:000392C0 ?handleMove@documentWindow@@SAXQAVwindowExtension@@@QAVwindow@@@HH@Z 
01:000392EC ?handleFocus@documentWindow@@SAXQAVwindowExtension@@@QAVwindow@@@@Z 
01:00039318 ?handleLoseFocus@documentWindow@@SAXQAVwindowExtension@@@QAVwindow@@@@Z 
01:00039344 ?handleMenuCommand@documentWindow@@SAXQAVwindowExtension@@@QAVwindow@@@PBUmenuTag@vpiDomains@@@Z 
01:00039370 ?handleTimer@documentWindow@@SAXQAVwindowExtension@@@QAVwindow@@@PBUtimerId@vpiDomains@@@Z 
01:0003939C ?_handleNative@documentWindow@@SAXQAVwindowExtension@@@QAVwindow@@@IIHPAPAUnativeResponse_struct@3@@Z 
01:000393C8 ?handleUser@documentWindow@@SAXQAVwindowExtension@@@QAVwindow@@@HH@Z 
01:000393F4 ?handleStateChange@documentWindow@@SAXQAVwindowExtension@@@QAVwindow@@@PAUstateInfo_struct@vpiDomains@@@Z 
01:00039420 ?classInfo@dialog@@SAXPAPB_W0@Z 
01:0003943C ?new@dialog@@SAXQAV1@@@Z 
01:0003951C ?_getDialogExtension@dialog@@SAXQAV1@@PAPAVdialogExtension@@@@Z 
01:00039540 ?_getDefaultDialogExtension@dialog@@SAXQAV1@@PAPAVdialogExtension@@@@Z 
01:00039554 ?setDialogExtension@dialog@@SAXQAV1@@QAVdialogExtension@@@@Z 
01:00039578 ?setDrawWindowExtension@dialog@@SAXQAVdrawWindow@@@QAVdrawWindowExtension@@@@Z 
--- From 'Obj\Forms.80533223.obj'
01:0003959C ?new@dialog@@SAXQAV1@@QAVwindow@@@@Z 
--- From 'Obj\gui.B1A70004.obj'
01:000395B8 ?wrapVPIWin@dialog@@SAXQAV1@@PBUwindowHandle@vpiDomains@@@Z 
01:00039644 ?addListeners@dialog@@SAXQAV1@@@Z 
01:000396D4 ?show@dialog@@SAXQAVwindow@@@@Z 
01:00039818 ?onDialogShow@dialog@@SAXQAV1@@QAVwindow@@@H@Z 
01:00039834 ?onDialogSize@dialog@@SAXQAV1@@QAVwindow@@@@Z 
01:00039840 ?onDialogMove@dialog@@SAXQAV1@@QAVwindow@@@@Z 
01:0003984C ?updateDialogUnitRect@dialog@@SAXQAV1@@@Z 
01:00039894 ?_getEventHandler@dialog@@SAXQAVwindow@@@PAX@Z 
01:000398C4 ?_dialogAutoHandler@dialog@@SAXQAV1@@PBUwindowHandle@@PAUevent_struct@vpiDomains@@PAH@Z 
01:00039A68 ?setModal@dialog@@SAXQAV1@@PAUboolean_struct@_builtIn@@@Z 
01:00039ADC ?_getModal@dialog@@SAXQAV1@@PAPAUboolean_struct@_builtIn@@@Z 
01:00039B00 ?suspendLayout@dialog@@SAXQAV1@@@Z 
01:00039B40 ?isLayoutSuspended@dialog@@SAXQAV1@@@Z 
01:00039B58 ?resumeLayout@dialog@@SAXQAV1@@@Z 
01:00039B90 ?layout@dialog@@SAXQAV1@@@Z 
01:00039BE4 ?moveDialog@dialog@@SAXQAV1@@PBUwindowHandle@vpiDomains@@@Z 
01:00039CA0 ?_adjustRectangleFromParentToScreen@dialog@@SAXQAV1@@PBUwindowHandle@vpiDomains@@PAUrct_struct@4@PAPAU54@@Z 
01:00039ECC ?movePendedControls@dialog@@SAXQAV1@@@Z 
01:00039F84 ?moveControl@dialog@@SAXQAV1@@QAVcontrol@@@@Z 
01:0003A03C ?setUnit@dialog@@SAXQAV1@@PAUunit_struct@1@@Z 
01:0003A0AC ?_getUnit@dialog@@SAXQAV1@@PAPAUunit_struct@1@@Z 
01:0003A0D4 ?setPosition@dialog@@SAXQAV1@@PAUpnt_struct@vpiDomains@@@Z 
01:0003A158 ?setPosition@dialog@@SAXQAV1@@HH@Z 
01:0003A184 ?_getPosition@dialog@@SAXQAV1@@PAPAUpnt_struct@vpiDomains@@@Z 
01:0003A1DC ?getPosition@dialog@@SAXQAV1@@PAHPAH@Z 
01:0003A20C ?setSize@dialog@@SAXQAV1@@HH@Z 
01:0003A294 ?getSize@dialog@@SAXQAV1@@PAHPAH@Z 
01:0003A2E8 ?setWidth@dialog@@SAXQAV1@@H@Z 
01:0003A310 ?_getWidth@dialog@@SAXQAV1@@PAH@Z 
01:0003A330 ?setHeight@dialog@@SAXQAV1@@H@Z 
01:0003A364 ?_getHeight@dialog@@SAXQAV1@@PAH@Z 
01:0003A384 ?setRect@dialog@@SAXQAV1@@PAUrct_struct@vpiDomains@@@Z 
01:0003A3E4 ?_getRect@dialog@@SAXQAV1@@PAPAUrct_struct@vpiDomains@@@Z 
01:0003A3F8 ?_rectUnit2Pixel@dialog@@SAXQAV1@@PAUrct_struct@vpiDomains@@PAPAU34@@Z 
01:0003A444 ?_pntUnit2Pixel@dialog@@SAXQAV1@@PAUpnt_struct@vpiDomains@@PAPAU34@@Z 
01:0003A4A8 ?_rectPixel2Unit@dialog@@SAXQAV1@@PAUrct_struct@vpiDomains@@PAPAU34@@Z 
01:0003A658 ?_pntPixel2Unit@dialog@@SAXQAV1@@PAUpnt_struct@vpiDomains@@PAPAU34@@Z 
01:0003A738 ?pixel2unitFactors@dialog@@SAXQAV1@@PAPAN1@Z 
01:0003A7E4 ?_mapDialogRect@dialog@@SAXQAV1@@HHHHPAPAUrct_struct@vpiDomains@@@Z 
01:0003A8A8 ?_convertVPIWin2dialog@1@SAXPBUwindowHandle@vpiDomains@@PAPAV1@@@Z 
01:0003A91C ?setDefaultButton@dialog@@SAXQAV1@@QAVbutton@@@@Z 
01:0003AAF4 ?onDefaultButtonShow@dialog@@SAXQAV1@@QAVwindow@@@H@Z 
01:0003AB3C ?onDefaultButtonState@dialog@@SAXQAV1@@QAVwindow@@@PAUstateInfo_struct@vpiDomains@@@Z 
01:0003AC80 ?clearAndSetDefaultFlags@dialog@@SAXQAV1@@QAVbutton@@@@Z 
01:0003AD80 ?buttonSetNativeFlag@dialog@@SAXQAVbutton@@@@Z 
01:0003ADC8 ?_tryGetDefaultButton@dialog@@SAXQAV1@@PAPAVbutton@@@@Z 
01:0003AE60 ?initFocus@dialog@@SAXQAV1@@@Z 
01:0003AF84 ?setInitFocus@dialog@@SAXQAV1@@QAVcontrol@@@@Z 
01:0003AFDC ?_tryGetInitFocus@dialog@@SAXQAV1@@PAPAVcontrol@@@@Z 
01:0003B0D0 ?addValidateResponder@dialog@@SAXQAV1@@X@Z 
01:0003B0F0 ?removeValidateResponder@dialog@@SAXQAV1@@X@Z 
01:0003B1B8 ?_validate@dialog@@SAXQAV1@@PAPAUvalidateResult_struct@1@@Z 
01:0003B2EC ?tryValidateWithErrorDialog@dialog@@SAXQAV1@@@Z 
01:0003B360 ?_new@dialog@@SAXPAPAV1@@@Z  (Idle)
01:0003B388 ?_new@dialog@@SAXQAVwindow@@@PAPAV1@@@Z  (Idle)
01:0003B3B0 ?_wrapVPIWin@dialog@@SAXPBUwindowHandle@vpiDomains@@PAPAV1@@@Z 
01:0003B3D8 ?_object_facts_initializer@dialog@@SGXQAV1@@@Z 
01:0003B408 ?handlePaint@dialog@@SAXQAVdrawWindowExtension@@@QAVdrawWindow@@@PAUrct_struct@vpiDomains@@QAVwindowGDI@@@@Z 
01:0003B434 ?_handleEraseBackground@dialog@@SAXQAVdrawWindowExtension@@@QAVdrawWindow@@@PAPAUeraseBackgroundResponse_struct@3@@Z 
01:0003B460 ?handleMouseDown@dialog@@SAXQAVdrawWindowExtension@@@QAVdrawWindow@@@PAUpnt_struct@vpiDomains@@PBUkeyModifier@5@H@Z 
01:0003B48C ?handleMouseUp@dialog@@SAXQAVdrawWindowExtension@@@QAVdrawWindow@@@PAUpnt_struct@vpiDomains@@PBUkeyModifier@5@H@Z 
01:0003B4B8 ?handleMouseMove@dialog@@SAXQAVdrawWindowExtension@@@QAVdrawWindow@@@PAUpnt_struct@vpiDomains@@PBUkeyModifier@5@PAU?$__list_struct@Uinteger@@@@@Z 
01:0003B4E4 ?handleMouseDbl@dialog@@SAXQAVdrawWindowExtension@@@QAVdrawWindow@@@PAUpnt_struct@vpiDomains@@PBUkeyModifier@5@H@Z 
01:0003B510 ?_handleChar@dialog@@SAXQAVdrawWindowExtension@@@QAVdrawWindow@@@HPBUkeyModifier@vpiDomains@@PAPAUcharResponse_struct@3@@Z 
01:0003B53C ?_handleKeyDown@dialog@@SAXQAVdrawWindowExtension@@@QAVdrawWindow@@@HPBUkeyModifier@vpiDomains@@PAPAUkeyDownResponse_struct@3@@Z 
01:0003B568 ?_handleKeyUp@dialog@@SAXQAVdrawWindowExtension@@@QAVdrawWindow@@@HPBUkeyModifier@vpiDomains@@PAPAUkeyUpResponse_struct@3@@Z 
01:0003B594 ?handleVScroll@dialog@@SAXQAVdrawWindowExtension@@@QAVdrawWindow@@@PBUscrollCode@vpiDomains@@H@Z 
01:0003B5C0 ?handleHScroll@dialog@@SAXQAVdrawWindowExtension@@@QAVdrawWindow@@@PBUscrollCode@vpiDomains@@H@Z 
01:0003B5EC ?handleShow@dialog@@SAXQAVwindowExtension@@@QAVwindow@@@H@Z 
01:0003B618 ?handleDestroy@dialog@@SAXQAVwindowExtension@@@QAVwindow@@@@Z 
01:0003B644 ?handleSize@dialog@@SAXQAVwindowExtension@@@QAVwindow@@@HH@Z 
01:0003B670 ?handleMove@dialog@@SAXQAVwindowExtension@@@QAVwindow@@@HH@Z 
01:0003B69C ?handleFocus@dialog@@SAXQAVwindowExtension@@@QAVwindow@@@@Z 
01:0003B6C8 ?handleLoseFocus@dialog@@SAXQAVwindowExtension@@@QAVwindow@@@@Z 
01:0003B6F4 ?handleMenuCommand@dialog@@SAXQAVwindowExtension@@@QAVwindow@@@PBUmenuTag@vpiDomains@@@Z 
01:0003B720 ?handleTimer@dialog@@SAXQAVwindowExtension@@@QAVwindow@@@PBUtimerId@vpiDomains@@@Z 
01:0003B74C ?_handleNative@dialog@@SAXQAVwindowExtension@@@QAVwindow@@@IIHPAPAUnativeResponse_struct@3@@Z 
01:0003B778 ?handleUser@dialog@@SAXQAVwindowExtension@@@QAVwindow@@@HH@Z 
01:0003B7A4 ?handleStateChange@dialog@@SAXQAVwindowExtension@@@QAVwindow@@@PAUstateInfo_struct@vpiDomains@@@Z 
01:0003B7D0 ?classInfo@childWindow@@SAXPAPB_W0@Z  (Idle)
01:0003B7EC ?new@childWindow@@SAXQAV1@@@Z 
01:0003B7F4 ?new@childWindow@@SAXQAV1@@QAVwindow@@@@Z 
01:0003B81C ?show@childWindow@@SAXQAVwindow@@@@Z 
01:0003B8CC ?_new@childWindow@@SAXPAPAV1@@@Z  (Idle)
01:0003B8F4 ?_new@childWindow@@SAXQAVwindow@@@PAPAV1@@@Z  (Idle)
01:0003B91C ?new@applicationWindow@@SAXQAV1@@@Z 
01:0003B98C ?newFromVpi@applicationWindow@@SAXQAV1@@PBUwindowHandle@vpiDomains@@@Z 
01:0003B9A8 ?ensureSingleton@applicationWindow@@SAXQAV1@@@Z 
--- From 'Obj\errorPresentationDialog.9174D14B.obj'
01:0003BA18 ?_tryGet@applicationWindow@@SAXPAPAV1@@@Z 
01:0003BA84 ?_get@applicationWindow@@SAXPAPAV1@@@Z 
--- From 'Obj\gui.B1A70004.obj'
01:0003BAE8 ?_getParent@applicationWindow@@SAXQAVwindow@@@PAPAV2@@@Z 
01:0003BAFC ?setParent@applicationWindow@@SAXQAVwindow@@@0@Z 
01:0003BB14 ?setMdiProperty@applicationWindow@@SAXQAV1@@PAUboolean_struct@_builtIn@@@Z 
01:0003BB70 ?_getMdiProperty@applicationWindow@@SAXQAV1@@PAPAUboolean_struct@_builtIn@@@Z 
01:0003BB90 ?setMaximized@applicationWindow@@SAXQAV1@@PAUboolean_struct@_builtIn@@@Z 
01:0003BBBC ?_getMaximized@applicationWindow@@SAXQAV1@@PAPAUboolean_struct@_builtIn@@@Z 
01:0003BC18 ?isMaximized@applicationWindow@@SAXQAV1@@@Z 
01:0003BC58 ?getMdiClientSize@applicationWindow@@SAXQAV1@@AAUpositive@@1@Z 
01:0003BD18 ?show@applicationWindow@@SAXQAVwindow@@@@Z 
01:0003BDE8 ?setErrorResponder@applicationWindow@@SAXQAV1@@X@Z 
01:0003BE28 ?_getErrorResponder@applicationWindow@@SAXQAV1@@PAX@Z 
01:0003BE3C ?internalGuiErrorHandler@applicationWindow@@SAXQAV1@@PBUwindowHandle@@PBUtraceId@@@Z 
01:0003BE80 ?_getEndSessionResponder@applicationWindow@@SAXQAV1@@PAX@Z 
01:0003BE94 ?setEndSessionResponder@applicationWindow@@SAXQAV1@@X@Z 
01:0003BEA8 ?resetEndSessionResponder@applicationWindow@@SAXQAV1@@@Z 
01:0003BEBC ?_defaultEndSessionResponder@applicationWindow@@SAXQAV1@@PAUboolean_struct@_builtIn@@PAPAUendSessionResponse_struct@1@@Z 
01:0003BED0 ?_dispatchEnd@applicationWindow@@SAXQAV1@@PBUwindowHandle@@PAUevent_struct@vpiDomains@@PAH@Z 
01:0003BF44 ?classInfo@applicationWindow@@SAXPAPB_W0@Z 
01:0003BF60 ?_new@applicationWindow@@SAXPAPAV1@@@Z  (Idle)
01:0003BF88 ?_newFromVpi@applicationWindow@@SAXPBUwindowHandle@vpiDomains@@PAPAV1@@@Z 
01:0003BFB0 ?_object_facts_initializer@applicationWindow@@SGXQAV1@@@Z 
--- From 'Obj\controlSupport.99797704.obj'
01:0003C05C window?_initObject@@@QAGXQAV1@H@Z 
--- From 'Obj\gui.B1A70004.obj'
01:0003C088 ?@create_object@window@@SGQAV1@@XZ 
--- From 'Obj\controlSupport.99797704.obj'
01:0003C0A4 window?_InternalFinalizer@@@QAGXQAV1@@Z 
--- From 'Obj\gui.B1A70004.obj'
01:0003D774 popupWindow?_initObject@@@QAGXQAV1@H@Z 
01:0003D7B8 ?@create_object@popupWindow@@SGQAV1@@XZ 
01:0003D7D4 popupWindow?_InternalFinalizer@@@QAGXQAV1@@Z 
01:0003DF78 pictureCanvas?_initObject@@@QAGXQAV1@H@Z 
01:0003DF9C ?@create_object@pictureCanvas@@SGQAV1@@XZ 
01:0003DFB8 pictureCanvas?_InternalFinalizer@@@QAGXQAV1@@Z 
01:0003DFCC frameDecoration?_initObject@@@QAGXQAV1@H@Z 
01:0003DFEC ?@create_object@frameDecoration@@SGQAV1@@XZ 
01:0003E008 frameDecoration?_InternalFinalizer@@@QAGXQAV1@@Z 
--- From 'Obj\Forms.80533223.obj'
01:00040258 formWindow?_initObject@@@QAGXQAV1@H@Z 
--- From 'Obj\gui.B1A70004.obj'
01:0004029C ?@create_object@formWindow@@SGQAV1@@XZ 
--- From 'Obj\Forms.80533223.obj'
01:000402B8 formWindow?_InternalFinalizer@@@QAGXQAV1@@Z 
--- From 'Obj\controlSupport.99797704.obj'
01:00040C7C drawWindow?_initObject@@@QAGXQAV1@H@Z 
--- From 'Obj\gui.B1A70004.obj'
01:00040CC0 ?@create_object@drawWindow@@SGQAV1@@XZ 
--- From 'Obj\controlSupport.99797704.obj'
01:00040CDC drawWindow?_InternalFinalizer@@@QAGXQAV1@@Z 
--- From 'Obj\gui.B1A70004.obj'
01:000419F0 documentWindow?_initObject@@@QAGXQAV1@H@Z 
01:00041A40 ?@create_object@documentWindow@@SGQAV1@@XZ 
01:00041A5C documentWindow?_InternalFinalizer@@@QAGXQAV1@@Z 
--- From 'Obj\Forms.80533223.obj'
01:000433A8 dialog?_initObject@@@QAGXQAV1@H@Z 
--- From 'Obj\gui.B1A70004.obj'
01:00043410 ?@create_object@dialog@@SGQAV1@@XZ 
--- From 'Obj\Forms.80533223.obj'
01:0004342C dialog?_InternalFinalizer@@@QAGXQAV1@@Z 
--- From 'Obj\gui.B1A70004.obj'
01:00043EE0 childWindow?_initObject@@@QAGXQAV1@H@Z 
01:00043F08 ?@create_object@childWindow@@SGQAV1@@XZ 
01:00043F24 childWindow?_InternalFinalizer@@@QAGXQAV1@@Z 
01:00044BCC applicationWindow?_initObject@@@QAGXQAV1@H@Z 
01:00044C10 ?@create_object@applicationWindow@@SGQAV1@@XZ 
01:00044C2C applicationWindow?_InternalFinalizer@@@QAGXQAV1@@Z 
--- From 'Obj\guiSupport.38798E3B.obj'
01:00044C40 ?classInfo@guiSupport_exception@@SAXPAPB_W0@Z 
--- From 'Obj\controlSupport.99797704.obj'
01:00044C5C ?raise_ControlHasNoContainerException@guiSupport_exception@@SAXXQAVcontrol@@@@Z 
01:00044CE0 ?raise_CouldNotChangeContainerException@guiSupport_exception@@SAXXQAVcontrol@@@@Z 
--- From 'Obj\guiSupport.38798E3B.obj'
01:00044D64 ?raise_ControlDoesNotBelongToContainerException@guiSupport_exception@@SAXXQAVcontrol@@@@Z 
01:00044DE8 ?raise_ControlAlreadyExistsInContainerException@guiSupport_exception@@SAXXQAVcontrol@@@@Z 
01:00044E6C ?controlHasNoContainer_exception@guiSupport_exception@@SAXPAXPAPB_W1@Z 
01:00044E94 ?couldNotChangeContainer_exception@guiSupport_exception@@SAXPAXPAPB_W1@Z 
01:00044EBC ?controlDoesNotBelongToContainer_exception@guiSupport_exception@@SAXPAXPAPB_W1@Z 
01:00044EE4 ?controlAlreadyExistsInContainer_exception@guiSupport_exception@@SAXPAXPAPB_W1@Z 
01:00044F0C ?classInfo@containerWindowSupport@@SAXPAPB_W0@Z 
--- From 'Obj\controlSupport.99797704.obj'
01:00044F28 ?new@containerWindowSupport@@SAXQAV1@@QAVcontainerWindow@@@@Z 
--- From 'Obj\guiSupport.38798E3B.obj'
01:00044FF4 ?anonymous$1$42_30$oncontainershow/2@containerWindowSupport@@SAXPAUanonymous$1$42_30$oncontainershow/2c_struct@1@@Z 
01:00045028 ?onContainerShow@containerWindowSupport@@SAXQAV1@@QAVwindow@@@H@Z 
01:0004507C ?createControls@containerWindowSupport@@SAXQAV1@@@Z 
01:00045114 ?_onControlHandler@containerWindowSupport@@SAXQAV1@@PBUwindowHandle@@PAUevent_struct@vpiDomains@@PAH@Z 
01:000451C8 ?_onNativeEvent@containerWindowSupport@@SAXQAV1@@QAVwindow@@@IIHPAPAUnativeResponse_struct@3@@Z 
01:000453E4 ?addControl@containerWindowSupport@@SAXQAV1@@QAVcontrol@@@H@Z 
01:0004541C ?_addControl@containerWindowSupport@@SAXQAV1@@QAVcontrol@@@PAH@Z 
01:000455B8 ?delControl@containerWindowSupport@@SAXQAV1@@QAVcontrol@@@@Z 
01:0004576C ?delContainerControl@containerWindowSupport@@SAXQAV1@@QAVcontrol@@@@Z 
01:00045880 ?_addContainerControl@containerWindowSupport@@SAXQAV1@@QAVcontainerControl@@@PAH@Z 
01:000458C4 ?_getContainerControl_nd@containerWindowSupport@@SAXQAV1@@PAPAVcontainerControl@@@@Z 
01:00045910 ?_tryGetControl@containerWindowSupport@@SAXQAV1@@PAPAVcontrol@@@@Z 
01:0004591C ?setGroupIfFirstControl@containerWindowSupport@@SAXQAV1@@QAVcontrol@@@@Z 
01:00045974 ?setGroupIfPreviousIsContainer@containerWindowSupport@@SAXQAV1@@QAVcontrol@@@@Z 
01:000459D4 ?isContainer@containerWindowSupport@@SAXQAVcontrol@@@@Z 
01:00045A2C ?preventRadioButtonBeforeContainer@containerWindowSupport@@SAXQAV1@@QAVcontrol@@@@Z 
01:00045AA4 ?_lookupControl_dt@containerWindowSupport@@SAXQAV1@@HPAPAVcontrol@@@@Z 
01:00045B20 ?_lookupNestedControl_dt@containerWindowSupport@@SAXQAV1@@HPAPAVcontrol@@@@Z 
01:00045BB4 ?getControl_nd@containerWindowSupport@@SAXQAV1@@PAPAVcontrol@@@PAH@Z 
01:00045C7C ?_getControl_nd@containerWindowSupport@@SAXQAV1@@PAPAVcontrol@@@@Z 
01:00045CA0 ?_getNestedControl_nd@containerWindowSupport@@SAXQAV1@@PAPAVcontrol@@@@Z 
01:00045CF8 ?_getNestedControl_nd@containerWindowSupport@@SAXQAV1@@QAVcontrol@@@PAPAV3@@@Z 
01:00045DC4 ?_tryGetPreviousControl@containerWindowSupport@@SAXQAV1@@QAVcontrol@@@PAPAV3@@@Z 
01:00045E3C ?_tryGetNextControl@containerWindowSupport@@SAXQAV1@@QAVcontrol@@@PAPAV3@@@Z 
01:00045EA0 ?_getRadioButtonGroup@containerWindowSupport@@SAXQAV1@@PAPAVradioButtonGroup@@@@Z 
01:00045F10 ?_new@containerWindowSupport@@SAXQAVcontainerWindow@@@PAPAV1@@@Z  (Idle)
01:00045F38 ?_object_facts_initializer@containerWindowSupport@@SGXQAV1@@@Z 
01:00045F54 $pairMember_dt$containerWindowSupport$predicate$(i,o,i)$c$_m21 
01:00045FBC $pairMember_dt$containerWindowSupport$predicate$(i,i,o)$c$_m21 
--- From 'Obj\controlSupport.99797704.obj'
01:0004602C containerWindowSupport?_initObject@@@QAGXQAV1@H@Z 
--- From 'Obj\guiSupport.38798E3B.obj'
01:0004604C ?@create_object@containerWindowSupport@@SGQAV1@@XZ 
--- From 'Obj\controlSupport.99797704.obj'
01:00046068 containerWindowSupport?_InternalFinalizer@@@QAGXQAV1@@Z 
--- From 'Obj\programControl.5C33CA36.obj'
01:00046080 ?setRuntimeExceptionRaiser@programControl@@SAXXPAX@Z 
01:000460BC ?RemoveMe  (Idle)
01:000460CC ?classInfo@programControl@@SAXPAPB_W0@Z  (Idle)
--- From 'Obj\vpiDomains.B56FBBDF.obj'
01:000460F0 ?classInfo@vpiOwnerDraw@@SAXPAPB_W0@Z  (Idle)
--- From 'Obj\exe_api.E28F9DF0.obj'
01:00046110 ?_getModuleNameByAddress@exe_api@@SAXPBUhModule@@PAPB_W@Z 
01:000461C8 ?_isOSConsoleApplication@exe_api@@SAXPB_WPAPAUboolean_struct@_builtIn@@@Z  (Idle)
01:00046390 ?coInitialize@exe_api@@SAXPAU?$__list_struct@UcoInit@@@@@Z 
01:00046430 ?coUninitialize@exe_api@@SAXXZ 
01:0004643C ?_toCoInitFlag@exe_api@@SAXPAU?$__list_struct@UcoInit@@@@PAI@Z 
01:0004649C ?_coInitMap@exe_api@@SAXPAUcoInit_struct@1@PAI@Z 
01:000464D8 ?classInfo@exe_api@@SAXPAPB_W0@Z 
--- From 'Obj\messageControl.CCD407ED.obj'
01:00046500 ?classInfo@messageForm@@SAXPAPB_W0@Z 
01:0004651C ?new@messageForm@@SAXQAV1@@QAVapplicationWindow@@@@Z 
01:000466E8 ?_display@messageForm@@SAXQAVapplicationWindow@@@PAPAV1@@@Z 
01:00046710 ?show@messageForm@@SAXQAVwindow@@@@Z 
01:0004674C ?focusListener@messageForm@@SAXQAV1@@QAVwindow@@@@Z 
01:000467B8 ?resizeListener@messageForm@@SAXQAV1@@QAVwindow@@@@Z 
01:00046840 ?onParentResize@messageForm@@SAXQAV1@@QAVwindow@@@@Z 
01:00046908 ?onUserParentResize@messageForm@@SAXQAV1@@QAVwindow@@@HH@Z 
01:00046968 ?resizeMessageForm@messageForm@@SAXQAV1@@HH@Z 
01:000469E8 ?_calculateY@messageForm@@SAXPAUverticalSize_struct@1@HPAH@Z 
01:00046AA8 ?setVerticalSize@messageForm@@SAXQAV1@@PAUverticalSize_struct@1@@Z 
01:00046B18 ?_getVerticalSize@messageForm@@SAXQAV1@@PAPAUverticalSize_struct@1@@Z 
01:00046B2C ?onDestroy@messageForm@@SAXQAV1@@QAVwindow@@@@Z 
01:00046B7C ?_getOutputStream@messageForm@@SAXQAV1@@PAPAVoutputStream@@@@Z 
01:00046BAC ?badRatio_exception@messageForm@@SAXPAXPAPB_W1@Z 
01:00046BD4 ?_getMessageControl@messageForm@@SAXQAV1@@PAPAVmessageControl@@@@Z 
01:00046BF8 ?_new@messageForm@@SAXQAVapplicationWindow@@@PAPAV1@@@Z 
01:00046C20 ?_object_facts_initializer@messageForm@@SGXQAV1@@@Z 
01:00046C60 ?classInfo@messageControl@@SAXPAPB_W0@Z  (Idle)
01:00046C7C ?new@messageControl@@SAXQAV1@@@Z 
01:00046E24 ?new@messageControl@@SAXQAV1@@QAVcontainerWindow@@@@Z 
01:00046E40 ?getBuffer@messageControl@@SGXQAVbufferSupport@@@PAPAXAAUbyteCount@@@Z 
01:00046EA8 ?getBufferLocked@messageControl@@SGXQAVbufferSupport@@@PAPAXAAUbyteCount@@@Z 
01:00046EC4 ?show@messageControl@@SAXQAVwindow@@@@Z 
01:000470C4 ?setLines@messageControl@@SAXQAV1@@PBUpositive@@@Z 
01:000470D8 ?clear@messageControl@@SAXQAV1@@@Z 
01:00047110 ?setReadonly@messageControl@@SAXQAV1@@PAUboolean_struct@_builtIn@@@Z 
01:00047180 ?bufferFullCallBack@messageControl@@SAXQAV1@@PBUbyteCount@@@Z 
01:000472A4 ?writeZero@messageControl@@SAXPAXPBUbyteCount@@@Z 
01:000472EC ?_copy_possible@messageControl@@SAXQAV1@@AAUbooleanInt@@@Z 
01:0004733C ?_onControlNative@messageControl@@SAXQAV1@@QAVwindow@@@IIHPAPAUnativeResponse_struct@3@@Z 
01:00047490 ?_onContextMenu@messageControl@@SAXQAV1@@QAVwindow@@@PAUcontextMenuInput_struct@3@PAPAUcontextMenuResponse_struct@3@@Z 
01:00047564 ?onMenu@messageControl@@SAXQAV1@@QAVwindow@@@PBUmenuTag@@@Z 
01:0004764C ?_getOutputStream@messageControl@@SAXQAV1@@PAPAVoutputStream@@@@Z 
01:00047670 ?_new@messageControl@@SAXQAVcontainerWindow@@@PAPAV1@@@Z 
01:00047698 ?_new@messageControl@@SAXPAPAV1@@@Z  (Idle)
01:000476C0 ?_object_facts_initializer@messageControl@@SGXQAV1@@@Z 
01:00049CC8 messageForm?_initObject@@@QAGXQAV1@H@Z 
01:00049D0C ?@create_object@messageForm@@SGQAV1@@XZ 
01:00049D28 messageForm?_InternalFinalizer@@@QAGXQAV1@@Z 
01:0004A988 messageControl?_initObject@@@QAGXQAV1@H@Z 
01:0004A9D8 ?@create_object@messageControl@@SGQAV1@@XZ 
01:0004A9F4 messageControl?_InternalFinalizer@@@QAGXQAV1@@Z 
--- From 'Obj\stream.9636460D.obj'
01:0004AA10 ?classInfo@stream_exception@@SAXPAPB_W0@Z 
--- From 'Obj\binary.9ACBD368.obj'
01:0004AA2C ?raise_EndOfStream@stream_exception@@SAXX@Z 
--- From 'Obj\outputStreamSupport.2B16F673.obj'
01:0004AA44 ?raise_notSupportedProperty@stream_exception@@SAXX@Z 
01:0004AA5C ?raise_NoCRLFconversion@stream_exception@@SAXX@Z 
--- From 'Obj\inputStreamSupport.AAEBD08D.obj'
01:0004AA74 ?raise_WrongMode@stream_exception@@SAXXPB_W1@Z 
--- From 'Obj\stream.9636460D.obj'
01:0004AB38 ?raise_NoStream@stream_exception@@SAXXPB_W@Z 
01:0004ABAC ?endOfStream@stream_exception@@SAXPAXPAPB_W1@Z 
01:0004ABD4 ?notSupportedProperty@stream_exception@@SAXPAXPAPB_W1@Z 
01:0004ABFC ?noCRLFconversion@stream_exception@@SAXPAXPAPB_W1@Z 
01:0004AC24 ?wrongMode@stream_exception@@SAXPAXPAPB_W1@Z 
01:0004AC4C ?noStream@stream_exception@@SAXPAXPAPB_W1@Z 
01:0004AC74 ?classInfo@stdioState@@SAXPAPB_W0@Z 
01:0004AC90 ?setInputStream@stdioState@@SAXQAV1@@QAVinputStream@@@@Z 
01:0004ACB8 ?_getInputStream@stdioState@@SAXQAV1@@PAPAVinputStream@@@@Z 
01:0004ACF4 ?_tryGetInputStream@stdioState@@SAXQAV1@@PAPAVinputStream@@@@Z 
01:0004AD18 ?setOutputStream@stdioState@@SAXQAV1@@QAVoutputStream@@@@Z 
01:0004AD40 ?_getOutputStream@stdioState@@SAXQAV1@@PAPAVoutputStream@@@@Z 
01:0004AD7C ?_tryGetOutputStream@stdioState@@SAXQAV1@@PAPAVoutputStream@@@@Z 
01:0004ADA0 ?setErrorStream@stdioState@@SAXQAV1@@QAVoutputStream@@@@Z 
01:0004ADC8 ?_getErrorStream@stdioState@@SAXQAV1@@PAPAVoutputStream@@@@Z 
01:0004AE04 ?_tryGetErrorStream@stdioState@@SAXQAV1@@PAPAVoutputStream@@@@Z 
01:0004AE28 ?new@stdioState@@SAXQAV1@@@Z 
01:0004AE30 ?_new@stdioState@@SAXPAPAV1@@@Z 
01:0004AE58 ?setInputStream@stdio@@SAXQAVinputStream@@@@Z  (Idle)
01:0004AE80 ?_getInputStream@stdio@@SAXPAPAVinputStream@@@@Z  (Idle)
01:0004AEA8 ?_tryGetInputStream@stdio@@SAXPAPAVinputStream@@@@Z  (Idle)
01:0004AED0 ?setOutputStream@stdio@@SAXQAVoutputStream@@@@Z 
01:0004AEF8 ?_getOutputStream@stdio@@SAXPAPAVoutputStream@@@@Z  (Idle)
--- From 'Obj\exceptionDump.EEBF2A9C.obj'
01:0004AF20 ?_tryGetOutputStream@stdio@@SAXPAPAVoutputStream@@@@Z 
--- From 'Obj\stream.9636460D.obj'
01:0004AF48 ?setErrorStream@stdio@@SAXQAVoutputStream@@@@Z  (Idle)
01:0004AF70 ?_getErrorStream@stdio@@SAXPAPAVoutputStream@@@@Z  (Idle)
01:0004AF98 ?_tryGetErrorStream@stdio@@SAXPAPAVoutputStream@@@@Z  (Idle)
--- From 'Obj\DataBase.D5FA3BBF.obj'
01:0004AFC0 ?write@stdio@@SAXXZ 
--- From 'Obj\stream.9636460D.obj'
01:0004AFFC ?writef@stdio@@SAXPB_W@Z  (Idle)
01:0004B040 ?writeBytes@stdio@@SAXPAXPBUbyteCount@@@Z  (Idle)
01:0004B070 ?writeQuoted@stdio@@SAXXZ  (Idle)
--- From 'Obj\DataBase.D5FA3BBF.obj'
01:0004B0AC ?nl@stdio@@SAXXZ 
--- From 'Obj\stream.9636460D.obj'
01:0004B0D4 ?save@stdio@@SAXPBUfactDB@@@Z  (Idle)
01:0004B100 ?flush@stdio@@SAXXZ  (Idle)
01:0004B128 ?write_error@stdio@@SAXXZ  (Idle)
01:0004B164 ?writef_error@stdio@@SAXPB_W@Z  (Idle)
01:0004B1A8 ?writeBytes_error@stdio@@SAXPAXPBUbyteCount@@@Z  (Idle)
01:0004B1D8 ?writeQuoted_error@stdio@@SAXXZ  (Idle)
01:0004B214 ?nl_error@stdio@@SAXXZ  (Idle)
01:0004B23C ?save_error@stdio@@SAXPBUfactDB@@@Z  (Idle)
01:0004B268 ?flush_error@stdio@@SAXXZ  (Idle)
01:0004B290 ?_read@stdio@@SAXQAVrTypeLibrary@TypeLibraries@RunTime@VIP@@PAPAX@Z  (Idle)
01:0004B2D4 ?_readChar@stdio@@SAXPA_W@Z  (Idle)
01:0004B310 ?ungetChar@stdio@@SAXXZ  (Idle)
01:0004B33C ?_readLine@stdio@@SAXPAPB_W@Z  (Idle)
01:0004B378 ?_readString@stdio@@SAXPBUcharCount@@PAPB_W@Z  (Idle)
01:0004B3BC ?_readBytes@stdio@@SAXPBUbyteCount@@QAPAE@Z  (Idle)
01:0004B400 ?consult@stdio@@SAXPBUfactDB@@@Z  (Idle)
01:0004B43C ?endOfStream@stdio@@SAXXZ  (Idle)
01:0004B468 ?_getOutputStream@stdio@@SAXPB_WPAPAVoutputStream@@@@Z 
01:0004B4B0 ?_getErrorStream@stdio@@SAXPB_WPAPAVoutputStream@@@@Z 
01:0004B4F8 ?_getInputStream@stdio@@SAXPB_WPAPAVinputStream@@@@Z 
01:0004B540 ?classInfo@stdio@@SAXPAPB_W0@Z 
01:0004B55C ?_class_facts_initializer@stdio@@SGXXZ 
01:0004B584 ?stdioState@stdio@@SGXQAV0@@@Z  (Idle)
01:0004B590 ?stdioState@stdio@@SGQAV0@@XZ  (Idle)
01:0004B598 ?new@outputStream_null@@SAXQAV1@@@Z 
01:0004B5A0 ?getPosition@outputStream_null@@SGPBUfileSize@fileSystem_api@@QAVstream@@@@Z 
01:0004B5A8 ?setPosition@outputStream_null@@SGXQAVstream@@@PBUfileSize@fileSystem_api@@@Z 
01:0004B5B8 ?getCRLFconversion@outputStream_null@@SGPAUboolean_struct@_builtIn@@QAVstream@@@@Z 
01:0004B5C0 ?setCRLFconversion@outputStream_null@@SGXQAVstream@@@PAUboolean_struct@_builtIn@@@Z 
01:0004B5D0 ?close@outputStream_null@@SGXQAVstream@@@@Z 
01:0004B5E0 ?setMode@outputStream_null@@SGXQAVstream@@@PAUmode_struct@2@@Z 
01:0004B5F0 ?getMode@outputStream_null@@SGPAUmode_struct@stream@@QAV3@@@Z 
01:0004B5F8 ?write@outputStream_null@@SAXQAVoutputStream@@@@Z 
01:0004B600 ?writeQuoted@outputStream_null@@SAXQAVoutputStream@@@@Z 
01:0004B608 ?writeBytes@outputStream_null@@SGXQAVoutputStream@@@PAXPBUbyteCount@@@Z 
01:0004B618 ?writef@outputStream_null@@SAXQAVoutputStream@@@PB_W@Z 
01:0004B620 ?nl@outputStream_null@@SGXQAVoutputStream@@@@Z 
01:0004B630 ?save@outputStream_null@@SGXQAVoutputStream@@@PBUfactDB@@@Z 
01:0004B640 ?flush@outputStream_null@@SGXQAVoutputStream@@@@Z 
01:0004B650 ?classInfo@outputStream_null@@SAXPAPB_W0@Z  (Idle)
01:0004B66C ?_new@outputStream_null@@SAXPAPAVoutputStream@@@@Z 
01:0004B694 ?_class_facts_initializer@outputStream_null@@SGXXZ 
01:0004B6BC ?null@outputStream_0@SGQAVoutputStream@@@XZ  (Idle)
01:0004B6C4 ?new@inputStream_null@@SAXQAV1@@@Z 
01:0004B6CC ?getPosition@inputStream_null@@SGPBUfileSize@fileSystem_api@@QAVstream@@@@Z 
01:0004B6D4 ?setPosition@inputStream_null@@SGXQAVstream@@@PBUfileSize@fileSystem_api@@@Z 
01:0004B6E4 ?getCRLFconversion@inputStream_null@@SGPAUboolean_struct@_builtIn@@QAVstream@@@@Z 
01:0004B6EC ?setCRLFconversion@inputStream_null@@SGXQAVstream@@@PAUboolean_struct@_builtIn@@@Z 
01:0004B6FC ?close@inputStream_null@@SGXQAVstream@@@@Z 
01:0004B70C ?setMode@inputStream_null@@SGXQAVstream@@@PAUmode_struct@2@@Z 
01:0004B71C ?getMode@inputStream_null@@SGPAUmode_struct@stream@@QAV3@@@Z 
01:0004B724 ?_read@inputStream_null@@SAXQAVinputStream@@@QAVrTypeLibrary@TypeLibraries@RunTime@VIP@@PAPAX@Z 
01:0004B734 ?_readBytes@inputStream_null@@SAXQAVinputStream@@@PBUbyteCount@@QAPAE@Z 
01:0004B744 ?_readString@inputStream_null@@SAXQAVinputStream@@@PBUcharCount@@PAPB_W@Z 
01:0004B754 ?_readChar@inputStream_null@@SAXQAVinputStream@@@PA_W@Z 
01:0004B764 ?ungetChar@inputStream_null@@SAXQAVinputStream@@@@Z 
01:0004B774 ?_readLine@inputStream_null@@SAXQAVinputStream@@@PAPB_W@Z 
01:0004B784 ?consult@inputStream_null@@SAXQAVinputStream@@@PBUfactDB@@@Z 
01:0004B794 ?reconsult@inputStream_null@@SAXQAVinputStream@@@PBUfactDB@@@Z 
01:0004B7A4 ?endOfStream@inputStream_null@@SAXQAVinputStream@@@@Z 
01:0004B7AC ?exhausted@inputStream_null@@SAXXZ 
01:0004B7E4 ?classInfo@inputStream_null@@SAXPAPB_W0@Z 
01:0004B800 ?_new@inputStream_null@@SAXPAPAVinputStream@@@@Z 
01:0004B828 ?_class_facts_initializer@inputStream_null@@SGXXZ 
01:0004B850 ?null@inputStream_0@SGQAVinputStream@@@XZ  (Idle)
01:0004B860 stdioState?_initObject@@@QAGXQAV1@H@Z 
01:0004B874 ?@create_object@stdioState@@SGQAV1@@XZ 
01:0004B890 stdioState?_InternalFinalizer@@@QAGXQAV1@@Z 
01:0004B8A4 outputStream_null?_initObject@@@QAGXQAV1@H@Z 
01:0004B8B4 ?@create_object@outputStream_null@@SGQAV1@@XZ 
01:0004B8D0 outputStream_null?_InternalFinalizer@@@QAGXQAV1@@Z 
01:0004B8E4 inputStream_null?_initObject@@@QAGXQAV1@H@Z 
01:0004B8F4 ?@create_object@inputStream_null@@SGQAV1@@XZ 
01:0004B910 inputStream_null?_InternalFinalizer@@@QAGXQAV1@@Z 
--- From 'Obj\vpi.DCC9845E.obj'
01:0004B920 ?classInfo@vpiDde@@SAXPAPB_W0@Z  (Idle)
01:0004B93C ?classInfo@vpiCommonDialogs@@SAXPAPB_W0@Z  (Idle)
01:0004B958 ?_getString@vpiCommonDialogs@@SAXPB_W00PAPB_W@Z  (Idle)
01:0004B9A4 ?_getString@vpiCommonDialogs@@SAXPBUwindowHandle@vpiDomains@@PB_W11PAPB_W@Z 
01:0004BB70 ?_dlg_getstring_eh@vpiCommonDialogs@@SAXPBUwindowHandle@@PAUevent_struct@vpiDomains@@PAH@Z 
01:0004BBD8 ?ok_getstring@vpiCommonDialogs@@SAXPBUwindowHandle@vpiDomains@@@Z 
01:0004BC24 ?init_getstring@vpiCommonDialogs@@SAXPBUwindowHandle@vpiDomains@@@Z 
01:0004BC58 ?_ask@vpiCommonDialogs@@SAXPB_WPAU?$__list_struct@Ustring@@@@PAH@Z  (Idle)
01:0004BCA4 ?_ask@vpiCommonDialogs@@SAXPB_W0PAU?$__list_struct@Ustring@@@@PAH@Z  (Idle)
01:0004BCF0 ?_ask@vpiCommonDialogs@@SAXPBUwindowHandle@vpiDomains@@PB_W1PAU?$__list_struct@Ustring@@@@PAH@Z  (Idle)
01:0004BCF8 ?_askLocal@vpiCommonDialogs@@SAXPBUwindowHandle@vpiDomains@@PB_W1PAU?$__list_struct@Ustring@@@@PAH@Z 
01:0004BDB8 ?_dlg_ask_eh@vpiCommonDialogs@@SAXPBUwindowHandle@@PAUevent_struct@vpiDomains@@PAH@Z 
01:0004BE50 ?_getButtonsList@vpiCommonDialogs@@SAXPAU?$__list_struct@Ustring@@@@PB_WPAHPAPAU?$__list_struct@Uwindef@@@@@Z 
01:0004C084 ?_getFirstButton@vpiCommonDialogs@@SAXPB_WPAPAUwindef_struct@vpiDomains@@@Z 
01:0004C0F0 ?_getSecondButton@vpiCommonDialogs@@SAXPB_WPAPAUwindef_struct@vpiDomains@@@Z 
01:0004C15C ?_getLastButton@vpiCommonDialogs@@SAXPB_WPAPAUwindef_struct@vpiDomains@@@Z 
01:0004C1C8 ?_getStaticText@vpiCommonDialogs@@SAXPB_WPAPAUwindef_struct@vpiDomains@@@Z 
01:0004C234 ?_getAskResult@vpiCommonDialogs@@SAXHPAH@Z 
01:0004C274 ?_listSelect@vpiCommonDialogs@@SAXPB_WPAU?$__list_struct@Ustring@@@@HPAPB_WPAHAAUbooleanInt@@@Z  (Idle)
01:0004C2D8 ?_listSelect@vpiCommonDialogs@@SAXPBUwindowHandle@vpiDomains@@PB_WPAU?$__list_struct@Ustring@@@@HPAPB_WPAHAAUbooleanInt@@@Z 
01:0004C2F4 ?_listSelect@vpiCommonDialogs@@SAXPBUwindowHandle@vpiDomains@@PB_WPAU?$__list_struct@Ustring@@@@HPAPB_WPAHPBUbooleanInt@@AAU5@@Z 
01:0004C310 ?_listSelect@vpiCommonDialogs@@SAXPBUwindowHandle@vpiDomains@@PB_WPAU?$__list_struct@Ustring@@@@HPAPB_WPAHPBUbooleanInt@@6AAU5@@Z 
01:0004C4EC ?_dlg_list_select_eh@vpiCommonDialogs@@SAXPBUwindowHandle@@PAUevent_struct@vpiDomains@@PAH@Z 
01:0004C5E8 ?resizeControls@vpiCommonDialogs@@SAXPBUwindowHandle@vpiDomains@@HH@Z 
01:0004C758 ?_anonymous$4$393_67$storeresult_listselect/1@vpiCommonDialogs@@SAXHAAUpositive@@@Z 
01:0004C778 ?storeResult_listSelect@vpiCommonDialogs@@SAXPBUwindowHandle@vpiDomains@@@Z 
01:0004C818 ?storeListSelectResult@vpiCommonDialogs@@SAXPBUwindowHandle@vpiDomains@@PAU?$__list_struct@Ustring@@@@PAU?$__list_struct@Upositive@@@@@Z 
01:0004C884 ?storeNewValue@vpiCommonDialogs@@SAXPBUwindowHandle@vpiDomains@@PB_W@Z 
01:0004C8C0 ?_getComboFlags@vpiCommonDialogs@@SAXPBUbooleanInt@@AAUwsFlag@vpiDomains@@@Z 
01:0004C8E4 ?init_listSelect@vpiCommonDialogs@@SAXPBUwindowHandle@vpiDomains@@@Z 
01:0004C93C ?note@vpiCommonDialogs@@SAXPB_W@Z  (Idle)
--- From 'Obj\controlSupport.99797704.obj'
01:0004C954 ?error@vpiCommonDialogs@@SAXPB_W@Z 
--- From 'Obj\vpi.DCC9845E.obj'
01:0004C96C ?_getFileName@vpiCommonDialogs@@SAXPB_WPAU?$__list_struct@Ustring@@@@0PAU?$__list_struct@Uinteger@@@@0PAPAU?$__list_struct@U2@@@PAPB_W@Z  (Idle)
01:0004C998 ?_getFont@vpiCommonDialogs@@SAXPBUfont@vpiDomains@@AAU23@@Z  (Idle)
01:0004C9BC ?_getColor@vpiCommonDialogs@@SAXPBUcolor@vpiDomains@@AAU23@@Z  (Idle)
01:0004C9E8 ?setCustomColors@vpiCommonDialogs@@SAXQAE@Z  (Idle)
01:0004C9FC ?_getCustomColors@vpiCommonDialogs@@SAXQAPAE@Z  (Idle)
01:0004CA24 ?_getParentWindow@vpiCommonDialogs@@SAXAAUwindowHandle@vpiDomains@@@Z 
01:0004CA48 ?_getParentWindowForFocus@vpiCommonDialogs@@SAXPBUwindowHandle@vpiDomains@@AAU23@@Z 
01:0004CAAC ?_checkOrGetTopLevel@vpiCommonDialogs@@SAXPBUwindowHandle@vpiDomains@@PBUwintype@3@AAU23@@Z 
01:0004CB40 ?isTopLevelType@vpiCommonDialogs@@SAXPBUwintype@vpiDomains@@@Z 
01:0004CB68 ?isNonVPIParent@vpiCommonDialogs@@SAXPBUwintype@vpiDomains@@@Z 
01:0004CB84 ?_askBox@vpiCommonDialogs@@SAXPB_W0HHPAH@Z 
01:0004CBC8 ?_class_facts_initializer@vpiCommonDialogs@@SGXXZ 
01:0004CC04 ?init@vpi@@SAXXZ 
01:0004CC1C ?init@vpi@@SAXPAU?$__list_struct@Uwsflag@@@@XPAUmenu_struct@vpiDomains@@PB_W3@Z 
01:0004CC48 ?_winCreateResDialog@vpi@@SAXPBUwindowHandle@vpiDomains@@PBUwintype@3@PBUresid@3@XHAAU23@@Z  (Idle)
01:0004CC80 ?_getResStr@vpi@@SAXPBUresid@vpiDomains@@PAPB_W@Z  (Idle)
01:0004CCAC ?_winGetResDialog@vpi@@SAXPBUresid@vpiDomains@@PAPAU?$__list_struct@Uwindef@3@@@@Z  (Idle)
01:0004CCD8 ?_checkExistDialog@vpi@@SAXPBUresid@vpiDomains@@AAUbooleanInt@@@Z  (Idle)
01:0004CD04 ?_checkExistString@vpi@@SAXPBUresid@vpiDomains@@AAUbooleanInt@@@Z  (Idle)
01:0004CD30 ?_menuGetRes@vpi@@SAXPBUresid@vpiDomains@@PAPAUmenu_struct@3@@Z  (Idle)
01:0004CD5C ?_pictGetFromRes@vpi@@SAXPBUresid@vpiDomains@@AAUpicture@3@@Z  (Idle)
--- From 'Obj\vpiToolbar.CEE9D0A0.obj'
01:0004CD88 ?_pictLoad@vpi@@SAXPAUbitmapId_struct@vpiDomains@@IIIAAUpicture@3@@Z 
01:0004CEB4 ?pictDraw@vpi@@SAXPBUwindowHandle@vpiDomains@@PBUpicture@3@PAUpnt_struct@3@PBUrop@3@@Z 
--- From 'Obj\vpi.DCC9845E.obj'
01:0004CED0 ?pictDraw@vpi@@SAXPBUwindowHandle@vpiDomains@@PBUpicture@3@PAUrct_struct@3@2PBUrop@3@@Z 
01:0004CEF0 ?cursorSet@vpi@@SAXPBUwindowHandle@vpiDomains@@PBUcursor@3@@Z 
01:0004CF08 ?caretSet@vpi@@SAXPBUwindowHandle@vpiDomains@@PBUpositive@@1@Z 
01:0004CF24 ?drawText@vpi@@SAXPBUwindowHandle@vpiDomains@@HHPB_W@Z 
--- From 'Obj\vpiEditor.ADC33AAB.obj'
01:0004CF40 ?drawTextInRect@vpi@@SAXPBUwindowHandle@vpiDomains@@PAUrct_struct@3@PB_WPAU?$__list_struct@Uinteger@@@@@Z 
--- From 'Obj\vpi.DCC9845E.obj'
01:0004CF5C ?_mfLoad@vpi@@SAXPB_WAAUmetafile@vpiDomains@@@Z  (Idle)
--- From 'Obj\vpiToolbar.CEE9D0A0.obj'
01:0004CF80 ?winGetTextExtent@vpi@@SAXPBUwindowHandle@vpiDomains@@PB_WAAUpositive@@2@Z 
--- From 'Obj\vpi.DCC9845E.obj'
01:0004CF9C ?_processEvents@vpi@@SAXAAUbooleanInt@@@Z  (Idle)
01:0004CFB8 ?_processEvents@vpi@@SAXPBUbooleanInt@@AAU2@@Z 
01:0004CFD4 ?_winGetAttrVal@vpi@@SAXPBUwindowHandle@vpiDomains@@HPAH@Z 
--- From 'Obj\vpiToolbar.CEE9D0A0.obj'
01:0004D000 ?_winGetAttrNativeVal@vpi@@SAXPBUwindowHandle@vpiDomains@@HAAUintegerNative@@@Z 
--- From 'Obj\vpi.DCC9845E.obj'
01:0004D02C ?_fontCreateByName@vpi@@SAXPBUwindowHandle@vpiDomains@@PB_WPBUpositive@@AAUfont@3@@Z  (Idle)
--- From 'Obj\Forms.80533223.obj'
01:0004D04C ?_fontCreateByName@vpi@@SAXPB_WPBUpositive@@AAUfont@vpiDomains@@@Z 
--- From 'Obj\vpi.DCC9845E.obj'
01:0004D184 ?dumpErrorHandler@vpi@@SAXPBUwindowHandle@@PBUtraceId@@@Z  (Idle)
01:0004D26C ?_dumpErroreventHandler@vpi@@SAXPBUwindowHandle@@PAUevent_struct@vpiDomains@@PAH@Z 
01:0004D3A0 _vpiExceptionRaiser 
01:0004D474 ?_exceptionFromErrorCode@vpi@@SAXIPAX@Z 
01:0004D4AC ?_tryGetVpiError@vpi@@SAXIPAX@Z 
01:0004DF0C ?notYetHandledVpiError@vpi@@SAXPAXPAPB_W1@Z 
01:0004DF34 ?vpi_winBadHandle@vpi@@SAXPAXPAPB_W1@Z 
01:0004DF5C ?vpi_winBadType@vpi@@SAXPAXPAPB_W1@Z 
01:0004DF84 ?vpi_data_alloc@vpi@@SAXPAXPAPB_W1@Z 
01:0004DFAC ?vpi_listEmpty@vpi@@SAXPAXPAPB_W1@Z 
01:0004DFD4 ?vpi_listMember@vpi@@SAXPAXPAPB_W1@Z 
01:0004DFFC ?vpi_unableFileOpen@vpi@@SAXPAXPAPB_W1@Z 
01:0004E024 ?vpi_unableFileCreate@vpi@@SAXPAXPAPB_W1@Z 
01:0004E04C ?vpi_fileNameEmpty@vpi@@SAXPAXPAPB_W1@Z 
01:0004E074 ?vpi_unsupportedPlatform@vpi@@SAXPAXPAPB_W1@Z 
01:0004E09C ?vpi_vpiNotInit@vpi@@SAXPAXPAPB_W1@Z 
01:0004E0C4 ?vpi_illegalValue@vpi@@SAXPAXPAPB_W1@Z 
01:0004E0EC ?vpi_notSupport@vpi@@SAXPAXPAPB_W1@Z 
01:0004E114 ?vpi_dlgNotFound@vpi@@SAXPAXPAPB_W1@Z 
01:0004E13C ?vpi_cursorNotFound@vpi@@SAXPAXPAPB_W1@Z 
01:0004E164 ?vpi_iconNotFound@vpi@@SAXPAXPAPB_W1@Z 
01:0004E18C ?vpi_menuNotFound@vpi@@SAXPAXPAPB_W1@Z 
01:0004E1B4 ?vpi_bmpNotFound@vpi@@SAXPAXPAPB_W1@Z 
01:0004E1DC ?vpi_stringNotFound@vpi@@SAXPAXPAPB_W1@Z 
01:0004E204 ?vpi_unablePictureCreate@vpi@@SAXPAXPAPB_W1@Z 
01:0004E22C ?vpi_unableLoadPicture@vpi@@SAXPAXPAPB_W1@Z 
01:0004E254 ?vpi_ivalidWindowType@vpi@@SAXPAXPAPB_W1@Z 
01:0004E27C ?vpi_unableOpenPicture@vpi@@SAXPAXPAPB_W1@Z 
01:0004E2A4 ?vpi_manyPictures@vpi@@SAXPAXPAPB_W1@Z 
01:0004E2CC ?vpi_unableKillTimer@vpi@@SAXPAXPAPB_W1@Z 
01:0004E2F4 ?vpi_toManyTimers@vpi@@SAXPAXPAPB_W1@Z 
01:0004E31C ?vpi_badFont@vpi@@SAXPAXPAPB_W1@Z 
01:0004E344 ?vpi_unableGetFont@vpi@@SAXPAXPAPB_W1@Z 
01:0004E36C ?vpi_predicateNotExist@vpi@@SAXPAXPAPB_W1@Z 
01:0004E394 ?vpi_unableRunApp@vpi@@SAXPAXPAPB_W1@Z 
01:0004E3BC ?vpi_wrongAppId@vpi@@SAXPAXPAPB_W1@Z 
01:0004E3E4 ?vpi_cannotGetWindow@vpi@@SAXPAXPAPB_W1@Z 
01:0004E40C ?vpi_prnOpen@vpi@@SAXPAXPAPB_W1@Z 
01:0004E434 ?vpi_prnStart@vpi@@SAXPAXPAPB_W1@Z 
01:0004E45C ?vpi_prnMem@vpi@@SAXPAXPAPB_W1@Z 
01:0004E484 ?vpi_prnEnd@vpi@@SAXPAXPAPB_W1@Z 
01:0004E4AC ?vpi_prnBegin@vpi@@SAXPAXPAPB_W1@Z 
01:0004E4D4 ?vpi_prnData@vpi@@SAXPAXPAPB_W1@Z 
01:0004E4FC ?vpi_notEvenNumber@vpi@@SAXPAXPAPB_W1@Z 
01:0004E524 ?vpi_unableRegisterClass@vpi@@SAXPAXPAPB_W1@Z 
01:0004E54C ?vpi_checkDestroy@vpi@@SAXPAXPAPB_W1@Z 
01:0004E574 ?vpi_checkDraw@vpi@@SAXPAXPAPB_W1@Z 
01:0004E59C ?vpi_cantAddToLbox@vpi@@SAXPAXPAPB_W1@Z 
01:0004E5C4 ?vpi_winCtlBadPropery@vpi@@SAXPAXPAPB_W1@Z 
01:0004E5EC ?vpi_winCrtResDlg@vpi@@SAXPAXPAPB_W1@Z 
01:0004E614 ?vpi_winCrtDynDlg@vpi@@SAXPAXPAPB_W1@Z 
01:0004E63C ?vpi_winCreate@vpi@@SAXPAXPAPB_W1@Z 
01:0004E664 ?vpi_winCreateDyn@vpi@@SAXPAXPAPB_W1@Z 
01:0004E68C ?vpi_winClass@vpi@@SAXPAXPAPB_W1@Z 
01:0004E6B4 ?vpi_winCtlId@vpi@@SAXPAXPAPB_W1@Z 
01:0004E6DC ?vpi_unableSendEvent@vpi@@SAXPAXPAPB_W1@Z 
01:0004E704 ?vpi_unablePendEvent@vpi@@SAXPAXPAPB_W1@Z 
01:0004E72C ?vpi_winInvalidPos@vpi@@SAXPAXPAPB_W1@Z 
01:0004E754 ?vpi_unableMove@vpi@@SAXPAXPAPB_W1@Z 
01:0004E77C ?vpi_win_ctlhndl@vpi@@SAXPAXPAPB_W1@Z 
01:0004E7A4 ?vpi_win_active@vpi@@SAXPAXPAPB_W1@Z 
01:0004E7CC ?vpi_metaImpossiblePlay@vpi@@SAXPAXPAPB_W1@Z 
01:0004E7F4 ?vpi_metaImpossibleLoad@vpi@@SAXPAXPAPB_W1@Z 
01:0004E81C ?vpi_metaClose@vpi@@SAXPAXPAPB_W1@Z 
01:0004E844 ?vpi_metaBadFormat@vpi@@SAXPAXPAPB_W1@Z 
01:0004E86C ?vpi_metaCreateDC@vpi@@SAXPAXPAPB_W1@Z 
01:0004E894 ?vpi_metaToMany@vpi@@SAXPAXPAPB_W1@Z 
01:0004E8BC ?vpi_menuCreate@vpi@@SAXPAXPAPB_W1@Z 
01:0004E8E4 ?vpi_menuSet@vpi@@SAXPAXPAPB_W1@Z 
01:0004E90C ?vpi_menuFind@vpi@@SAXPAXPAPB_W1@Z 
01:0004E934 ?vpi_menuOwndrSubmenu@vpi@@SAXPAXPAPB_W1@Z 
01:0004E95C ?vpi_menuMdi@vpi@@SAXPAXPAPB_W1@Z 
01:0004E984 ?vpi_helpInvalidConst@vpi@@SAXPAXPAPB_W1@Z 
01:0004E9AC ?vpi_clipUnableAccess@vpi@@SAXPAXPAPB_W1@Z 
01:0004E9D4 ?vpi_clipGetBin@vpi@@SAXPAXPAPB_W1@Z 
01:0004E9FC ?vpi_clipGetPict@vpi@@SAXPAXPAPB_W1@Z 
01:0004EA24 ?vpi_clipGetMf@vpi@@SAXPAXPAPB_W1@Z 
01:0004EA4C ?vpi_ddeSyncAdviceTimeout@vpi@@SAXPAXPAPB_W1@Z 
01:0004EA74 ?vpi_ddeServerIsBusy@vpi@@SAXPAXPAPB_W1@Z 
01:0004EA9C ?vpi_ddeSyncDataTimeout@vpi@@SAXPAXPAPB_W1@Z 
01:0004EAC4 ?vpi_ddeNotInitialized@vpi@@SAXPAXPAPB_W1@Z 
01:0004EAEC ?vpi_ddeClientPerformsServerTrans@vpi@@SAXPAXPAPB_W1@Z 
01:0004EB14 ?vpi_ddeSyncExecTimeout@vpi@@SAXPAXPAPB_W1@Z 
01:0004EB3C ?vpi_ddeInvalidParam@vpi@@SAXPAXPAPB_W1@Z 
01:0004EB64 ?vpi_ddeMemConsume@vpi@@SAXPAXPAPB_W1@Z 
01:0004EB8C ?vpi_ddeMemAllocFailed@vpi@@SAXPAXPAPB_W1@Z 
01:0004EBB4 ?vpi_ddeTransactionFailed@vpi@@SAXPAXPAPB_W1@Z 
01:0004EBDC ?vpi_ddeClientConservationFailed@vpi@@SAXPAXPAPB_W1@Z 
01:0004EC04 ?vpi_ddeSyncPokeTimeout@vpi@@SAXPAXPAPB_W1@Z 
01:0004EC2C ?vpi_ddePostFailed@vpi@@SAXPAXPAPB_W1@Z 
01:0004EC54 ?vpi_ddeUnableInitTransaction@vpi@@SAXPAXPAPB_W1@Z 
01:0004EC7C ?vpi_ddeUnableCompleteTransaction@vpi@@SAXPAXPAPB_W1@Z 
01:0004ECA4 ?vpi_ddeInternalError@vpi@@SAXPAXPAPB_W1@Z 
01:0004ECCC ?vpi_dde_advice_end_timeout@vpi@@SAXPAXPAPB_W1@Z 
01:0004ECF4 ?vpi_ddeInvalidId@vpi@@SAXPAXPAPB_W1@Z 
01:0004ED1C ?vpi_ddeSyserror@vpi@@SAXPAXPAPB_W1@Z 
01:0004ED44 ?vpi_ddeInitFail@vpi@@SAXPAXPAPB_W1@Z 
01:0004ED6C ?vpi_EDIT_WIN@vpi@@SAXPAXPAPB_W1@Z 
01:0004ED94 ?vpi_EDIT_HYPER@vpi@@SAXPAXPAPB_W1@Z 
01:0004EDBC ?vpi_EDIT_BIG@vpi@@SAXPAXPAPB_W1@Z 
01:0004EDE4 ?vpi_EDIT_POS@vpi@@SAXPAXPAPB_W1@Z 
01:0004EE0C ?vpi_EDIT_UNDO@vpi@@SAXPAXPAPB_W1@Z 
01:0004EE34 ?vpi_EDIT_REDO@vpi@@SAXPAXPAPB_W1@Z 
01:0004EE5C ?vpi_EDIT_BIG_OUT@vpi@@SAXPAXPAPB_W1@Z 
01:0004EE84 ?vpi_EDIT_LINE@vpi@@SAXPAXPAPB_W1@Z 
01:0004EEAC ?vpi_EDIT_READONLY@vpi@@SAXPAXPAPB_W1@Z 
01:0004EED4 ?vpi_EDIT_TAB@vpi@@SAXPAXPAPB_W1@Z 
01:0004EEFC ?vpi_EDIT_COLORING@vpi@@SAXPAXPAPB_W1@Z 
01:0004EF24 ?trySetFocusOnFirstControl@vpi@@SAXPBUwindowHandle@vpiDomains@@@Z  (Idle)
01:0004EF84 ?_createCustomControl@vpi@@SAXXPAUrct_struct@vpiDomains@@PBUunitType@3@PB_WPBUwindowHandle@3@PAU?$__list_struct@Uwsflag@@@@PBUctlid@3@AAU63@@Z 
--- From 'Obj\controlSupport.99797704.obj'
01:0004EFA0 ?_createCustomControl@vpi@@SAXXPAUrct_struct@vpiDomains@@PBUunitType@3@PB_WPBUwindowHandle@3@PAU?$__list_struct@Uwsflag@@@@PBUctlid@3@PBUbooleanInt@@AAU63@@Z 
--- From 'Obj\vpi.DCC9845E.obj'
01:0004F060 ?_anonymous$5$762_45$registercustomctrl/0@vpi@@SAXPBUwindowHandle@@PAUevent_struct@vpiDomains@@PAH@Z 
01:0004F06C ?registerCustomCtrl@vpi@@SAXXZ 
01:0004F0C4 ?winCenter@vpi@@SAXPBUwindowHandle@vpiDomains@@@Z 
01:0004F0F8 ?winCenter@vpi@@SAXPBUwindowHandle@vpiDomains@@PAUrct_struct@3@@Z 
01:0004F120 ?rctCenter@vpi@@SAXPAUrct_struct@vpiDomains@@PAPAU23@@Z 
01:0004F154 ?rctCenter@vpi@@SAXPBUwindowHandle@vpiDomains@@PAUrct_struct@3@PAPAU43@@Z 
01:0004F220 ?winMapPnt@vpi@@SAXPAUpnt_struct@vpiDomains@@PBUwindowHandle@3@1PAPAU23@@Z 
01:0004F27C ?_winCtlGetText@vpi@@SAXPBUwindowHandle@vpiDomains@@PBUctlid@3@PAPB_W@Z  (Idle)
01:0004F2A4 ?winCtlSelectText@vpi@@SAXPBUwindowHandle@vpiDomains@@PBUctlid@3@@Z  (Idle)
01:0004F2DC ?winCtlIsChecked@vpi@@SAXPBUwindowHandle@vpiDomains@@PBUctlid@3@@Z  (Idle)
01:0004F308 ?winCtlSetFocus@vpi@@SAXPBUwindowHandle@vpiDomains@@PBUctlid@3@@Z  (Idle)
01:0004F328 ?winCtlSetState@vpi@@SAXPBUwindowHandle@vpiDomains@@PBUctlid@3@PAU?$__list_struct@Uwsflag@@@@@Z  (Idle)
01:0004F34C ?mdiWinGetRestoredRect@vpi@@SAXPBUwindowHandle@vpiDomains@@PAPAUrct_struct@3@@Z 
01:0004F3E0 ?dialogWinSetRestoredRect@vpi@@SAXPBUwindowHandle@vpiDomains@@PAUrct_struct@3@@Z  (Idle)
01:0004F478 ?dialogWinGetRestoredRect@vpi@@SAXPBUwindowHandle@vpiDomains@@PAPAUrct_struct@3@@Z  (Idle)
01:0004F4D8 ?_test_taskwindow@vpi@@SAXPBUwindowHandle@@AAUbooleanInt@@@Z 
01:0004F504 ?winCtlRadioGet@vpi@@SAXPBUwindowHandle@vpiDomains@@PAU?$__list_struct@Uinteger@@@@AAUctlid@3@@Z  (Idle)
01:0004F554 ?decomposeRGB@vpi@@SAXPBUcolor@vpiDomains@@AAUinteger16@@11@Z  (Idle)
01:0004F5E8 ?winCtlGetNextTabStop@vpi@@SAXPBUwindowHandle@vpiDomains@@0AAU23@@Z  (Idle)
01:0004F610 ?winCtlGetPrevTabStop@vpi@@SAXPBUwindowHandle@vpiDomains@@0AAU23@@Z  (Idle)
01:0004F638 ?_menuPopUp@vpi@@SAXPBUwindowHandle@vpiDomains@@PAUmenu_struct@3@PAUpnt_struct@3@PBUmenuAlign@3@PAPAUboolean_struct@_builtIn@@@Z  (Idle)
01:0004F674 ?classInfo@vpi@@SAXPAPB_W0@Z 
--- From 'Obj\vpiToolbar.CEE9D0A0.obj'
01:0004F690 ?pictureGetSize@vpiToolbar@@SAXPAUbitmapId_struct@vpiDomains@@AAUpositive@@1@Z 
01:0004F6C8 ?toolbar_set_flagMouseDown@vpiToolbar@@SAXPBUwindowHandle@@@Z 
01:0004F714 ?toolbar_release_flagMouseDown@vpiToolbar@@SAXXZ 
01:0004F748 ?tooltip_firstTimeTimerHandler@vpiToolbar@@SAXPBUwindowHandle@@@Z 
01:0004F770 ?tooltip_ShowTimerHandler@vpiToolbar@@SAXPBUwindowHandle@@@Z 
01:0004FAF8 ?tooltip_HideTimerHandler@vpiToolbar@@SAXPBUwindowHandle@@H@Z 
01:0004FBF8 ?_tooltip_handler@vpiToolbar@@SAXPBUwindowHandle@@PAUevent_struct@vpiDomains@@PAH@Z 
01:0004FD4C ?tooltip_create@vpiToolbar@@SAXPBUwindowHandle@@@Z 
01:0004FE34 ?tooltip_register@vpiToolbar@@SAXPBUwindowHandle@@PAUrct_struct@vpiDomains@@PB_W@Z 
01:0004FF60 ?tooltip_clean_up@vpiToolbar@@SAXPBUwindowHandle@@@Z 
01:0005007C ?tooltip_validate_rect@vpiToolbar@@SAXPAUrct_struct@vpiDomains@@0PAPAU23@@Z 
01:0005012C ?_tooltip_validate@vpiToolbar@@SAXHHPAH@Z 
01:00050154 ?tooltip_set_usage@vpiToolbar@@SAXXZ 
01:000501B0 ?tooltip_stop_usage@vpiToolbar@@SAXXZ 
01:000501F4 ?tooltip_check_first_time@vpiToolbar@@SAXXZ 
01:0005021C ?tooltip_check_first_time@vpiToolbar@@SAXPBUwindowHandle@@@Z 
01:000502A4 ?tooltip_check_mousemove@vpiToolbar@@SAXPBUwindowHandle@@PAUpnt_struct@vpiDomains@@@Z 
01:0005037C ?tooltip_check_mousetimer@vpiToolbar@@SAXPBUwindowHandle@@@Z 
01:00050534 ?tooltip_mouse_in_TB@vpiToolbar@@SAXPBUwindowHandle@@PAPAUpnt_struct@vpiDomains@@@Z 
01:00050608 ?hide_tooltip@vpiToolbar@@SAXPBUwindowHandle@@@Z 
01:000506FC ?tooltip_hide@vpiToolbar@@SAXXZ  (Idle)
01:000507E4 ?tooltip_change_if_not_current@vpiToolbar@@SAXPBUwindowHandle@@@Z 
01:00050894 ?tooltip_change_if_not_current@vpiToolbar@@SAXPBUwindowHandle@@PAUrct_struct@vpiDomains@@PB_WPAUpnt_struct@4@@Z 
01:000509A8 ?tooltip_set_first_time_timer@vpiToolbar@@SAXPBUwindowHandle@@@Z 
01:00050A00 ?tooltip_kill_first_time_timer@vpiToolbar@@SAXXZ 
01:00050A60 ?tooltip_set_show@vpiToolbar@@SAXPBUwindowHandle@@@Z 
01:00050ABC ?tooltip_try_show@vpiToolbar@@SAXPBUwindowHandle@@PBUbooleanInt@@@Z 
01:00050BF8 ?safeTimerKill@vpiToolbar@@SAXPBUtimerId@@@Z 
01:00050C44 ?tooltip_kill_show_timer@vpiToolbar@@SAXXZ 
01:00050CA4 ?tooltip_set_hide_timer@vpiToolbar@@SAXPBUwindowHandle@@@Z 
01:00050D04 ?tooltip_kill_hide_timer@vpiToolbar@@SAXXZ 
01:00050D64 ?tooltip_get_color@vpiToolbar@@SAXAAU2@0@Z 
01:00050DA4 ?_tooltip_child_handler@vpiToolbar@@SAXPBUwindowHandle@@PAUevent_struct@vpiDomains@@PAH@Z 
01:00050F24 ?get_flag@vpiToolbar@@SAXPBUbooleanInt@@AAUwsflag@@@Z 
01:00050F54 ?buttonColors@vpiToolbar@@SAXAAUcolor@@00@Z 
01:00050F8C ?getAddOrnamentationByStyle@vpiToolbar@@SAXPAUstyle_struct@1@AAUbooleanInt@@@Z 
01:00050FD4 ?split_control_text@vpiToolbar@@SAXPB_WPAPB_W1@Z 
01:0005104C ?set_ctrl_to_tb_win1@vpiToolbar@@SAXPBUwindowHandle@@@Z 
01:000510D8 ?multiple_rows@vpiToolbar@@SAXPAUstyle_struct@1@@Z 
01:00051100 ?horizontal@vpiToolbar@@SAXPAUstyle_struct@1@@Z 
01:0005118C ?toolbar_retract_controls@vpiToolbar@@SAXPBUwindowHandle@@@Z 
01:00051258 ?set_new_VPITBarAttr@vpiToolbar@@SAXPAUstyle_struct@1@HPBUwindowHandle@@@Z 
01:00051380 ?remove_VPITBarAttr@vpiToolbar@@SAXPAUstyle_struct@1@PBUwindowHandle@@@Z 
01:00051524 ?give_flags_and_title@vpiToolbar@@SAXPAUstyle_struct@1@PAPAU?$__list_struct@Uwsflag@@@@PAPB_W@Z 
01:00051564 ?resendToParentWindow@vpiToolbar@@SAXPBUwindowHandle@@PBUmenuTag@@PAUvalue_struct@1@@Z 
01:00051924 ?set_ctrl_to_tb_win@vpiToolbar@@SAXPBUwindowHandle@@0@Z 
01:00052090 ?create_listcontrols@vpiToolbar@@SAXPBUwindowHandle@@@Z 
01:000521E0 ?get_inits_for_twin@vpiToolbar@@SAXPBUwindowHandle@@PAHPAHPAHPAH@Z 
01:00052260 ?get_inits@vpiToolbar@@SAXPBUwindowHandle@@PAUstyle_struct@1@HHPAHPAH@Z 
01:00052460 ?tbar_Invalidate@vpiToolbar@@SAXPBUwindowHandle@@PAUstyle_struct@1@HHPAUrct_struct@vpiDomains@@@Z 
01:00052520 ?_createToolbarFont@vpiToolbar@@SAXPBUfontFamily@@PAU?$__list_struct@Ufs@@@@PBUpositive@@AAUfont@@@Z 
01:000525A0 ?getLeftOffset@vpiToolbar@@SAXPAUstyle_struct@1@PAH@Z 
01:000525C4 ?getTopOffset@vpiToolbar@@SAXPAUstyle_struct@1@PAH@Z 
01:00052618 ?getBottomOffset@vpiToolbar@@SAXPAUstyle_struct@1@PAH@Z 
01:0005266C ?rightBottom@vpiToolbar@@SAXPBUwindowHandle@@PAUstyle_struct@1@HHHPAHPAH@Z 
01:00052A70 ?build_control_database8@vpiToolbar@@SAXPBUwindowHandle@@PAUstyle_struct@1@PAU?$__list_struct@Ucontrol@@@@HHHPAHPAH@Z 
01:00053A88 ?build_control_database@vpiToolbar@@SAXPBUwindowHandle@@PAUstyle_struct@1@PAU?$__list_struct@Ucontrol@@@@PAHPAH@Z 
01:00053AE4 ?getControlSize@vpiToolbar@@SAXPBUwindowHandle@@PAUcontrol_struct@1@PAHPAH@Z 
01:00053C08 ?getMaxControlSize6@vpiToolbar@@SAXPBUwindowHandle@@PAU?$__list_struct@Ucontrol@@@@HHPAHPAH@Z 
01:00053C98 ?getMaxControlSize@vpiToolbar@@SAXPBUwindowHandle@@PAU?$__list_struct@Ucontrol@@@@PAHPAH@Z 
01:00053CF0 ?drawButtonFrame@vpiToolbar@@SAXPBUwindowHandle@@PAUrct_struct@vpiDomains@@PBUcolor@@2@Z 
01:00053EB8 ?drawButtonFrame_raised@vpiToolbar@@SAXPBUwindowHandle@@PAUrct_struct@vpiDomains@@@Z 
01:00053EF0 ?drawButtonFrame_sunken@vpiToolbar@@SAXPBUwindowHandle@@PAUrct_struct@vpiDomains@@@Z 
01:00053F28 ?drawButtonFrame_none@vpiToolbar@@SAXPBUwindowHandle@@PAUrct_struct@vpiDomains@@@Z 
01:00053F60 ?toolbar_if_draw_frame@vpiToolbar@@SAXPBUwindowHandle@@PAUrct_struct@vpiDomains@@PBUbooleanInt@@2@Z 
01:00053FD4 ?imagePosition@vpiToolbar@@SAXPAUrct_struct@vpiDomains@@PBUpicture@@HPAPAUpnt_struct@3@@Z 
01:00054068 ?drawImage_released@vpiToolbar@@SAXPBUwindowHandle@@PAUbitmapId_struct@vpiDomains@@PAUrct_struct@4@@Z 
01:000540B8 ?drawImage_pressed@vpiToolbar@@SAXPBUwindowHandle@@PAUbitmapId_struct@vpiDomains@@PAUrct_struct@4@@Z 
01:000541E8 ?drawImage_monocolor@vpiToolbar@@SAXPBUwindowHandle@@PBUpicture@@PAUrct_struct@vpiDomains@@HPBU6@@Z 
01:000542FC ?drawImage_gray@vpiToolbar@@SAXPBUwindowHandle@@PAUbitmapId_struct@vpiDomains@@PAUrct_struct@4@@Z 
01:00054374 ?drawButton@vpiToolbar@@SAXPBUwindowHandle@@PAUrct_struct@vpiDomains@@PAUbitmapId_struct@4@PBUbooleanInt@@3@Z 
01:00054414 ?drawTextControl@vpiToolbar@@SAXPBUwindowHandle@@HHHH@Z 
01:00054634 ?show_text@vpiToolbar@@SAXPBUwindowHandle@@PAUrct_struct@vpiDomains@@PBUfs@@PBUfontFamily@@PBUpositive@@PBUcolor@@PB_W@Z 
01:00054760 ?show_toolbar_controls@vpiToolbar@@SAXPBUwindowHandle@@@Z 
01:000549B4 ?set_button_released@vpiToolbar@@SAXPBUwindowHandle@@@Z 
01:00054A40 ?eraseFrame@vpiToolbar@@SAXPBUwindowHandle@@PAUrct_struct@vpiDomains@@PBUbooleanInt@@@Z 
01:00054A58 ?test_not_leave_ctrl@vpiToolbar@@SAXPBUwindowHandle@@PBUmenuTag@@PAUpnt_struct@vpiDomains@@@Z 
01:00054C58 ?test_enter_ctrl@vpiToolbar@@SAXPBUwindowHandle@@PAUpnt_struct@vpiDomains@@PBUbooleanInt@@@Z 
01:00054D7C ?restore_pressed_button@vpiToolbar@@SAXPBUwindowHandle@@PBUmenuTag@@PBUbooleanInt@@2@Z 
01:00054F3C ?show_status_text@vpiToolbar@@SAXPBUwindowHandle@@PB_W@Z 
01:000550B0 ?restore_initial_status_text@vpiToolbar@@SAXPBUwindowHandle@@@Z 
01:00055190 ?_get_win_with_context@vpiToolbar@@SAXPBUwindowHandle@@AAU2@@Z 
01:000552F8 ?set_flagMouseDown@vpiToolbar@@SAXPBUwindowHandle@@PAUcontrol_style_struct@1@H@Z 
01:00055318 ?isTopToolbarExists@vpiToolbar@@SAXPBUwindowHandle@@@Z 
01:000553C0 ?drawOrnamentation@vpiToolbar@@SAXPBUwindowHandle@@PAUstyle_struct@1@HH@Z 
01:0005579C ?tb_rect@vpiToolbar@@SAXPBUwindowHandle@@PAUstyle_struct@1@HHPAPAUrct_struct@vpiDomains@@@Z 
01:00055AD4 ?_tb_handler@vpiToolbar@@SAXPBUwindowHandle@@PAUevent_struct@vpiDomains@@PAH@Z 
01:00056F90 ?_is_call_user_func@vpiToolbar@@SAXHPAUcontrol_style_struct@1@PAPAUboolean_struct@_builtIn@@@Z 
01:00056FC8 ?call_user_func@vpiToolbar@@SAXPBUwindowHandle@@PBUmenuTag@@PAUboolean_struct@_builtIn@@@Z 
01:00057228 ?_no_handler@vpiToolbar@@SAXPBUwindowHandle@@PAUevent_struct@vpiDomains@@PAH@Z 
--- From 'Obj\Toolbars.B027D95B.obj'
01:00057234 ?_create@vpiToolbar@@SAXPAUstyle_struct@1@PBUwindowHandle@@PAU?$__list_struct@Ucontrol@@@@AAU4@@Z 
--- From 'Obj\vpiToolbar.CEE9D0A0.obj'
01:00057254 ?_create@vpiToolbar@@SAXPAUstyle_struct@1@PBUwindowHandle@@PAU?$__list_struct@Ucontrol@@@@XAAU4@@Z 
01:00057288 ?_create@vpiToolbar@@SAXPAUstyle_struct@1@PBUwindowHandle@@PAU?$__list_struct@Ucontrol@@@@XPBUbooleanInt@@AAU4@@Z 
01:00057460 ?getPressedButton@vpiToolbar@@SAXPBUwindowHandle@@HAAUmenuTag@@@Z  (Idle)
01:00057514 ?setPressedButton@vpiToolbar@@SAXPBUwindowHandle@@HPBUmenuTag@@@Z 
01:00057610 ?mesRedirect@vpiToolbar@@SAXPBUwindowHandle@@0@Z  (Idle)
01:000577B8 ?noAction@vpiToolbar@@SAXPBUwindowHandle@@PBUmenuTag@@PAUvalue_struct@1@@Z  (Idle)
01:000577C0 ?reload@vpiToolbar@@SAXPBUwindowHandle@@PAU?$__list_struct@Ucontrol@@@@@Z  (Idle)
01:00057A38 ?resize@vpiToolbar@@SAXPBUwindowHandle@@@Z 
01:00057ACC ?remove@vpiToolbar@@SAXPBUwindowHandle@@@Z  (Idle)
01:00057BE0 ?setValue@vpiToolbar@@SAXPBUwindowHandle@@PBUmenuTag@@PAUvalue_struct@1@@Z 
01:000581A8 ?getValue@vpiToolbar@@SAXPBUwindowHandle@@PBUmenuTag@@PAPAUvalue_struct@1@@Z  (Idle)
01:00058434 ?getRect@vpiToolbar@@SAXPBUwindowHandle@@PAUstyle_struct@1@PAPAUrct_struct@vpiDomains@@@Z  (Idle)
01:000584CC ?groupControls@vpiToolbar@@SAXPBUwindowHandle@@HPAU?$__list_struct@UmenuTag@@@@@Z 
01:000586EC ?getToolbar_nd@vpiToolbar@@SAXPBUwindowHandle@@AAU2@@Z  (Idle)
01:00058740 ?getToolbar_nd@vpiToolbar@@SAXPBUwindowHandle@@AAU2@PAPAUstyle_struct@1@PAPAU?$__list_struct@Ucontrol@@@@@Z  (Idle)
--- From 'Obj\fileSystem_api.42E6F592.obj'
01:000587B0 ?classInfo@lZ_fileSystem_native@@SAXPAPB_W0@Z  (Idle)
01:000587CC _GetFinalPathNameByHandleW@16  (Idle)
01:000587F0 ?classInfo@fileSystem_api@@SAXPAPB_W0@Z 
01:0005880C ?fileAttributeCorrespondence@fileSystem_api@@SAXPAUfileAttributeAtom_struct@1@AAUunsigned32@@@Z 
--- From 'Obj\fileSystem.D4345F5C.obj'
01:0005888C ?_toApiAttributes@fileSystem_api@@SAXPAU?$__list_struct@UfileAttributeAtom@@@@AAUunsigned32@@@Z 
--- From 'Obj\fileSystem_api.42E6F592.obj'
01:000588A8 ?_toApiAttributes@fileSystem_api@@SAXPAU?$__list_struct@UfileAttributeAtom@@@@IPAI@Z 
--- From 'Obj\fileSystem.D4345F5C.obj'
01:00058908 ?_fromApiAttributes@fileSystem_api@@SAXPBUunsigned32@@PAPAU?$__list_struct@UfileAttributeAtom@@@@@Z 
--- From 'Obj\fileSystem_api.42E6F592.obj'
01:00058970 ?_convertToFileAttribute_nd@fileSystem_api@@SAXIPAPAUfileAttributeAtom_struct@1@@Z 
--- From 'Obj\fileSystem.D4345F5C.obj'
01:000589B0 ?_createFile@fileSystem_api@@SAXPB_WPBUunsigned32@@PAUaccessPermit_struct@1@1PAU?$__list_struct@UfileAttributeAtom@@@@AAUfileHandle@@@Z 
--- From 'Obj\fileSystem_api.42E6F592.obj'
01:00058A24 ?_toShareModeAPI@fileSystem_api@@SAXPAUaccessPermit_struct@1@PAI@Z 
--- From 'Obj\fileSystem.D4345F5C.obj'
01:00058A60 ?_getFileSize@fileSystem_api@@SAXPBUfileHandle@@PAAAUfileSize@@@Z 
01:00058ABC ?_setFilePointer@fileSystem_api@@SAXPBUfileHandle@@PA_JIPAAAUfileSize@@@Z 
01:00058B34 ?getVolumeInformation@fileSystem_api@@SAXPB_WPAPB_WAAUunsigned32@@1@Z 
--- From 'Obj\fileSystem_api.42E6F592.obj'
01:00058C04 ?cannotCreate@fileSystem_api@@SAXPAXPAPB_W1@Z 
01:00058C2C ?cannotGetFileSize@fileSystem_api@@SAXPAXPAPB_W1@Z 
01:00058C54 ?cannotSetFilePointer@fileSystem_api@@SAXPAXPAPB_W1@Z 
--- From 'Obj\fileSystem.D4345F5C.obj'
01:00058C7C ?raise_CannotCreate@fileSystem_api@@SAXXPB_WI@Z 
--- From 'Obj\fileSystem_api.42E6F592.obj'
01:00058E10 ?raise_CannotGetFileSize@fileSystem_api@@SAXXPBUfileHandle@@I@Z 
01:00058F38 ?raise_CannotSetFilePointer@fileSystem_api@@SAXXPBUfileHandle@@PA_JII@Z 
--- From 'Obj\fileSystem.D4345F5C.obj'
01:00059104 ?crlf_lf@fileSystem_api@@SAXPAXHPAUboolean_struct@_builtIn@@PAPAXAAUbyteCount@@PAPAU?$__list_struct@U4@@@PAPAU23@@Z 
--- From 'Obj\fileSystem_api.42E6F592.obj'
01:00059184 ?prepareSearch@fileSystem_api@@SAXPAXHAAUbyteCount@@PAPAUboolean_struct@_builtIn@@@Z 
01:000591FC ?searchCRLF@fileSystem_api@@SAXPAXPBUbyteCount@@1AAU2@PAPAU?$__list_struct@U2@@@3@Z 
01:000592E8 ?_tryGetPositionOfCRLF@fileSystem_api@@SAXPAXHPBUbyteCount@@AAU2@@Z 
01:00059358 ?_convertCRLF_IfNeeded@fileSystem_api@@SAXPAUboolean_struct@_builtIn@@PAXPBUbyteCount@@PAU?$__list_struct@U4@@@2PAPAX@Z 
01:000594BC ?checkFirstPos@fileSystem_api@@SAXPBUbyteCount@@PAU?$__list_struct@U2@@@PAXPAPAX3PAPAU?$__list_struct@U2@@@@Z 
01:00059534 ?_mem_move@fileSystem_api@@SAXPAXPAXPBUbyteCount@@PAPAX@Z 
01:0005955C ?_mem_copy@fileSystem_api@@SAXPAXPAXPBUbyteCount@@PAPAX@Z 
01:00059584 ?convertCRLF_LF@fileSystem_api@@SAXXPAXPAXPBUbyteCount@@PAU?$__list_struct@U2@@@@Z 
--- From 'Obj\fileSystem.D4345F5C.obj'
01:00059624 ?crlf_lf@fileSystem_api@@SAXPB_W@Z 
--- From 'Obj\fileSystem_api.42E6F592.obj'
01:00059638 ?do_CRLF_LF@fileSystem_api@@SAXPB_W0@Z 
--- From 'Obj\fileSystem.D4345F5C.obj'
01:000596D4 ?lf_crlf@fileSystem_api@@SAXPAXPBUbyteCountOptional@@PAPAXAAUbyteCount@@@Z 
--- From 'Obj\fileSystem_api.42E6F592.obj'
01:00059748 ?_getSize@fileSystem_api@@SAXPAXPBUbyteCountOptional@@AAUbyteCount@@@Z 
01:0005977C ?searchLineFeeds@fileSystem_api@@SAXPAXPBUbyteCount@@1AAU2@PAPAU?$__list_struct@U2@@@3@Z 
01:00059838 ?_convertToCRLF_IfNeeded@fileSystem_api@@SAXPAXPBUbyteCount@@PAU?$__list_struct@U2@@@1PAPAX@Z 
01:00059894 ?convertToCRLF@fileSystem_api@@SAXPAXPAXPBUbyteCount@@PAU?$__list_struct@U2@@@@Z 
--- From 'Obj\fileSystem.D4345F5C.obj'
01:00059924 ?removeDirectory@fileSystem_api@@SAXPB_W@Z 
01:000599AC ?createDirectory@fileSystem_api@@SAXPB_WPAX@Z 
01:00059A38 ?moveFile@fileSystem_api@@SAXPB_W0@Z 
01:00059B14 ?setVolumeLabel@fileSystem_api@@SAXPB_W0@Z 
01:00059BF0 ?getDiskFreeSpaceEx@fileSystem_api@@SAXPB_WPAAAUfileSize@@11@Z 
--- From 'Obj\fileSystem_api.42E6F592.obj'
01:00059CE8 ?_anonymous$1$367_13$getcurrentdirectory/0@fileSystem_api@@SAXPB_WPBUcharCount@@AAU2@@Z 
--- From 'Obj\fileSystem.D4345F5C.obj'
01:00059D00 ?_getCurrentDirectory@fileSystem_api@@SAXPAPB_W@Z 
01:00059D40 ?setCurrentDirectory@fileSystem_api@@SAXPB_W@Z 
--- From 'Obj\fileSystem_api.42E6F592.obj'
01:00059DC8 ?_anonymous$2$377_13$getlongpathname/1@fileSystem_api@@SAXPAUanonymous$2$377_13$getlongpathname/1c_struct@1@PB_WPBUcharCount@@AAU4@@Z 
01:00059DEC ?_getLongPathName@fileSystem_api@@SAXPB_WPAPB_W@Z  (Idle)
01:00059E98 ?_anonymous$3$382_13$gettemppath/0@fileSystem_api@@SAXPB_WPBUcharCount@@AAU2@@Z 
--- From 'Obj\fileSystem.D4345F5C.obj'
01:00059EB0 ?_getTempPath@fileSystem_api@@SAXPAPB_W@Z 
01:00059EF0 ?findClose@fileSystem_api@@SAXPBUsearchHandle@fileSystem_native@@@Z 
--- From 'Obj\fileSystem_api.42E6F592.obj'
01:00059F28 ?checkZeroFailOperation@fileSystem_api@@SAXPB_WPAU?$__list_struct@UnamedValue@@@@PBUbooleanInt@@@Z 
01:00059F5C ?_firstSizeThenOperation@fileSystem_api@@SAXPB_WPAU?$__list_struct@UnamedValue@@@@XPAPB_W@Z 
01:0005A010 ?fileAttributeCorrespondence@fileSystem_api@@SAXPAPAUfileAttributeAtom_struct@1@PBUunsigned32@@@Z  (Idle)
01:0005A0EC ?fileAttributeCorrespondence@fileSystem_api@@SAXPAPAUfileAttributeAtom_struct@1@AAUunsigned32@@@Z 
01:0005A218 ?fileAttributeCorrespondence@fileSystem_api@@SAXPAUfileAttributeAtom_struct@1@PBUunsigned32@@@Z  (Idle)
--- From 'Obj\time_api.885A9F6D.obj'
01:0005A2D0 _TzSpecificLocalTimeToSystemTimeW@12 
01:0005A2F4 ?classInfo@time_api@@SAXPAPB_W0@Z 
--- From 'Obj\exceptionDump.EEBF2A9C.obj'
01:0005A310 ?_getSystemTimeAsFileTime@time_api@@SAXPAAAUgmtTimeValue@@@Z 
--- From 'Obj\time_api.885A9F6D.obj'
01:0005A350 ?_gmtTimeToSystemTime@time_api@@SAXPAPBUgmtTimeValue@@PAPAUsystemTime_struct@time_native@@@Z 
01:0005A414 ?_systemTimeToGmtTime@time_api@@SAXPAUsystemTime_struct@time_native@@PAAAUgmtTimeValue@@@Z 
01:0005A768 ?_localTimeToSystemTime@time_api@@SAXPAPBUlocalTimeValue@@PAPAUsystemTime_struct@time_native@@@Z 
01:0005A7B4 ?_systemTimeToLocalTime@time_api@@SAXPAUsystemTime_struct@time_native@@PAAAUlocalTimeValue@@@Z 
01:0005A810 ?_localFileTimeToFileTime@time_api@@SAXPAPBUgmtTimeValue@@PAAAU2@@Z 
01:0005A8D4 ?_getTimeZoneInformation@time_api@@SAXPAPAUtimeZoneAPI_struct@time_native@@@Z  (Idle)
01:0005A934 ?_systemTimeToTzSpecificLocalTime@time_api@@SAXPAUtimeZoneAPI_struct@time_native@@PAUsystemTime_struct@3@PAPAU43@@Z 
01:0005A994 ?_tzSpecificLocalTimeToSystemTime@time_api@@SAXPAUtimeZoneAPI_struct@time_native@@PAUsystemTime_struct@3@PAPAU43@@Z 
01:0005AA60 ?_tzSpecificLocalTimeToSystemTime2@time_api@@SAXPAUtimeZoneAPI_struct@time_native@@PAUsystemTime_struct@3@PAPAU43@@Z 
01:0005AAC0 ?_gmtTimeToLocalTime@time_api@@SAXPAPBUgmtTimeValue@@PAAAUlocalTimeValue@@@Z  (Idle)
01:0005AAE4 ?_gmtTimeToLocalTime@time_api@@SAXPAPBUgmtTimeValue@@PAUtimeZoneAPI_struct@time_native@@PAAAUlocalTimeValue@@@Z 
01:0005AB28 ?_localTimeToGmtTime@time_api@@SAXPAPBUlocalTimeValue@@PAAAUgmtTimeValue@@@Z  (Idle)
01:0005AB4C ?_localTimeToGmtTime@time_api@@SAXPAPBUlocalTimeValue@@PAUtimeZoneAPI_struct@time_native@@PAAAUgmtTimeValue@@@Z 
01:0005AB90 ?_gmtTimeToFileTime@time_api@@SAXPAPBUgmtTimeValue@@PAPAUfileTime_struct@time_native@@@Z 
--- From 'Obj\fileSystem.D4345F5C.obj'
01:0005ABB4 ?_fileTimeToGmtTime@time_api@@SAXPAUfileTime_struct@time_native@@PAAAUgmtTimeValue@@@Z 
--- From 'Obj\time_api.885A9F6D.obj'
01:0005ABC8 ?_formatDate@time_api@@SAXPAPBUlocalTimeValue@@PB_WIPAPB_W@Z  (Idle)
01:0005AC14 ?_formatTime@time_api@@SAXPAPBUlocalTimeValue@@PB_WIPAPB_W@Z  (Idle)
01:0005AC60 ?_getDateFormat@time_api@@SAXIIPAUsystemTime_struct@time_native@@PB_WPAPB_W@Z 
01:0005AD64 ?_getTimeFormat@time_api@@SAXIIPAUsystemTime_struct@time_native@@PB_WPAPB_W@Z 
01:0005AE68 ?_getLocaleInfo_string@time_api@@SAXIIPAPB_W@Z  (Idle)
01:0005AEE8 ?_getLocaleInfo_integer@time_api@@SAXIIPAH@Z 
01:0005AF40 ?_getFirstDayOfWeek@time_api@@SAXIPAI@Z  (Idle)
01:0005AF78 ?isLeapYear@time_api@@SAXI@Z  (Idle)
01:0005B000 ?cannotGetDateTimeFormat@time_api@@SAXPAXPAPB_W1@Z 
01:0005B028 ?cannotGetLocaleInfo@time_api@@SAXPAXPAPB_W1@Z 
01:0005B050 ?raise_CannotGetDateTimeFormat@time_api@@SAXIIIIIIIIIIPB_WI@Z 
01:0005B440 ?raise_CannotGetLocaleInfo@time_api@@SAXIII@Z 
--- From 'Obj\windowsAPI.92A1776C.obj'
01:0005B560 ?_toMsStringSeq@windowsAPI@@SAXPAU?$__list_struct@Ustring@@@@AAUmsStringSeq@@@Z  (Idle)
01:0005B5A4 ?_totalLength@windowsAPI@@SAXPAU?$__list_struct@Ustring@@@@PBUcharCount@core@@AAU34@@Z 
01:0005B610 ?fill@windowsAPI@@SAXPAU?$__list_struct@Ustring@@@@PBUmsStringSeq@@@Z 
01:0005B6A8 ?_fromMsStringSeq@windowsAPI@@SAXPBUmsStringSeq@@PAPAU?$__list_struct@Ustring@@@@@Z  (Idle)
01:0005B728 ?_getString_nd@windowsAPI@@SAXPBUmsStringSeq@@PAPB_W@Z 
--- From 'Obj\memory.D6D750BE.obj'
01:0005B7F0 ?classInfo@weakPointer@@SAXPAPB_W0@Z  (Idle)
01:0005B80C ?new@weakPointer@@SAXQAV1@@PAX@Z 
01:0005B848 ?newPredicate@weakPointer@@SAXQAV1@@PAX@Z 
01:0005B8E0 ?_tryDeref@weakPointer@@SAXQAV1@@PAPAX@Z 
01:0005B9DC ?finalize@weakPointer@@SGXQAV1@@@Z 
01:0005BA64 ?_new@weakPointer@@SAXPAXPAPAV1@@@Z 
01:0005BA8C ?_newPredicate@weakPointer@@SAXPAXPAPAV1@@@Z  (Idle)
01:0005BAB4 ?_object_facts_initializer@weakPointer@@SGXQAV1@@@Z 
--- From 'Obj\multiThread.F1B93BE6.obj'
01:0005BACC ?_append@memory@@SAXPAXPAXPBUbyteCount@@PAPAX@Z 
--- From 'Obj\memory.D6D750BE.obj'
01:0005BAF4 ?isReadable@memory@@SAXPAX@Z 
01:0005BB08 ?isReadable@memory@@SAXPAXPBUbyteCount@@@Z 
01:0005BB28 ?isWritable@memory@@SAXPAX@Z  (Idle)
01:0005BB3C ?isWritable@memory@@SAXPAXPBUbyteCount@@@Z 
01:0005BB5C ?_allocHeap@memory@@SAXPBUbyteCount@@PAPAX@Z 
--- From 'Obj\multiThread.F1B93BE6.obj'
01:0005BB78 ?_allocHeapProfile@memory@@SAXPBUbyteCount@@PBUcontext@@PAPAX@Z 
--- From 'Obj\fileSystem.D4345F5C.obj'
01:0005BBA4 ?_allocAtomicHeap@memory@@SAXPBUbyteCount@@PAPAX@Z 
--- From 'Obj\registry_api.CA39E249.obj'
01:0005BBC0 ?_allocAtomicHeapProfile@memory@@SAXPBUbyteCount@@PBUcontext@@PAPAX@Z 
--- From 'Obj\memory.D6D750BE.obj'
01:0005BBDC ?_allocUncollectableHeap@memory@@SAXPBUbyteCount@@PAPAX@Z  (Idle)
01:0005BBF8 ?_allocUncollectableHeapProfile@memory@@SAXPBUbyteCount@@PBUcontext@@PAPAX@Z 
01:0005BC24 ?_allocString@memory@@SAXPBUcharCount@@PAPB_W@Z  (Idle)
01:0005BC3C ?_allocStringProfile@memory@@SAXPBUcharCount@@PBUcontext@@PAPB_W@Z  (Idle)
01:0005BC80 ?_allocStringBuffer@memory@@SAXPBUcharCount@@PAPB_W@Z 
--- From 'Obj\string8.F7761F11.obj'
01:0005BC9C ?_allocStringBufferProfile@memory@@SAXPBUcharCount@@PBUcontext@@PAPB_W@Z 
--- From 'Obj\memory.D6D750BE.obj'
01:0005BCC0 ?_getChar@memory@@SAXPAXPA_W@Z 
--- From 'Obj\binary.9ACBD368.obj'
01:0005BCD8 ?_getReal@memory@@SAXPAXPAPAN@Z 
01:0005BD04 ?setReal@memory@@SGXPAXN@Z 
01:0005BD40 ?_getReal32@memory@@SAXPAXPAM@Z 
01:0005BD54 ?_getInteger8@memory@@SAXPAXAAUinteger8@@@Z 
01:0005BD6C ?_getInteger16@memory@@SAXPAXAAUinteger16@@@Z 
01:0005BD84 ?_getInteger32@memory@@SAXPAXAAUinteger32@@@Z 
01:0005BD98 ?_getInteger@memory@@SAXPAXPAH@Z 
01:0005BDAC ?_getInteger64@memory@@SAXPAXPAPA_J@Z 
01:0005BDE4 ?_getUnsigned8@memory@@SAXPAXAAUunsigned8@@@Z 
01:0005BDFC ?_getUnsigned16@memory@@SAXPAXAAUunsigned16@@@Z 
01:0005BE14 ?_getUnsigned32@memory@@SAXPAXAAUunsigned32@@@Z 
01:0005BE28 ?_getUnsigned@memory@@SAXPAXPAI@Z 
01:0005BE3C ?_getByteCount@memory@@SAXPAXAAUbyteCount@@@Z 
01:0005BE50 ?_getPointer@memory@@SAXPAXPAPAX@Z 
--- From 'Obj\memory.D6D750BE.obj'
01:0005BE64 ?_getHandle@memory@@SAXPAXAAUhandle@@@Z  (Idle)
--- From 'Obj\binary.9ACBD368.obj'
01:0005BE78 ?_getUnsigned64@memory@@SAXPAXPAPA_K@Z 
01:0005BEB0 ?setInteger64@memory@@SAXPAXPA_J@Z 
01:0005BEC8 ?setUnsigned64@memory@@SAXPAXPA_K@Z 
--- From 'Obj\registry_api.CA39E249.obj'
01:0005BEE0 ?_pointerAdd@memory@@SAXQAVrTypeLibrary@TypeLibraries@RunTime@VIP@@PAXPBUbyteOffset@@PAPAX@Z 
--- From 'Obj\multiThread_api.6CAB3B1E.obj'
01:0005BEF8 ?isNull@memory@@SAXQAVrTypeLibrary@TypeLibraries@RunTime@VIP@@PAX@Z 
--- From 'Obj\memory.D6D750BE.obj'
01:0005BF10 ?_mk_pChar@memory@@SAX_WPAPAUpChar_struct@1@@Z  (Idle)
01:0005BF38 ?_mk_pInteger8@memory@@SAXPBUinteger8@@PAPAUpInteger8_struct@1@@Z  (Idle)
01:0005BF5C ?_mk_pInteger16@memory@@SAXPBUinteger16@@PAPAUpInteger16_struct@1@@Z  (Idle)
01:0005BF84 ?_mk_pInteger@memory@@SAXHPAPAUpInteger_struct@1@@Z  (Idle)
01:0005BFA8 ?_mk_pInteger64@memory@@SAXPA_JPAPAUpInteger64_struct@1@@Z  (Idle)
01:0005BFE4 ?_mk_pUnsigned8@memory@@SAXPBUunsigned8@@PAPAUpUnsigned8_struct@1@@Z  (Idle)
01:0005C008 ?_mk_pUnsigned16@memory@@SAXPBUunsigned16@@PAPAUpUnsigned16_struct@1@@Z  (Idle)
01:0005C030 ?_mk_pUnsigned@memory@@SAXIPAPAUpUnsigned_struct@1@@Z  (Idle)
01:0005C054 ?_mk_pUnsigned64@memory@@SAXPA_KPAPAUpUnsigned64_struct@1@@Z  (Idle)
01:0005C090 ?_mk_pReal32@memory@@SAXMPAPAUpReal32_struct@1@@Z  (Idle)
01:0005C0B4 ?_mk_pReal@memory@@SAXPANPAPAUpReal_struct@1@@Z  (Idle)
01:0005C0E4 ?_mk_pPointer@memory@@SAXPAXPAPAUpPointer_struct@1@@Z  (Idle)
01:0005C10C ?_mk_pHandle@memory@@SAXPBUhandle@@PAPAUpHandle_struct@1@@Z  (Idle)
01:0005C130 ?_mk_pByteCount@memory@@SAXPBUbyteCount@@PAPAUpByteCount_struct@1@@Z  (Idle)
01:0005C154 ?_mk_pCharCount@memory@@SAXPBUcharCount@@PAPAUpCharCount_struct@1@@Z  (Idle)
01:0005C178 ?_deref_pChar@memory@@SAXPAUpChar_struct@1@PA_W@Z  (Idle)
01:0005C190 ?_deref_pInteger8@memory@@SAXPAUpInteger8_struct@1@AAUinteger8@@@Z  (Idle)
01:0005C1A4 ?_deref_pInteger16@memory@@SAXPAUpInteger16_struct@1@AAUinteger16@@@Z  (Idle)
01:0005C1BC ?_deref_pInteger@memory@@SAXPAUpInteger_struct@1@PAH@Z  (Idle)
01:0005C1D0 ?_deref_pInteger64@memory@@SAXPAUpInteger64_struct@1@PAPA_J@Z 
01:0005C208 ?_deref_pUnsigned8@memory@@SAXPAUpUnsigned8_struct@1@AAUunsigned8@@@Z  (Idle)
01:0005C21C ?_deref_pUnsigned16@memory@@SAXPAUpUnsigned16_struct@1@AAUunsigned16@@@Z  (Idle)
01:0005C234 ?_deref_pUnsigned@memory@@SAXPAUpUnsigned_struct@1@PAI@Z  (Idle)
01:0005C248 ?_deref_pUnsigned64@memory@@SAXPAUpUnsigned64_struct@1@PAPA_K@Z 
01:0005C280 ?_deref_pReal32@memory@@SAXPAUpReal32_struct@1@PAM@Z  (Idle)
01:0005C294 ?_deref_pReal@memory@@SAXPAUpReal_struct@1@PAPAN@Z  (Idle)
01:0005C2C0 ?_deref_pPointer@memory@@SAXPAUpPointer_struct@1@PAPAX@Z  (Idle)
01:0005C2D4 ?_deref_pHandle@memory@@SAXPAUpHandle_struct@1@AAUhandle@@@Z  (Idle)
01:0005C2E8 ?_deref_pByteCount@memory@@SAXPAUpByteCount_struct@1@AAUbyteCount@@@Z  (Idle)
01:0005C2FC ?_deref_pCharCount@memory@@SAXPAUpCharCount_struct@1@AAUcharCount@@@Z  (Idle)
01:0005C310 ?_bitOr@bit@@SAXIIIPAI@Z  (Idle)
01:0005C338 ?_bitOr@bit@@SAXIIIIPAI@Z 
01:0005C370 ?_bitOr@bit@@SAXIIIIIPAI@Z  (Idle)
01:0005C3B4 ?_bitOrList@bit@@SAXPAU?$__list_struct@Uunsigned@@@@PAI@Z  (Idle)
01:0005C3D0 ?bitOrList_Tail@bit@@SAXPAU?$__list_struct@Uunsigned@@@@IPAI@Z 
01:0005C420 ?_getLow4of8@bit@@SAXPBUunsigned8@@AAUunsigned4@@@Z 
01:0005C454 ?_setLow4of8@bit@@SAXPBUunsigned8@@PBUunsigned4@@AAU2@@Z  (Idle)
01:0005C4B8 ?_getHigh4of8@bit@@SAXPBUunsigned8@@AAUunsigned4@@@Z 
01:0005C500 ?_setHigh4of8@bit@@SAXPBUunsigned8@@PBUunsigned4@@AAU2@@Z  (Idle)
01:0005C574 ?_swap4of8@bit@@SAXPBUunsigned8@@AAU2@@Z  (Idle)
01:0005C5E4 ?_getLow8of16@bit@@SAXPBUunsigned16@@AAUunsigned8@@@Z 
01:0005C61C ?_setLow8of16@bit@@SAXPBUunsigned16@@PBUunsigned8@@AAU2@@Z  (Idle)
01:0005C668 ?_getHigh8of16@bit@@SAXPBUunsigned16@@AAUunsigned8@@@Z 
01:0005C6B0 ?_setHigh8of16@bit@@SAXPBUunsigned16@@PBUunsigned8@@AAU2@@Z  (Idle)
01:0005C710 ?_swap8of16@bit@@SAXPBUunsigned16@@AAU2@@Z  (Idle)
--- From 'Obj\gui_api.12FAE6A8.obj'
01:0005C784 ?_getLow16of32@bit@@SAXIAAUunsigned16@@@Z 
01:0005C7B4 ?_setLow16of32@bit@@SAXIPBUunsigned16@@PAI@Z 
01:0005C7E8 ?_getHigh16of32@bit@@SAXIAAUunsigned16@@@Z 
01:0005C828 ?_setHigh16of32@bit@@SAXIPBUunsigned16@@PAI@Z 
--- From 'Obj\registry_api.CA39E249.obj'
01:0005C878 ?_swap16of32@bit@@SAXIPAI@Z 
--- From 'Obj\memory.D6D750BE.obj'
01:0005C8D8 ?_toBigEndian@bit@@SAXIPAI@Z  (Idle)
01:0005C98C ?_bitSplit@bit@@SAXIPAPAU?$__list_struct@Uunsigned@@@@@Z 
01:0005C9F8 ?getUnsigned32bytes@bit@@SAXPBUunsigned32@@AAUunsigned16@@1@Z  (Idle)
01:0005CA34 ?getUnsigned64bytes@bit@@SAXPA_KPAIPAI@Z  (Idle)
01:0005CA54 ?getInteger64bytes@bit@@SAXPA_JPAIPAH@Z  (Idle)
01:0005CA74 ?_mkUnsigned32@bit@@SAXPBUunsigned16@@0PAI@Z  (Idle)
01:0005CAA8 ?_mkInteger32@bit@@SAXPBUunsigned16@@PBUinteger16@@PAH@Z  (Idle)
01:0005CAE4 ?_mkUnsigned64@bit@@SAXIIPAPA_K@Z  (Idle)
01:0005CB34 ?_mkInteger64@bit@@SAXIHPAPA_J@Z  (Idle)
01:0005CB8C weakPointer?_initObject@@@QAGXQAV1@H@Z 
01:0005CBAC ?@create_object@weakPointer@@SGQAV1@@XZ 
01:0005CBC8 weakPointer?_InternalFinalizer@@@QAGXQAV1@@Z 
--- From 'Obj\string.00BC1BE1.obj'
01:0005CC10 ?classInfo@string_exception@@SAXPAPB_W0@Z 
01:0005CC2C ?emptyString@string_exception@@SAXPAXPAPB_W1@Z 
--- From 'Obj\outputStreamSupport.2B16F673.obj'
01:0005CC54 ?format_exceptionHandler@string_exception@@SAXPBUtraceId@3@PB_W@Z 
--- From 'Obj\string.00BC1BE1.obj'
01:0005CD3C ?outOfBoundaries@string_exception@@SAXPAXPAPB_W1@Z 
01:0005CD64 ?oddOffset@string_exception@@SAXPAXPAPB_W1@Z 
01:0005CD8C ?raise_EmptyString@string_exception@@SAXX@Z 
01:0005CDA4 ?raise_OutOfBoundaries@string_exception@@SAXXPBUcharCount@@1@Z 
--- From 'Obj\fileSystem.D4345F5C.obj'
01:0005CE64 ?raise_OddOffset@string_exception@@SAXXPBUbyteCount@@@Z 
--- From 'Obj\string.00BC1BE1.obj'
01:0005CED4 ?classInfo@string@@SAXPAPB_W0@Z 
--- From 'Obj\fileSystem.D4345F5C.obj'
01:0005CEF0 ?_create@string@@SAXPBUcharCount@@PB_WPAPB_W@Z 
--- From 'Obj\string.00BC1BE1.obj'
01:0005CF38 ?_tryCreate@string@@SAXPBUcharCount@@PB_WPAPB_W@Z 
--- From 'Obj\systemInformation_api.89ED56AB.obj'
01:0005CF90 ?_createCopy@string@@SAXPB_WPAPB_W@Z 
--- From 'Obj\string.00BC1BE1.obj'
01:0005D010 ?hasSuffix@string@@SAXPB_W0PAPB_W@Z  (Idle)
01:0005D074 ?hasPrefix@string@@SAXPB_W0PAPB_W@Z  (Idle)
01:0005D0A4 ?_hasPrefixPtr@string@@SAXPAUpChar_struct@memory@@0PAPAU23@@Z 
--- From 'Obj\regExp.1C7438E9.obj'
01:0005D140 ?_concat@string@@SAXPB_W0PAPB_W@Z 
01:0005D1B8 ?_concat@string@@SAXPB_W00PAPB_W@Z 
--- From 'Obj\string.00BC1BE1.obj'
01:0005D260 ?_concat@string@@SAXPB_W000PAPB_W@Z 
01:0005D288 ?_concat@string@@SAXPB_W0000PAPB_W@Z  (Idle)
01:0005D2A8 ?_concat@string@@SAXPB_W00000PAPB_W@Z 
--- From 'Obj\registry_api.CA39E249.obj'
01:0005D3F8 ?_concatList@string@@SAXPAU?$__list_struct@U1@@@PAPB_W@Z 
--- From 'Obj\string.00BC1BE1.obj'
01:0005D490 ?_concatWithDelimiter@string@@SAXPAU?$__list_struct@U1@@@PB_WPAPB_W@Z 
01:0005D5B4 ?concatListWithDelimiter_inner@string@@SAXPAXPAU?$__list_struct@U1@@@PAXPBUbyteCount@@PAU?$__list_struct@UcharCount@@@@@Z 
01:0005D664 ?_copyDelimiterIfNeeded@string@@SAXPAXPAU?$__list_struct@U1@@@PAXPBUbyteCount@@PAPAX@Z 
01:0005D69C ?getStringListInfo@string@@SAXPAU?$__list_struct@U1@@@PBUpositive@@1AAU3@3PAPAU?$__list_struct@UcharCount@@@@@Z 
01:0005D740 ?concatStringList@string@@SAXPAXPAU?$__list_struct@U1@@@PAU?$__list_struct@UcharCount@@@@@Z 
--- From 'Obj\namedValue.547BB274.obj'
01:0005D800 ?equalIgnoreCase@string@@SAXPB_W0@Z 
--- From 'Obj\string.00BC1BE1.obj'
01:0005D830 ?equalIgnoreCase@string@@SAXPB_W0I@Z  (Idle)
01:0005D858 ?_compareIgnoreCase@string@@SAXPB_W0PAPAUcompareResult_struct@_builtIn@@@Z  (Idle)
01:0005D9AC ?_compareIgnoreCase@string@@SAXPB_W0IPAPAUcompareResult_struct@_builtIn@@@Z  (Idle)
01:0005DAF8 ?_adjustRight@string@@SAXPB_WPBUcharCount@@PAPB_W@Z 
01:0005DB18 ?_adjustRight@string@@SAXPB_WPBUcharCount@@0PAPB_W@Z 
01:0005DB34 ?_adjustRight@string@@SAXPB_WPBUcharCount@@0PAUadjustBehaviour_struct@1@PAPB_W@Z 
01:0005DBA4 ?_adjustLeft@string@@SAXPB_WPBUcharCount@@PAPB_W@Z 
01:0005DBC4 ?_adjustLeft@string@@SAXPB_WPBUcharCount@@0PAPB_W@Z 
01:0005DBE0 ?_adjust@string@@SAXPB_WPBUcharCount@@PAUadjustSide_struct@1@PAPB_W@Z  (Idle)
01:0005DC08 ?_adjust@string@@SAXPB_WPBUcharCount@@0PAUadjustSide_struct@1@PAPB_W@Z  (Idle)
01:0005DC30 ?_adjust@string@@SAXPB_WPBUcharCount@@0PAUadjustBehaviour_struct@1@PAUadjustSide_struct@1@PAPB_W@Z  (Idle)
01:0005DC58 ?_crop@string@@SAXPB_WPBUcharCount@@PAUadjustSide_struct@1@PAUadjustBehaviour_struct@1@PAPB_W@Z 
01:0005DCFC ?_adjustLeft@string@@SAXPB_WPBUcharCount@@0PAUadjustBehaviour_struct@1@PAPB_W@Z 
01:0005DD5C ?_split@string@@SAXPB_W0PAPAU?$__list_struct@U1@@@@Z 
--- From 'Obj\runTime_api.CB430B85.obj'
01:0005DDF8 ?format@string@@SAPB_W0@Z 
--- From 'Obj\string.00BC1BE1.obj'
01:0005DE54 ?write@string@@SAPB_WXZ 
01:0005DE6C ?_rear@string@@SAXPB_WPBUcharCount@@PAPB_W@Z  (Idle)
--- From 'Obj\regExp.1C7438E9.obj'
01:0005DEC8 ?_fromPosition@string@@SAXPB_WPBUcharCount@@PAPB_W@Z 
--- From 'Obj\string.00BC1BE1.obj'
01:0005DEFC ?front1@string@@SAXPB_WPA_WPAPB_W@Z 
01:0005DF20 ?front_wc@string@@SAXPB_WPBUcharCount@@PAPB_W2@Z 
--- From 'Obj\regExp.1C7438E9.obj'
01:0005DF58 ?front@string@@SAXPB_WPBUcharCount@@PAPB_W2@Z 
--- From 'Obj\fileSystem.D4345F5C.obj'
01:0005DFA0 ?tryFront@string@@SAXPB_WPBUcharCount@@PAPB_W2@Z 
--- From 'Obj\string.00BC1BE1.obj'
01:0005DFE0 ?checkPosition@string@@SAXPBUcharCount@@PB_W@Z 
--- From 'Obj\fileSystem.D4345F5C.obj'
01:0005E044 ?_frontChar@string@@SAXPB_WPA_W@Z 
--- From 'Obj\string.00BC1BE1.obj'
01:0005E05C ?_tryFrontChar@string@@SAXPB_WPA_W@Z  (Idle)
--- From 'Obj\fileSystem.D4345F5C.obj'
01:0005E080 ?frontChar@string@@SAXPB_WPA_WPAPB_W@Z 
01:0005E0AC ?_tryLastChar@string@@SAXPB_WPA_W@Z 
01:0005E0E4 ?lastChar@string@@SAXPB_WPAPB_WPA_W@Z 
--- From 'Obj\string.00BC1BE1.obj'
01:0005E138 ?_toCharList@string@@SAXPB_WPAPAU?$__list_struct@Uchar@@@@@Z 
--- From 'Obj\errorPresentationDialog.9174D14B.obj'
01:0005E1A4 ?frontToken@string@@SAXPB_WPAPB_W1@Z 
--- From 'Obj\string.00BC1BE1.obj'
01:0005E1C4 ?isValidToRead@string@@SAXPB_W@Z  (Idle)
01:0005E1E4 ?_replaceFirst@string@@SAXPB_W00PAUcaseSensitivity_struct@1@PAPB_W@Z  (Idle)
--- From 'Obj\errorPresentationDialog.9174D14B.obj'
01:0005E218 ?_replaceAll@string@@SAXPB_W00PAPB_W@Z 
--- From 'Obj\string.00BC1BE1.obj'
01:0005E234 ?_replaceAll@string@@SAXPB_W00PAUcaseSensitivity_struct@1@PAPB_W@Z 
01:0005E268 ?_replaceAll@string@@SAXPB_W00PAUcaseSensitivity_struct@1@PAIPAPB_W@Z  (Idle)
01:0005E2A0 ?_caseToInteger@string@@SAXPAUcaseSensitivity_struct@1@PAH@Z 
01:0005E2D0 ?_replacePart@string@@SAXPB_WPBUcharCount@@10PAPB_W@Z  (Idle)
01:0005E39C ?_tryReplacePart@string@@SAXPB_WPBUcharCount@@10PAPB_W@Z  (Idle)
01:0005E464 ?_search@string@@SAXPB_W0AAUcharCount@@@Z  (Idle)
--- From 'Obj\errorPresentationDialog.9174D14B.obj'
01:0005E4A0 ?_search@string@@SAXPB_W0PAUcaseSensitivity_struct@1@AAUcharCount@@@Z 
--- From 'Obj\string.00BC1BE1.obj'
01:0005E560 ?_searchLast@string@@SAXPB_W0PAUcaseSensitivity_struct@1@AAUcharCount@@@Z  (Idle)
--- From 'Obj\registry_api.CA39E249.obj'
01:0005E620 ?_subString@string@@SAXPB_WPBUcharCount@@1PAPB_W@Z 
--- From 'Obj\string.00BC1BE1.obj'
01:0005E66C ?_trySubString@string@@SAXPB_WPBUcharCount@@1PAPB_W@Z  (Idle)
01:0005E6B0 ?_toUpperCase@string@@SAXPB_WPAPB_W@Z 
01:0005E6D4 ?_toLowerCase@string@@SAXPB_WPAPB_W@Z 
01:0005E6F8 ?isUpperCase@string@@SAXPB_W@Z  (Idle)
01:0005E730 ?isLowerCase@string@@SAXPB_W@Z  (Idle)
01:0005E768 ?hasDecimalDigits@string@@SAXPB_W@Z  (Idle)
01:0005E784 ?isDecimalDigits@string@@SAXPB_W@Z 
01:0005E7D8 ?decimalDigit@string@@SAX_W@Z 
01:0005E7FC ?hasAlpha@string@@SAXPB_W@Z  (Idle)
01:0005E824 ?isWhiteSpace@string@@SAXPB_W@Z  (Idle)
01:0005E82C ?_split_delimiter@string@@SAXPB_W0PAPAU?$__list_struct@U1@@@@Z 
01:0005E858 ?_splitByString@string@@SAXPB_W0PBUcharCount@@PAPAU?$__list_struct@U1@@@@Z 
01:0005E900 ?_split_length@string@@SAXPB_WPAU?$__list_struct@UcharCount@@@@PAPAU?$__list_struct@U1@@@@Z 
--- From 'Obj\registry.7837C76D.obj'
01:0005E99C ?_trim@string@@SAXPB_WPAPB_W@Z 
--- From 'Obj\string.00BC1BE1.obj'
01:0005E9C0 ?_charToString@string@@SAX_WPAPB_W@Z 
01:0005E9EC ?_charUpper@string@@SAX_WPA_W@Z  (Idle)
01:0005EA08 ?_charLower@string@@SAX_WPA_W@Z  (Idle)
01:0005EA24 ?splitStringBySeparators@string@@SAXPB_W0PAPB_WPA_W2@Z 
01:0005EA84 ?_getMinPosition@string@@SAXPB_W0PBUcharCount@@AAU2@@Z 
01:0005EAF8 ?isName@string@@SAXPB_W@Z  (Idle)
01:0005EB4C ?isLegalFrontCharOfName@string@@SAX_W@Z 
01:0005EB80 ?isCorrectRemainderOfName@string@@SAXPB_W@Z 
01:0005EBD4 ?isCorrectRemainderCharOfName@string@@SAX_W@Z 
01:0005EC0C ?isClassIdentifier@string@@SAXPB_W0@Z  (Idle)
01:0005EC78 ?isObjectIdentifier@string@@SAXPB_W0@Z  (Idle)
01:0005ECF4 ?isCorrectMemberName@string@@SAXPB_W@Z 
01:0005ED88 ?keywordString@string@@SAXPB_WPAPAUboolean_struct@_builtIn@@@Z 
01:0005F610 ?isCorrectClassFrontChar@string@@SAX_W@Z 
--- From 'Obj\fileSystem.D4345F5C.obj'
01:0005F644 ?_searchChar@string@@SAXPB_W_WAAUcharCount@@@Z 
01:0005F668 ?_searchChar@string@@SAXPB_W_WPAUcaseSensitivity_struct@1@AAUcharCount@@@Z 
--- From 'Obj\string.00BC1BE1.obj'
01:0005F6F4 ?_subchar@string@@SAXPB_WPBUcharCount@@PA_W@Z  (Idle)
01:0005F734 ?_trySubchar@string@@SAXPB_WPBUcharCount@@PA_W@Z  (Idle)
01:0005F76C ?_getCharValue@string@@SAX_WAAUunsigned16@@@Z  (Idle)
01:0005F780 ?_getCharFromValue@string@@SAXPBUunsigned16@@PA_W@Z  (Idle)
01:0005F794 ?listToArray@string@@SAXPAU?$__list_struct@U1@@@PAPAXPAI@Z  (Idle)
01:0005F7FC ?_arrayToList@string@@SAXPAXIPAPAU?$__list_struct@U1@@@@Z  (Idle)
01:0005F810 ?fillArray@string@@SAXPAXPAU?$__list_struct@U1@@@@Z 
01:0005F87C ?_fillList@string@@SAXPBUunsignedNative@@IPAPAU?$__list_struct@U1@@@@Z 
01:0005F8E0 ?_createFromCharList@string@@SAXPAU?$__list_struct@Uchar@@@@PAPB_W@Z  (Idle)
01:0005F928 ?fillString@string@@SAXPB_WPAU?$__list_struct@Uchar@@@@@Z 
01:0005F9A0 isWhiteSpace_C 
01:0005F9E0 isWhiteSpace_S 
01:0005FA3C ?_last@string@@SAXPB_WPBUcharCount@@PAPB_W@Z  (Idle)
01:0005FA44 ?isWhiteSpace@string@@SAX_W@Z  (Idle)
01:0005FA4C ?keywordString@string@@SAXPB_WPAUboolean_struct@_builtIn@@@Z  (Idle)
01:000603A8 ?keywordString@string@@SAXPAPB_WPAPAUboolean_struct@_builtIn@@@Z  (Idle)
01:00060ABC ?classInfo@outputStream_string@@SAXPAPB_W0@Z 
01:00060AD8 ?new@outputStream_string@@SAXQAV1@@@Z 
01:00060BBC ?setMode@outputStream_string@@SGXQAVstream@@@PAUmode_struct@2@@Z 
01:00060BFC ?flush@outputStream_string@@SGXQAVoutputStream@@@@Z 
01:00060C0C ?resetString@outputStream_string@@SAXQAV1@@@Z 
01:00060CD4 ?close@outputStream_string@@SGXQAVstream@@@@Z 
01:00060D1C ?bufferFullCallBack@outputStream_string@@SAXQAV1@@PAPAXAAUbyteCount@@@Z 
01:00060D94 ?get_buffer_from_db@outputStream_string@@SAXQAV1@@IPAPAXAAUbyteCount@@@Z 
01:00060E10 ?_getString@outputStream_string@@SAXQAV1@@PAPB_W@Z 
01:00060F08 ?writeBuffersToString@outputStream_string@@SAXQAV1@@PBUintegerNative@@@Z 
01:00060F84 ?getPosition@outputStream_string@@SGPBUfileSize@fileSystem_api@@QAVstream@@@@Z 
01:00061040 ?setPosition@outputStream_string@@SGXQAVstream@@@PBUfileSize@fileSystem_api@@@Z 
01:000610C0 ?checkOddness@outputStream_string@@SAXPAUmode_struct@stream@@PBUbyteCount@@@Z 
01:000610FC ?handleSetOffset@outputStream_string@@SAXQAV1@@PBUbyteCount@@@Z 
01:00061184 ?updateCurrentBuffer@outputStream_string@@SAXQAV1@@@Z 
01:000612E8 ?findBufferForOffset@outputStream_string@@SAXQAV1@@PBUbyteCount@@PAIPAPAXAAU3@4@Z 
01:00061374 ?handleBiggerOffset@outputStream_string@@SAXQAV1@@PBUbyteCount@@@Z 
01:000614FC ?_newBuffer@outputStream_string@@SAXQAV1@@PBUbyteCount@@PAPAX@Z 
01:00061588 ?_getSizeBefore@outputStream_string@@SAXQAV1@@AAUbyteCount@@@Z 
01:00061618 ?bufferNotFound_exception@outputStream_string@@SAXI@Z 
01:0006165C ?checkUsePrevBuff@outputStream_string@@SAXQAV1@@@Z 
01:000616B8 ?getBuffer@outputStream_string@@SGXQAVbufferSupport@@@PAPAXAAUbyteCount@@@Z 
01:00061758 ?getBufferLocked@outputStream_string@@SGXQAVbufferSupport@@@PAPAXAAUbyteCount@@@Z 
01:00061774 ?addContentsChangedListener@outputStream_string@@SAXQAV1@@X@Z 
01:000617F8 ?onWrite@outputStream_string@@SAXQAV1@@QAVoutputSupport@@@@Z 
--- From 'Obj\errorPresentationDialog.9174D14B.obj'
01:00061878 ?_new@outputStream_string@@SAXPAPAV1@@@Z 
--- From 'Obj\string.00BC1BE1.obj'
01:000618A0 ?_object_facts_initializer@outputStream_string@@SGXQAV1@@@Z 
01:000618C0 ?classInfo@inputStream_string@@SAXPAPB_W0@Z 
01:000618DC ?new@inputStream_string@@SAXQAV1@@PB_W@Z 
01:00061930 ?endOfStream@inputStream_string@@SAXQAVinputStream@@@@Z 
01:0006196C ?setMode@inputStream_string@@SGXQAVstream@@@PAUmode_struct@2@@Z 
01:000619AC ?close@inputStream_string@@SGXQAVstream@@@@Z 
01:000619C4 ?getCRLFconversion@inputStream_string@@SGPAUboolean_struct@_builtIn@@QAVstream@@@@Z 
01:000619CC ?setCRLFconversion@inputStream_string@@SGXQAVstream@@@PAUboolean_struct@_builtIn@@@Z 
01:000619F4 ?getPosition@inputStream_string@@SGPBUfileSize@fileSystem_api@@QAVstream@@@@Z 
01:00061A34 ?setPosition@inputStream_string@@SGXQAVstream@@@PBUfileSize@fileSystem_api@@@Z 
01:00061AC0 ?checkOddness@inputStream_string@@SAXPAUmode_struct@stream@@PBUbyteCount@core@@@Z 
01:00061AFC ?getBuffer@inputStream_string@@SGXQAVbufferSupport@@@PAPAXAAUbyteCount@@@Z 
01:00061B18 ?getBufferLocked@inputStream_string@@SGXQAVbufferSupport@@@PAPAXAAUbyteCount@@@Z 
01:00061B34 ?_new@inputStream_string@@SAXPB_WPAPAVinputStream@@@@Z  (Idle)
01:00061B5C ?_object_facts_initializer@inputStream_string@@SGXQAV1@@@Z 
01:00061D20 outputStream_string?_initObject@@@QAGXQAV1@H@Z 
01:00061D58 ?@create_object@outputStream_string@@SGQAV1@@XZ 
01:00061D74 outputStream_string?_InternalFinalizer@@@QAGXQAV1@@Z 
01:00061F00 inputStream_string?_initObject@@@QAGXQAV1@H@Z 
01:00061F34 ?@create_object@inputStream_string@@SGQAV1@@XZ 
01:00061F50 inputStream_string?_InternalFinalizer@@@QAGXQAV1@@Z 
--- From 'Obj\exceptionDump.EEBF2A9C.obj'
01:00061F60 ?classInfo@exceptionDump@@SAXPAPB_W0@Z  (Idle)
01:00061F7C ?dump@exceptionDump@@SAXQAVoutputStream@@@PBUtraceId@exception@@@Z 
--- From 'Obj\errorPresentationDialog.9174D14B.obj'
01:00061FA4 ?dump_info@exceptionDump@@SAXQAVoutputStream@@@PAUtraceInfo_struct@exception@@@Z 
--- From 'Obj\exceptionDump.EEBF2A9C.obj'
01:00062030 ?dumpToStdOutput@exceptionDump@@SAXPBUtraceId@exception@@@Z 
01:00062058 ?dumpToStdOutput_info@exceptionDump@@SAXPAUtraceInfo_struct@exception@@@Z 
01:000620AC ?_dumpToString@exceptionDump@@SAXPBUtraceId@exception@@PAPB_W@Z  (Idle)
01:000620D4 ?_dumpToString_info@exceptionDump@@SAXPAUtraceInfo_struct@exception@@PAPB_W@Z 
01:0006212C ?dumpToStdOutputInTrap@exceptionDump@@SAXPAUtraceInfo_struct@exception@@@Z 
01:000621D4 ?processErrorOnDumpToStdOut@exceptionDump@@SAXPAUtraceInfo_struct@exception@@@Z 
01:00062248 ?processErrorOnDumpToStdOutTrapped@exceptionDump@@SAXPBUtraceId@@@Z 
01:000622A8 ?_formatDescriptorList@exceptionDump@@SAXPAU?$__list_struct@Udescriptor@exception@@@@PAPB_W@Z  (Idle)
01:00062300 ?_formatDescriptor@exceptionDump@@SAXPAUdescriptor_struct@exception@@PAPB_W@Z  (Idle)
01:000623A8 ?_formatExtraInfo@exceptionDump@@SAXPAU?$__list_struct@UnamedValue@@@@PAPB_W@Z  (Idle)
01:00062400 ?_formatLineInfoList@exceptionDump@@SAXPAU?$__list_struct@UlineInfo@exception@@@@PAPB_W@Z  (Idle)
01:00062458 ?_fillUsrMsgTags@exceptionDump@@SAXPB_WPAU?$__list_struct@UnamedValue@@@@PAPB_W@Z 
01:00062530 ?_substituteTag@exceptionDump@@SAXPB_WPAU?$__list_struct@UnamedValue@@@@PAPB_W@Z 
01:0006257C ?getUserMsgFromNV_dt@exceptionDump@@SAXPAU?$__list_struct@UnamedValue@@@@PAPB_W@Z 
01:00062614 ?getUserMsg_dt@exceptionDump@@SAXPAUdescriptor_struct@exception@@PAPB_W@Z 
01:0006262C ?_getUserMsg@exceptionDump@@SAXPAU?$__list_struct@Udescriptor@exception@@@@PAPB_W@Z 
--- From 'Obj\errorPresentationDialog.9174D14B.obj'
01:000626D0 ?_tryGetUserMessage@exceptionDump@@SAXPBUtraceId@exception@@PAPB_W@Z 
--- From 'Obj\exceptionDump.EEBF2A9C.obj'
01:000626F8 ?_tryGetUserMessage_info@exceptionDump@@SAXPAUtraceInfo_struct@exception@@PAPB_W@Z 
01:00062710 ?_tryGetUserMessageFromDescriptorList@exceptionDump@@SAXPAU?$__list_struct@Udescriptor@exception@@@@PAPB_W@Z 
01:0006273C ?writeTraceInfo@exceptionDump@@SAXQAVoutputStream@@@PAUtraceInfo_struct@exception@@@Z 
01:00062784 ?writeDescriptor_list@exceptionDump@@SAXQAVoutputStream@@@PAU?$__list_struct@Udescriptor@@@@@Z 
01:00062810 ?writeErrorDescriptorInformation@exceptionDump@@SAXQAVoutputStream@@@PAUclassInfoDescriptor_struct@exception@@PAUexceptionDescriptor_struct@4@PAUkind_struct@4@PAU?$__list_struct@UnamedValue@@@@PAPBUgmtTimeValue@@I@Z 
01:00062AD8 ?section@exceptionDump@@SAXQAVoutputStream@@@PB_W@Z 
01:00062B20 ?writeOSInformation@exceptionDump@@SAXQAVoutputStream@@@PB_W@Z 
01:00062B98 ?writeLineInfo_list@exceptionDump@@SAXQAVoutputStream@@@PAU?$__list_struct@UlineInfo@@@@@Z 
01:00062C10 ?writeLineInfo@exceptionDump@@SAXQAVoutputStream@@@PAUlineInfo_struct@exception@@@Z 
01:00062CA4 ?writeException@exceptionDump@@SAXQAVoutputStream@@@PAUexceptionDescriptor_struct@exception@@@Z 
01:00062D08 ?writeExtraInfo@exceptionDump@@SAXQAVoutputStream@@@PAU?$__list_struct@UnamedValue@@@@@Z 
01:00062D84 ?writeClassInfo@exceptionDump@@SAXQAVoutputStream@@@PB_W1@Z 
01:00062DC8 ?writePosition@exceptionDump@@SAXQAVoutputStream@@@IPB_W@Z 
01:00062E0C ?writeNamedValue@exceptionDump@@SAXQAVoutputStream@@@PAUnamedValue_struct@core@@@Z 
01:00062EC8 ?writeValue_or_NULL@exceptionDump@@SAXQAVoutputStream@@@PB_W@Z 
01:00062F40 ?writeValue@exceptionDump@@SAXQAVoutputStream@@@PAUvalue_struct@core@@@Z 
01:00063248 ?writeValue_or_NULL@exceptionDump@@SAXQAVoutputStream@@@PAD@Z 
01:000632C0 ?writeValue_or_NULL@exceptionDump@@SAXQAVoutputStream@@@QAE@Z 
01:00063338 ?writeValue_or_NULL@exceptionDump@@SAXQAVoutputStream@@@PBUbinaryNonAtomic@@@Z 
01:000633B0 ?writeValue_or_NULL@exceptionDump@@SAXQAVoutputStream@@@QAVobject@@@@Z 
--- From 'Obj\fileSystem.D4345F5C.obj'
01:00063430 ?classInfo@outputStream_file@@SAXPAPB_W0@Z 
01:0006344C ?create@outputStream_file@@SAXQAV1@@PB_W@Z 
01:00063470 ?create@outputStream_file@@SAXQAV1@@PB_WPAUmode_struct@stream@@@Z 
01:00063490 ?create@outputStream_file@@SAXQAV1@@PB_WPAUmode_struct@stream@@PAUaccessPermit_struct@fileSystem_api@@@Z 
01:000634A4 ?create@outputStream_file@@SAXQAV1@@PB_WPAUmode_struct@stream@@PAUaccessPermit_struct@fileSystem_api@@PAU?$__list_struct@UfileAttributeAtom@@@@@Z 
01:000634EC ?create8@outputStream_file@@SAXQAV1@@PB_W@Z 
01:00063510 ?commonPartOfConstructors@outputStream_file@@SAXQAV1@@PBUfileHandle@@PAUmode_struct@stream@@@Z 
01:00063570 ?handleMode_create@outputStream_file@@SAXQAV1@@PAUmode_struct@stream@@@Z 
01:000635C0 ?openFile@outputStream_file@@SAXQAV1@@PB_W@Z 
01:000635E0 ?openFile8@outputStream_file@@SAXQAV1@@PB_W@Z 
01:00063600 ?openFile@outputStream_file@@SAXQAV1@@PB_WPAUmode_struct@stream@@@Z 
01:00063614 ?openFile@outputStream_file@@SAXQAV1@@PB_WPAUmode_struct@stream@@PAUaccessPermit_struct@fileSystem_api@@@Z 
01:00063678 ?append@outputStream_file@@SAXQAV1@@PB_W@Z 
01:0006368C ?append8@outputStream_file@@SAXQAV1@@PB_W@Z 
01:000636A0 ?append@outputStream_file@@SAXQAV1@@PB_WPAUmode_struct@stream@@@Z 
01:00063724 ?newHandleFile@outputStream_file@@SAXQAV1@@PBUfileHandle@@PAUmode_struct@stream@@@Z 
01:00063774 ?newHandle@outputStream_file@@SAXQAV1@@PBUfileHandle@@PAUmode_struct@stream@@@Z 
01:0006377C ?checkUnicodeSignature@outputStream_file@@SAXQAV1@@PAUmode_struct@stream@@PAUboolean_struct@_builtIn@@@Z 
01:00063814 ?checkSign@outputStream_file@@SAXQAV1@@PBUbyteCount@@PAUpChar_struct@memory@@PAUboolean_struct@_builtIn@@@Z 
01:000638F4 ?getCRLFconversion@outputStream_file@@SGPAUboolean_struct@_builtIn@@QAVstream@@@@Z 
01:00063920 ?setCRLFconversion@outputStream_file@@SGXQAVstream@@@PAUboolean_struct@_builtIn@@@Z 
01:00063984 ?getPosition@outputStream_file@@SGPBUfileSize@fileSystem_api@@QAVstream@@@@Z 
01:00063A7C ?_handlingGetPosition@outputStream_file@@SAXQAV1@@PAPBUfileSize@fileSystem_api@@PAAAU34@@Z 
01:00063AFC ?setPosition@outputStream_file@@SGXQAVstream@@@PBUfileSize@fileSystem_api@@@Z 
01:00063C08 ?_checkMovingIsInsideBuffer@outputStream_file@@SAXQAV1@@PAPBUfileSize@fileSystem_api@@1PBUbyteCount@@AAU7@@Z 
01:00063DE8 ?setMaxOffsetUsedInCurrentBuffer@outputStream_file@@SAXQAV1@@PBUbyteCount@@@Z 
01:00063E0C ?_handlingSetPosition@outputStream_file@@SAXQAV1@@PAPBUfileSize@fileSystem_api@@PAAAU34@@Z 
01:00063EF4 ?close@outputStream_file@@SGXQAVstream@@@@Z 
01:00063F48 ?flush@outputStream_file@@SGXQAVoutputStream@@@@Z 
01:00063F9C ?bufferFullCallBack@outputStream_file@@SAXQAV1@@PBUbyteCount@@@Z 
01:0006403C ?convertLFtoCRLF_IfNeeded@outputStream_file@@SAXQAV1@@PAXPBUbyteCount@@PAPAXAAU3@@Z 
01:000640A0 ?convertToANSI_IfNeeded@outputStream_file@@SAXQAV1@@PAXPBUbyteCount@@PAPAXAAU3@@Z 
01:00064130 ?getBuffer@outputStream_file@@SGXQAVbufferSupport@@@PAPAXAAUbyteCount@@@Z 
01:00064198 ?getBufferLocked@outputStream_file@@SGXQAVbufferSupport@@@PAPAXAAUbyteCount@@@Z 
01:000641B4 ?_create@outputStream_file@@SAXPB_WPAPAVoutputStream@@@@Z 
01:000641DC ?_create@outputStream_file@@SAXPB_WPAUmode_struct@stream@@PAPAVoutputStream@@@@Z  (Idle)
01:00064208 ?_create@outputStream_file@@SAXPB_WPAUmode_struct@stream@@PAUaccessPermit_struct@fileSystem_api@@PAPAVoutputStream@@@@Z  (Idle)
01:00064238 ?_create@outputStream_file@@SAXPB_WPAUmode_struct@stream@@PAUaccessPermit_struct@fileSystem_api@@PAU?$__list_struct@UfileAttributeAtom@@@@PAPAVoutputStream@@@@Z  (Idle)
01:0006426C ?_create8@outputStream_file@@SAXPB_WPAPAVoutputStream@@@@Z 
01:00064294 ?_openFile@outputStream_file@@SAXPB_WPAPAVoutputStream@@@@Z  (Idle)
01:000642BC ?_openFile@outputStream_file@@SAXPB_WPAUmode_struct@stream@@PAPAVoutputStream@@@@Z  (Idle)
01:000642E8 ?_openFile@outputStream_file@@SAXPB_WPAUmode_struct@stream@@PAUaccessPermit_struct@fileSystem_api@@PAPAVoutputStream@@@@Z  (Idle)
01:00064318 ?_openFile8@outputStream_file@@SAXPB_WPAPAVoutputStream@@@@Z  (Idle)
--- From 'Obj\errorPresentationDialog.9174D14B.obj'
01:00064340 ?_append@outputStream_file@@SAXPB_WPAPAVoutputStream@@@@Z 
--- From 'Obj\fileSystem.D4345F5C.obj'
01:00064368 ?_append@outputStream_file@@SAXPB_WPAUmode_struct@stream@@PAPAVoutputStream@@@@Z 
01:00064394 ?_append8@outputStream_file@@SAXPB_WPAPAVoutputStream@@@@Z  (Idle)
01:000643BC ?_newHandleFile@outputStream_file@@SAXPBUfileHandle@@PAUmode_struct@stream@@PAPAVoutputStream@@@@Z  (Idle)
01:000643E8 ?_newHandle@outputStream_file@@SAXPBUfileHandle@@PAUmode_struct@stream@@PAPAVoutputStream@@@@Z  (Idle)
01:00064414 ?_commonPartOfConstructors@outputStream_file@@SAXPBUfileHandle@@PAUmode_struct@stream@@PAPAVoutputStream@@@@Z  (Idle)
01:00064440 ?_object_facts_initializer@outputStream_file@@SGXQAV1@@@Z 
01:00064460 ?classInfo@messageFile@@SAXPAPB_W0@Z 
01:0006447C ?append@messageFile@@SAXQAV1@@PB_W@Z 
01:00064490 ?append@messageFile@@SAXQAV1@@PB_WPAUmode_struct@stream@@@Z 
01:000644A8 ?flush@messageFile@@SGXQAVoutputStream@@@@Z 
01:000644B8 ?write@messageFile@@SAXQAVoutputStream@@@@Z 
01:0006454C ?writef@messageFile@@SAXQAVoutputStream@@@PB_W@Z 
01:000645E4 ?writeQuoted@messageFile@@SAXQAVoutputStream@@@@Z 
01:00064678 ?nl@messageFile@@SGXQAVoutputStream@@@@Z 
01:0006470C ?writeBytes@messageFile@@SGXQAVoutputStream@@@PAXPBUbyteCount@@@Z 
01:000647A4 ?save@messageFile@@SGXQAVoutputStream@@@PBUfactDB@@@Z 
01:0006483C ?setMode@messageFile@@SGXQAVstream@@@PAUmode_struct@2@@Z 
01:00064854 ?getMode@messageFile@@SGPAUmode_struct@stream@@QAV3@@@Z 
01:0006486C ?getCRLFconversion@messageFile@@SGPAUboolean_struct@_builtIn@@QAVstream@@@@Z 
01:00064874 ?setCRLFconversion@messageFile@@SGXQAVstream@@@PAUboolean_struct@_builtIn@@@Z 
01:0006489C ?close@messageFile@@SGXQAVstream@@@@Z 
01:000648AC ?getPosition@messageFile@@SGPBUfileSize@fileSystem_api@@QAVstream@@@@Z 
01:000648C4 ?setPosition@messageFile@@SGXQAVstream@@@PBUfileSize@fileSystem_api@@@Z 
01:000648DC ?_append@messageFile@@SAXPB_WPAPAVoutputStream@@@@Z  (Idle)
01:00064904 ?_append@messageFile@@SAXPB_WPAUmode_struct@stream@@PAPAVoutputStream@@@@Z  (Idle)
01:00064930 ?classInfo@inputStream_file@@SAXPAPB_W0@Z 
01:0006494C ?openFile@inputStream_file@@SAXQAV1@@PB_W@Z 
01:0006496C ?openFile8@inputStream_file@@SAXQAV1@@PB_W@Z 
01:0006498C ?openFile@inputStream_file@@SAXQAV1@@PB_WPAUmode_struct@stream@@@Z 
01:000649A0 ?_halfBufferSize@inputStream_file@@SAXQAV1@@AAUbyteCount@@@Z 
01:000649B8 ?commonPartOfConstructors@inputStream_file@@SAXQAV1@@PBUfileHandle@@PAUmode_struct@stream@@PAUboolean_struct@_builtIn@@@Z 
01:00064A78 ?handlingMode@inputStream_file@@SAXQAV1@@PAUmode_struct@stream@@PAUboolean_struct@_builtIn@@@Z 
01:00064B38 ?openFile@inputStream_file@@SAXQAV1@@PB_WPAUmode_struct@stream@@PAUaccessPermit_struct@fileSystem_api@@@Z 
01:00064B74 ?openFile@inputStream_file@@SAXQAV1@@PB_WPAUmode_struct@stream@@PAUaccessPermit_struct@fileSystem_api@@PBUbyteCount@@@Z 
01:00064BC8 ?checkBufferSize@inputStream_file@@SAXPBUbyteCount@@@Z 
01:00064BF8 ?newHandleFile@inputStream_file@@SAXQAV1@@PBUfileHandle@@PAUmode_struct@stream@@@Z 
01:00064C2C ?newHandle@inputStream_file@@SAXQAV1@@PBUfileHandle@@PAUmode_struct@stream@@@Z 
01:00064C40 ?checkUnicodeSignature@inputStream_file@@SAXQAV1@@PAUboolean_struct@_builtIn@@@Z 
01:00064CCC ?getPosition@inputStream_file@@SGPBUfileSize@fileSystem_api@@QAVstream@@@@Z 
01:00064D8C ?_handlingFileMode@inputStream_file@@SAXQAV1@@PAUmode_struct@stream@@PBUbyteCount@@2AAU5@@Z 
01:00064E28 ?_handleTextMode@inputStream_file@@SAXQAV1@@PAUmode_struct@stream@@PBUbyteCount@@IAAU5@@Z 
01:00064F30 ?_getPassedConv@inputStream_file@@SAXPAU?$__list_struct@UbyteCount@@@@IIPBU2@PAI@Z 
01:00064FD0 ?setPosition@inputStream_file@@SGXQAVstream@@@PBUfileSize@fileSystem_api@@@Z 
01:0006512C ?_checkMovingIsInsideBuffer@inputStream_file@@SAXPAPBUfileSize@fileSystem_api@@0PBUbyteCount@@2AAU6@@Z 
01:00065358 ?_handlingSetPosition@inputStream_file@@SAXQAV1@@PAPBUfileSize@fileSystem_api@@PAAAU34@@Z 
01:000653E8 ?checkOddness@inputStream_file@@SAXPAPBUfileSize@fileSystem_api@@@Z 
01:0006545C ?endOfStream@inputStream_file@@SAXQAVinputStream@@@@Z 
01:000654BC ?isEndOfFile@inputStream_file@@SAXQAV1@@PAPBUfileSize@fileSystem_api@@@Z 
01:00065524 ?close@inputStream_file@@SGXQAVstream@@@@Z 
01:00065570 ?getCRLFconversion@inputStream_file@@SGPAUboolean_struct@_builtIn@@QAVstream@@@@Z 
01:000655B8 ?setCRLFconversion@inputStream_file@@SGXQAVstream@@@PAUboolean_struct@_builtIn@@@Z 
01:00065688 ?setMode@inputStream_file@@SGXQAVstream@@@PAUmode_struct@2@@Z 
01:00065768 ?_checkModeAndPos@inputStream_file@@SAXQAV1@@PAUmode_struct@stream@@PAPBUfileSize@fileSystem_api@@PAAAU56@@Z 
01:00065894 ?exTextBufferCB@inputStream_file@@SAXQAV1@@PAPAXAAUbyteCount@@@Z 
01:000658F0 ?exTextLockBufferCB@inputStream_file@@SAXQAV1@@PAPAXAAUbyteCount@@@Z 
01:00065954 ?_fillBuffer@inputStream_file@@SAXQAV1@@PAUmode_struct@stream@@AAUbyteCount@@@Z 
01:00065A18 ?_convertToUnicode@inputStream_file@@SAXQAV1@@PBUbyteCount@@PAUcodepage_struct@core@@PAXAAUcharCount@@@Z 
01:00065A80 ?convertCRLFtoLF_ifNeeded@inputStream_file@@SAXQAV1@@PAUmode_struct@stream@@PBUbyteCount@@PAPAXAAU5@@Z 
01:00065B48 ?handlingBufferLastChar@inputStream_file@@SAXQAV1@@PBUbyteCount@@PAPAXAAU3@@Z 
01:00065B90 ?_getAvailableCount@inputStream_file@@SAXPBUfileHandle@@AAUbyteCount@@@Z 
01:00065BD8 ?_readFromFile@inputStream_file@@SAXQAV1@@PAXPBUbyteCount@@AAU3@@Z 
01:00065C70 ?getBuffer@inputStream_file@@SGXQAVbufferSupport@@@PAPAXAAUbyteCount@@@Z 
01:00065C94 ?getBufferLocked@inputStream_file@@SGXQAVbufferSupport@@@PAPAXAAUbyteCount@@@Z 
01:00065CB8 ?_openFile@inputStream_file@@SAXPB_WPAPAVinputStream@@@@Z  (Idle)
01:00065CE0 ?_openFile8@inputStream_file@@SAXPB_WPAPAVinputStream@@@@Z  (Idle)
01:00065D08 ?_openFile@inputStream_file@@SAXPB_WPAUmode_struct@stream@@PAPAVinputStream@@@@Z 
01:00065D34 ?_openFile@inputStream_file@@SAXPB_WPAUmode_struct@stream@@PAUaccessPermit_struct@fileSystem_api@@PAPAVinputStream@@@@Z 
01:00065D64 ?_openFile@inputStream_file@@SAXPB_WPAUmode_struct@stream@@PAUaccessPermit_struct@fileSystem_api@@PBUbyteCount@@PAPAVinputStream@@@@Z  (Idle)
01:00065D98 ?_newHandleFile@inputStream_file@@SAXPBUfileHandle@@PAUmode_struct@stream@@PAPAVinputStream@@@@Z  (Idle)
01:00065DC4 ?_newHandle@inputStream_file@@SAXPBUfileHandle@@PAUmode_struct@stream@@PAPAVinputStream@@@@Z  (Idle)
01:00065DF0 ?_commonPartOfConstructors@inputStream_file@@SAXPBUfileHandle@@PAUmode_struct@stream@@PAUboolean_struct@_builtIn@@PAPAVinputStream@@@@Z  (Idle)
01:00065E20 ?_object_facts_initializer@inputStream_file@@SGXQAV1@@@Z 
01:00065E44 ?classInfo@fileVersion@@SAXPAPB_W0@Z 
01:00065E60 ?_tryVerQueryValue@fileVersion@@SAXQAEPB_WPAPAX@Z 
01:00065EAC ?_getFileVersionInformation@fileVersion@@SAXQAEPB_W1PAPB_W@Z 
01:00065F44 ?_loadVersionInfo@fileVersion@@SAXPB_WQAPAE@Z 
01:00066080 ?_getLanguageAndCodePageKey@fileVersion@@SAXQAEPAPB_W@Z 
01:00066114 ?_getVersionInfo@fileVersion@@SAXPB_WPAPAUversionInformation_struct@1@@Z  (Idle)
01:000661EC ?_getVersionBuildTime@fileVersion@@SAXPB_WPAPB_W@Z  (Idle)
01:00066244 ?_getProductVersion@fileVersion@@SAXPB_WPAPA_K@Z  (Idle)
01:000662A8 ?_getRootKey@fileVersion@@SAXQAEPAPAUvs_fixedfileinfo_struct@1@@Z 
01:000662F4 ?_getFileVersionInfo@fileVersion@@SAXPB_WPAPAUfileVersionInformation_struct@1@@Z  (Idle)
01:000663AC ?classInfo@fileSystem_exception@@SAXPAPB_W0@Z 
01:000663C8 ?raise_FileAlreadyExists@fileSystem_exception@@SAXXPB_W@Z 
01:0006643C ?raise_WrongAttribute@fileSystem_exception@@SAXXI@Z 
01:000664AC ?raise_FileTooBig@fileSystem_exception@@SAXXPB_W@Z 
01:00066520 ?fileAlreadyExists@fileSystem_exception@@SAXPAXPAPB_W1@Z 
01:00066548 ?wrongAttribute@fileSystem_exception@@SAXPAXPAPB_W1@Z 
01:00066570 ?fileTooBig@fileSystem_exception@@SAXPAXPAPB_W1@Z 
01:00066598 ?checkFileReadResult@fileSystem_exception@@SAXXH@Z  (Idle)
01:000665D4 ?_getPath@fileName@@SAXPB_WPAPB_W@Z 
01:000665F4 ?_getPosLastSlash@fileName@@SAXPB_WAAUcharCount@@@Z 
01:00066674 ?_getNameWithExtension@fileName@@SAXPB_WPAPB_W@Z  (Idle)
01:000666AC ?getPathAndName@fileName@@SAXPB_WPAPB_W1@Z 
01:000666F8 ?_getName1@fileName@@SAXPB_WPAPB_W@Z 
01:0006672C ?_getLastDirectory@fileName@@SAXPB_WPAPB_W1@Z  (Idle)
01:00066784 ?_removeLastSlash@fileName@@SAXPB_WPAPB_W@Z 
01:00066808 ?_getName@fileName@@SAXPB_WPAPB_W@Z  (Idle)
01:00066830 ?_charGet@fileName@@SAXPB_WPBUcharCountOptional@@AAU2@@Z 
01:000668B8 ?_getExtension@fileName@@SAXPB_WPAPB_W@Z 
01:00066910 ?_getExtension@fileName@@SAXPB_WPAPB_W1@Z  (Idle)
01:0006698C ?_setPath@fileName@@SAXPB_W0PAPB_W@Z 
01:000669B8 ?_setName@fileName@@SAXPB_W0PAPB_W@Z  (Idle)
01:00066A14 ?_setExtension@fileName@@SAXPB_W0PAPB_W@Z  (Idle)
01:00066B1C ?_reduce@fileName@@SAXPB_W0PAPB_W@Z 
01:00066C30 ?_reduceToShort@fileName@@SAXPB_W0PAPB_W@Z  (Idle)
01:00066C7C ?getFirstDirectory@fileName@@SAXPB_WPAPB_W1@Z 
01:00066D64 ?getNetName@fileName@@SAXPB_W0PAPB_W2@Z 
01:00066DBC ?_setTrailSlash@fileName@@SAXPB_WPAPB_W@Z 
01:00066E3C ?_getSlashList@fileName@@SAXPB_W_WPBUcharCount@@PAPAU?$__list_struct@U2@@@@Z 
01:00066ECC ?_tail@fileName@@SAXPB_WPBUcharCount@@PAPB_W@Z 
01:00066EF0 ?_getOrderedList@fileName@@SAXPAU?$__list_struct@UcharCount@@@@0PAPAU?$__list_struct@U2@@@@Z 
01:00066FC4 ?splitPathString@fileName@@SAXPB_WPAU?$__list_struct@UcharCount@@@@PBU2@PAPAU?$__list_struct@Ustring@@@@AAU2@@Z 
01:0006705C ?splitOntoPathAndName@fileName@@SAXPB_WPAPAU?$__list_struct@Ustring@@@@PAPB_W@Z 
01:00067108 ?_splitFileExt@fileName@@SAXPB_WPAPB_W@Z 
01:0006714C ?_splitFileName@fileName@@SAXPB_WPAPB_W@Z 
01:00067198 ?_directoryCompare@fileName@@SAXPAU?$__list_struct@Ustring@@@@0PAPB_W@Z 
01:0006721C ?_glueRest@fileName@@SAXPAU?$__list_struct@Ustring@@@@0PAPB_W@Z 
01:00067270 ?splitPath@fileName@@SAXPB_WPAPAU?$__list_struct@Ustring@@@@AAUcharCount@@@Z 
01:000672E0 ?_nameConcat@fileName@@SAXPB_W00PAPB_W@Z 
01:00067374 ?_createPath@fileName@@SAXPB_W0PAPB_W@Z  (Idle)
01:000673E4 ?_reducePath@fileName@@SAXPB_WPAPB_W@Z 
01:00067464 ?_createPath@fileName@@SAX_WPB_W11PAPB_W@Z 
01:00067524 ?_concatWithSlash@fileName@@SAXPB_W0PAPB_W@Z 
01:000675BC ?_getTypeOfSlash@fileName@@SAXPB_W0PAPB_W@Z 
01:00067668 ?isSlash@fileName@@SAX_W@Z 
01:00067688 ?_checkSecondCharAfterSlash@fileName@@SAXPB_W00PAPB_W@Z 
01:00067758 ?_checkThirdCharAfterColon@fileName@@SAXPB_W_W00PAPB_W@Z 
01:0006782C ?_reducePath@fileName@@SAX_WPB_WPAPB_W@Z 
01:0006785C ?_applyFileName@fileName@@SAXPB_WPAU?$__list_struct@Ustring@@@@PAPAU?$__list_struct@U2@@@@Z 
01:00067964 ?stay_dir@fileName@@SAXPB_W@Z 
01:000679A4 ?up_dir@fileName@@SAXPB_W@Z 
01:000679EC ?_reducePath_reversed@fileName@@SAXPAU?$__list_struct@Ustring@@@@PAPAU?$__list_struct@U2@@@@Z 
01:00067AD4 ?_upOneDir_reversed@fileName@@SAXPAU?$__list_struct@Ustring@@@@PAPAU?$__list_struct@U2@@@@Z 
01:00067BF8 ?notDriveOrNetworkVolume@fileName@@SAXPB_W@Z 
01:00067CB0 ?front_wc@fileName@@SAXPB_WPBUcharCount@@PAPB_W2@Z 
01:00067CEC ?_normalize@fileName@@SAXPB_WPAPB_W@Z  (Idle)
01:00067DD0 ?up_dir@fileName@@SAXPAPB_W@Z 
01:00067DE4 ?classInfo@file@@SAXPAPB_W0@Z 
01:00067E00 ?copy@file@@SAXPB_W0@Z  (Idle)
01:00067E14 ?copy@file@@SAXPB_W0PAUoverwrite_struct@1@@Z 
01:00067E80 ?move@file@@SAXPB_W0@Z  (Idle)
01:00067E94 ?move@file@@SAXPB_W0PAUoverwrite_struct@1@@Z 
01:00067F18 ?delete@file@@SAXPB_W@Z  (Idle)
01:00067FAC ?existExactFile@file@@SAXPB_W@Z  (Idle)
01:00067FE0 ?existFile@file@@SAXPB_W@Z  (Idle)
01:000680F8 ?tryGetFile@file@@SAXPBUsearchHandle@fileSystem_native@@PAUwin32_find_data_struct@3@@Z 
01:00068180 ?_createUniqueName@file@@SAXPB_W0PAPB_W@Z 
01:00068284 ?_getPhysicalName@file@@SAXPB_WPAPB_W@Z  (Idle)
01:000683C8 ?setAttributes@file@@SAXPB_WPAU?$__list_struct@UfileAttributeAtom@@@@PAUboolean_struct@_builtIn@@@Z  (Idle)
01:00068608 ?getFileProperties@file@@SAXPB_WPAPAU?$__list_struct@UfileAttributeAtom@@@@PAAAUfileSize@fileSystem_api@@PAAAUgmtTimeValue@@33@Z 
01:000687AC ?setFileTime@file@@SAXPB_WPAPBUgmtTimeValue@@11@Z  (Idle)
01:000689FC ?moveToRecycleBin@file@@SAXPB_W@Z  (Idle)
01:00068B6C ?_readBinary@file@@SAXPB_WQAPAE@Z 
01:00068C34 ?_readFile@file@@SAXPBUfileHandle@@PAXPBUbyteCount@@AAU3@@Z 
01:00068CD0 ?_readBinary@file@@SAXPB_WPAPBUfileSize@fileSystem_api@@PBUbyteCount@@QAPAE@Z  (Idle)
01:00068E3C ?_readString@file@@SAXPB_WPAPB_W@Z  (Idle)
01:00068F68 ?checkUnicodeSignature@file@@SAXPB_WPBUbyteCount@@PAPB_WAAU2@@Z 
01:00068FB8 ?_readString@file@@SAXPB_WPAPAUboolean_struct@_builtIn@@PAPB_W@Z  (Idle)
01:00069050 ?_readStringFromHandle@file@@SAXPBUfileHandle@@PAPAUboolean_struct@_builtIn@@PAPB_W@Z 
01:0006917C ?isUnicode@file@@SAXPB_W@Z  (Idle)
01:00069280 ?_getUnicode@file@@SAXPAXPBUbyteCount@@PAPAUboolean_struct@_builtIn@@2@Z 
01:000692EC ?_isUnicode@file@@SAXPAXPBUbyteCount@@PAPAUboolean_struct@_builtIn@@@Z 
01:00069338 ?_getString@file@@SAXPBUbyteCount@@PAXPAUboolean_struct@_builtIn@@2PAPB_W@Z 
01:00069408 ?_getFileSize@file@@SAXPBUfileHandle@@PB_WAAUbyteCount@@@Z 
01:00069480 ?writeBinary@file@@SAXPB_WQAE@Z  (Idle)
01:00069530 ?writeFile@file@@SAXPBUfileHandle@@PAXPBUbyteCount@@@Z 
01:0006957C ?writeBinary@file@@SAXPB_WPAPBUfileSize@fileSystem_api@@QAE@Z  (Idle)
01:00069660 ?writeString@file@@SAXPB_W0@Z 
01:0006973C ?appendString@file@@SAXPB_W0PAUboolean_struct@_builtIn@@@Z  (Idle)
01:00069960 ?writeString@file@@SAXPB_W0PAUboolean_struct@_builtIn@@@Z  (Idle)
01:00069984 ?writeCodedString@file@@SAXPB_W0PAUcodePage_struct@core@@@Z 
01:00069AA4 ?checkResult@file@@SAXPBUhResult@@PB_W11PAUoverwrite_struct@1@@Z 
01:00069DE8 ?fileExists_errorCode@file@@SAXPBUhResult@@@Z 
01:00069E04 ?hideUnicodeSignature@file@@SAXQAEPBUbyteCount@@PAPAXAAU2@@Z 
01:00069E88 ?_setDestination@file@@SAXPB_W0PAPB_W@Z 
01:00069EE0 ?_toApiAttributes@file@@SAXPAU?$__list_struct@UfileAttributeAtom@@@@PAI@Z 
01:00069F08 ?checkOnLegal@file@@SAXI@Z 
01:00069F40 ?_mixAttributes@file@@SAXPAUboolean_struct@_builtIn@@IIPAI@Z 
01:00069F8C ?checkFileHandle@file@@SAXPBUfileHandle@@PB_W@Z 
01:00069FC0 ?closeFileHandle@file@@SAXPBUfileHandle@@@Z 
01:0006A000 ?_getStreamCheckUnicode@file@@SAXPB_WPAUboolean_struct@_builtIn@@PAPAVoutputStream@@@@Z 
01:0006A028 ?save@file@@SAXPB_WPBUfactDB@@@Z  (Idle)
01:0006A03C ?save@file@@SAXPB_WPBUfactDB@@PAUboolean_struct@_builtIn@@@Z 
01:0006A0C0 ?_checkSignature@file@@SAXQAVinputStream@@@PAPAUboolean_struct@_builtIn@@@Z 
01:0006A184 ?consult@file@@SAXPB_WPBUfactDB@@@Z  (Idle)
01:0006A1A4 ?consult@file@@SAXPB_WPBUfactDB@@PAPAUboolean_struct@_builtIn@@@Z 
01:0006A240 ?reconsult@file@@SAXPB_WPBUfactDB@@@Z  (Idle)
01:0006A260 ?reconsult@file@@SAXPB_WPBUfactDB@@PAPAUboolean_struct@_builtIn@@@Z 
01:0006A274 ?_trySearchFileInPath@file@@SAXPB_WPAPB_W@Z  (Idle)
01:0006A2B8 ?classInfo@directory@@SAXPAPB_W0@Z 
01:0006A2D4 ?deleteDirectory@directory@@SAXPB_W@Z  (Idle)
01:0006A2DC ?makeDirectory@directory@@SAXPB_W@Z  (Idle)
01:0006A2F0 ?makeDirectoryPath@directory@@SAXPB_W@Z  (Idle)
01:0006A3F0 ?setCurrentDirectory@directory@@SAXPB_W@Z  (Idle)
01:0006A3F8 ?_getCurrentDirectory@directory@@SAXPAPB_W@Z 
01:0006A400 ?moveDirectory@directory@@SAXPB_W0@Z  (Idle)
01:0006A408 ?setVolumeLabel@directory@@SAXPB_W0@Z  (Idle)
01:0006A410 ?existDirectory@directory@@SAXPB_W@Z 
01:0006A518 ?_dirWithoutBackslash@directory@@SAXPB_WPAPB_W@Z 
01:0006A564 ?getDirectoryProperties@directory@@SAXPB_WPAPAU?$__list_struct@UfileAttributeAtom@@@@PAAAUgmtTimeValue@@22@Z  (Idle)
01:0006A58C ?getVolumeProperties@directory@@SAXPB_WPAPAUvolumeType_struct@1@PAAAUfileSize@fileSystem_api@@2PAPB_WPAI@Z  (Idle)
01:0006A5E4 ?_tryGetLogicalDirectory@directory@@SAXPBUdirectoryID@@PAPB_W@Z  (Idle)
01:0006A600 ?_getLogicalDirectory@directory@@SAXPBUdirectoryID@@PAPB_W@Z  (Idle)
01:0006A61C ?_getTemporaryDirectory@directory@@SAXPAPB_W@Z  (Idle)
01:0006A624 ?_tryCreateLogicalDirectory@directory@@SAXPBUdirectoryID@@PAPB_W@Z  (Idle)
01:0006A640 ?_getFilesInDirectory_nd@directory@@SAXPB_WPAPB_W@Z  (Idle)
01:0006A660 ?_getFilesInDirectory_nd@directory@@SAXPB_W0PAPB_W@Z 
01:0006A67C ?_getFilesInDirectory_nd@directory@@SAXPB_W0PAUboolean_struct@_builtIn@@PAPB_W@Z 
01:0006A6A4 ?_getSubDirectories_nd@directory@@SAXPB_WPAPB_W@Z 
01:0006A6C4 ?_getSubDirectories_nd@directory@@SAXPB_W0PAPB_W@Z 
01:0006A6E8 ?_getFilesInDirectoryAndSub_nd@directory@@SAXPB_WPAPB_W@Z  (Idle)
01:0006A708 ?_getFilesInDirectoryAndSub_nd@directory@@SAXPB_W0PAPB_W@Z 
01:0006A798 ?_find@directory@@SAXPB_W0IPAUboolean_struct@_builtIn@@PAPB_W@Z 
01:0006A90C ?_dirWithBackslash@directory@@SAXPB_WPAPB_W@Z 
01:0006A988 ?checkHiddenOrSystem@directory@@SAXPB_WPAUboolean_struct@_builtIn@@@Z 
01:0006A9A0 ?isNotHiddenOrSystem@directory@@SAXPB_W@Z 
01:0006A9EC ?isSlash@directory@@SAX_W@Z 
01:0006AA0C ?findNext@directory@@SAXPBUsearchHandle@fileSystem_native@@PAUwin32_find_data_struct@3@I@Z 
01:0006AA9C ?_findNext_nd@directory@@SAXPBUsearchHandle@fileSystem_native@@PAUwin32_find_data_struct@3@IPAPB_W@Z 
01:0006AB94 ?_createFullName@directory@@SAXPB_W0PAPB_W@Z 
01:0006AC40 ?_tryLogicalDirectoryBuff@directory@@SAXPBUdirectoryId@1@PAUboolean_struct@_builtIn@@PB_WPAPB_W@Z 
01:0006AD98 ?_logicalDirectoryBuff@directory@@SAXPBUdirectoryId@1@PAUboolean_struct@_builtIn@@PB_WPAPB_W@Z 
01:0006AFB8 ?_tryLogicalDirectory@directory@@SAXPBUdirectoryId@1@PAUboolean_struct@_builtIn@@PAPB_W@Z 
01:0006AFF0 ?_logicalDirectory@directory@@SAXPBUdirectoryId@1@PAUboolean_struct@_builtIn@@PAPB_W@Z 
01:0006B028 ?_addNeedCreateIfNecessary@directory@@SAXPBUdirectoryId@1@PAUboolean_struct@_builtIn@@AAU21@@Z 
01:0006B064 ?_convertToVolumeType@directory@@SAXHPAPAUvolumeType_struct@1@@Z 
01:0006B0E4 ?_browseForFolder@directory@@SAXPBUhwnd@@PB_W1PAUboolean_struct@_builtIn@@PAPB_W@Z  (Idle)
01:0006B190 ?_getBrowseForFolderFlags@directory@@SAXPAUboolean_struct@_builtIn@@PAI@Z 
01:0006B1B4 ?browseForFolderCallback@directory@@SGHPBUhwnd@@III@Z 
01:0006B398 outputStream_file?_initObject@@@QAGXQAV1@H@Z 
01:0006B3CC ?@create_object@outputStream_file@@SGQAV1@@XZ 
01:0006B3E8 outputStream_file?_InternalFinalizer@@@QAGXQAV1@@Z 
01:0006B400 messageFile?_initObject@@@QAGXQAV1@H@Z 
01:0006B414 ?@create_object@messageFile@@SGQAV1@@XZ 
01:0006B430 messageFile?_InternalFinalizer@@@QAGXQAV1@@Z 
01:0006B5B8 inputStream_file?_initObject@@@QAGXQAV1@H@Z 
01:0006B5EC ?@create_object@inputStream_file@@SGQAV1@@XZ 
01:0006B608 inputStream_file?_InternalFinalizer@@@QAGXQAV1@@Z 
--- From 'Obj\math.EFFD1445.obj'
01:0006B620 ?classInfo@math_exception@@SAXPAPB_W0@Z 
01:0006B63C ?raise_asinOutOfBounds@math_exception@@SAXXPAN@Z 
01:0006B6B0 ?asinOutOfBounds@math_exception@@SAXPAXPAPB_W1@Z 
01:0006B6D8 ?raise_acoshOutOfBounds@math_exception@@SAXXPAN@Z 
01:0006B74C ?acoshOutOfBounds@math_exception@@SAXPAXPAPB_W1@Z 
01:0006B774 ?raise_atanhOutOfBounds@math_exception@@SAXXPAN@Z 
01:0006B7E8 ?atanhOutOfBounds@math_exception@@SAXPAXPAPB_W1@Z 
01:0006B810 ?raise_acotanhOutOfBounds@math_exception@@SAXXPAN@Z 
01:0006B884 ?acotanhOutOfBounds@math_exception@@SAXPAXPAPB_W1@Z 
01:0006B8AC ?raise_cotanhInfinityResult@math_exception@@SAXXPAN@Z 
01:0006B920 ?cotanhInfinityResult@math_exception@@SAXPAXPAPB_W1@Z 
01:0006B948 ?classInfo@math@@SAXPAPB_W0@Z 
01:0006B964 ?check_asin_nearBounds@math@@SAXPAPBUinCircle@@@Z 
01:0006B9A8 ?_getBoundsForValue@math@@SAXPAPBUinCircle@@PAPAN@Z 
01:0006B9DC ?_arcsin@math@@SAXPAPBUinCircle@@PAPAN@Z 
01:0006BB34 ?_sinh@math@@SAXPANPAPAN@Z 
01:0006BBA8 ?_tryToUnsigned@math@@SAXPB_WPAI@Z  (Idle)
01:0006BBC4 ?_tryToInteger@math@@SAXPB_WPAH@Z  (Idle)
01:0006BBE0 ?_tryToReal@math@@SAXPB_WPAPAN@Z  (Idle)
01:0006BBFC ?_toUnsigned@math@@SAXPB_WPAI@Z  (Idle)
01:0006BC18 ?_toInteger@math@@SAXPB_WPAH@Z  (Idle)
01:0006BC34 ?_toReal@math@@SAXPB_WPAPAN@Z  (Idle)
01:0006BC50 ?_prepareResultForBigValue@math@@SAXPANPAAAUuReal@@@Z 
01:0006BDAC ?_arcsinh@math@@SAXPANPAPAN@Z  (Idle)
01:0006BE00 ?_arccos@math@@SAXPAPBUinCircle@@PAPAN@Z  (Idle)
01:0006BE4C ?_cosh@math@@SAXPANPAAAUuReal@@@Z 
01:0006BED8 ?_prepareResultForValue@math@@SAXPAPBUuReal@@PAAAU2@@Z 
01:0006BFF8 ?_arccosh@math@@SAXPAPBUuReal@@PAPAN@Z  (Idle)
01:0006C070 ?_get_tanhBoundsForValue@math@@SAXPANPAAAUinCircle@@@Z 
01:0006C0A4 ?_tanh@math@@SAXPANPAAAUinCircle@@@Z  (Idle)
01:0006C158 ?_arctanh@math@@SAXPAPBUinCircle@@PAPAN@Z  (Idle)
01:0006C20C ?_cotanh@math@@SAXPANPAPAN@Z  (Idle)
01:0006C2D0 ?_arccotanh@math@@SAXPANPAPAN@Z  (Idle)
01:0006C380 ?_sqr@math@@SAXPANPAAAUuReal@@@Z 
01:0006C3D4 ?_round@math@@SAXPANPAH@Z 
01:0006C410 ?_roundToUnsigned@math@@SAXPANPAI@Z  (Idle)
01:0006C44C ?_roundToInteger64@math@@SAXPANPAPA_J@Z  (Idle)
01:0006C4A8 ?_roundToUnsigned64@math@@SAXPANPAPA_K@Z  (Idle)
01:0006C504 ?_trunc@math@@SAXPANPAH@Z 
01:0006C540 ?_fraction@math@@SAXPANPAPAN@Z  (Idle)
01:0006C590 ?_ceil@math@@SAXPANPAH@Z 
01:0006C5C8 ?_ceilToReal@math@@SAXPANPAPAN@Z 
01:0006C678 ?_floor@math@@SAXPANPAH@Z  (Idle)
01:0006C6C0 ?_floorToReal@math@@SAXPANPAPAN@Z  (Idle)
--- From 'Obj\binary.9ACBD368.obj'
01:0006C720 ?_max@math@@SAXHHPAH@Z 
--- From 'Obj\math.EFFD1445.obj'
01:0006C744 ?_max@math@@SAXHHHPAH@Z  (Idle)
01:0006C774 ?_min@math@@SAXHHPAH@Z 
01:0006C798 ?_min@math@@SAXHHHPAH@Z  (Idle)
01:0006C7C8 ?_restrict@math@@SAXHHHPAH@Z  (Idle)
01:0006C7FC ?divides_dt@math@@SAXHH@Z  (Idle)
01:0006C838 ?_power64i@math@@SAXPA_JIPAPA_J@Z  (Idle)
01:0006C840 ?_power64u@math@@SAXPA_KIPAPA_K@Z  (Idle)
01:0006C848 ?_power64iu@math@@SAXPA_JIPAPA_J@Z 
01:0006C8A0 ?_power64acc@math@@SAXPA_JI0PAPA_J@Z 
01:0006C99C ?_max@math@@SAXIIPAI@Z 
01:0006C9C0 ?_max@math@@SAXPANPANPAPAN@Z 
01:0006C9F8 ?_max@math@@SAXMMPAM@Z 
01:0006CA5C ?_max@math@@SAXIIIPAI@Z  (Idle)
01:0006CA8C ?_max@math@@SAXPANPANPANPAPAN@Z  (Idle)
01:0006CABC ?_max@math@@SAXMMMPAM@Z  (Idle)
01:0006CAF8 ?_min@math@@SAXIIPAI@Z 
01:0006CB1C ?_min@math@@SAXPANPANPAPAN@Z 
01:0006CB54 ?_min@math@@SAXMMPAM@Z 
01:0006CBB8 ?_min@math@@SAXIIIPAI@Z  (Idle)
01:0006CBE8 ?_min@math@@SAXPANPANPANPAPAN@Z  (Idle)
01:0006CC18 ?_min@math@@SAXMMMPAM@Z  (Idle)
01:0006CC54 ?_restrict@math@@SAXIIIPAI@Z  (Idle)
01:0006CC88 ?_restrict@math@@SAXPANPANPANPAPAN@Z  (Idle)
01:0006CCBC ?divides_dt@math@@SAXII@Z  (Idle)
01:0006CCD8 ?_power64iu@math@@SAXPA_KIPAPA_K@Z 
01:0006CD30 ?_power64acc@math@@SAXPA_KI0PAPA_K@Z 
--- From 'Obj\binary.9ACBD368.obj'
01:0006CE30 ?classInfo@outputStream_binary@@SAXPAPB_W0@Z 
01:0006CE4C ?new@outputStream_binary@@SAXQAV1@@@Z 
01:0006CEEC ?setMode@outputStream_binary@@SGXQAVstream@@@PAUmode_struct@2@@Z 
01:0006CF2C ?flush@outputStream_binary@@SGXQAVoutputStream@@@@Z 
01:0006CF3C ?close@outputStream_binary@@SGXQAVstream@@@@Z 
01:0006CF84 ?bufferFullCallBack@outputStream_binary@@SAXQAV1@@PAPAXAAUbyteCount@@@Z 
01:0006CFFC ?get_buffer_from_db@outputStream_binary@@SAXQAV1@@IPAPAXAAUbyteCount@@@Z 
01:0006D074 ?_getBinary@outputStream_binary@@SAXQAV1@@QAPAE@Z 
01:0006D124 ?writeBuffersToBinary@outputStream_binary@@SAXQAV1@@QAE@Z 
01:0006D1A0 ?writeSingleBufferToBinary@outputStream_binary@@SAXQAEPBUbyteCount@@PAX1@Z 
01:0006D1D4 ?getPosition@outputStream_binary@@SGPBUfileSize@fileSystem_api@@QAVstream@@@@Z 
01:0006D2AC ?setPosition@outputStream_binary@@SGXQAVstream@@@PBUfileSize@fileSystem_api@@@Z 
01:0006D330 ?handleSetOffset@outputStream_binary@@SAXQAV1@@PBUbyteCount@@@Z 
01:0006D3B8 ?updateCurrentBuffer@outputStream_binary@@SAXQAV1@@@Z 
01:0006D514 ?findBufferForOffset@outputStream_binary@@SAXQAV1@@PBUbyteCount@@PAIPAPAXAAU3@4@Z 
01:0006D5A0 ?handleBiggerOffset@outputStream_binary@@SAXQAV1@@PBUbyteCount@@@Z 
01:0006D710 ?_newBuffer@outputStream_binary@@SAXQAV1@@PBUbyteCount@@PAPAX@Z 
01:0006D7A4 ?_getSizeBefore@outputStream_binary@@SAXQAV1@@IAAUbyteCount@@@Z 
01:0006D824 ?bufferNotFound_exception@outputStream_binary@@SGXI@Z 
01:0006D868 ?checkUsePrevBuff@outputStream_binary@@SAXQAV1@@@Z 
01:0006D8C4 ?getBuffer@outputStream_binary@@SGXQAVbufferSupport@@@PAPAXAAUbyteCount@@@Z 
01:0006D964 ?getBufferLocked@outputStream_binary@@SGXQAVbufferSupport@@@PAPAXAAUbyteCount@@@Z 
01:0006D980 ?_new@outputStream_binary@@SAXPAPAV1@@@Z  (Idle)
01:0006D9A8 ?_object_facts_initializer@outputStream_binary@@SGXQAV1@@@Z 
01:0006D9C8 ?classInfo@inputStream_binary@@SAXPAPB_W0@Z 
01:0006D9E4 ?new@inputStream_binary@@SAXQAV1@@QAE@Z 
01:0006DA3C ?endOfStream@inputStream_binary@@SAXQAVinputStream@@@@Z 
01:0006DA78 ?setMode@inputStream_binary@@SGXQAVstream@@@PAUmode_struct@2@@Z 
01:0006DAB8 ?close@inputStream_binary@@SGXQAVstream@@@@Z 
01:0006DAD0 ?getCRLFconversion@inputStream_binary@@SGPAUboolean_struct@_builtIn@@QAVstream@@@@Z 
01:0006DAD8 ?setCRLFconversion@inputStream_binary@@SGXQAVstream@@@PAUboolean_struct@_builtIn@@@Z 
01:0006DB00 ?getPosition@inputStream_binary@@SGPBUfileSize@fileSystem_api@@QAVstream@@@@Z 
01:0006DB40 ?setPosition@inputStream_binary@@SGXQAVstream@@@PBUfileSize@fileSystem_api@@@Z 
01:0006DBD4 ?getBuffer@inputStream_binary@@SGXQAVbufferSupport@@@PAPAXAAUbyteCount@@@Z 
01:0006DBF0 ?getBufferLocked@inputStream_binary@@SGXQAVbufferSupport@@@PAPAXAAUbyteCount@@@Z 
01:0006DC0C ?_new@inputStream_binary@@SAXQAEPAPAVinputStream@@@@Z  (Idle)
01:0006DC34 ?_object_facts_initializer@inputStream_binary@@SGXQAV1@@@Z 
01:0006DC4C ?classInfo@binary_exception@@SAXPAPB_W0@Z 
01:0006DC68 ?invalidCompressionFormat@binary_exception@@SAXPAXPAPB_W1@Z 
01:0006DC90 ?internalDecodeError@binary_exception@@SAXPAXPAPB_W1@Z 
01:0006DCB8 ?wrongBinaryFormat@binary_exception@@SAXPAXPAPB_W1@Z 
01:0006DCE0 ?indexOutOfRange@binary_exception@@SAXPAXPAPB_W1@Z 
01:0006DD08 ?raise_InvalidCompressionFormat@binary_exception@@SAXXQAE@Z  (Idle)
01:0006DD7C ?raise_InternalDecodeError@binary_exception@@SAXXQAE@Z  (Idle)
01:0006DDF0 ?raise_IndexOutOfRange@binary_exception@@SAXXPBUbyteCount@@@Z 
01:0006DE68 ?raise_WrongBinaryFormat@binary_exception@@SAXXQAE@Z  (Idle)
01:0006DEDC ?raise_WrongBinaryFormat@binary_exception@@SAXXPBUbinaryNonAtomic@@@Z  (Idle)
01:0006DF54 ?classInfo@binary@@SAXPAPB_W0@Z 
01:0006DF70 ?_create0binaryAtomic@binary@@SAXQAPAE@Z 
01:0006DF88 ?_create0binaryNonAtomic@binary@@SAXAAU2@@Z 
01:0006DFA0 ?_createNonAtomic@binary@@SAXPBUbyteCount@@AAUbinaryNonAtomic@@@Z 
01:0006E010 ?_createNonAtomic@binary@@SAXPBUpositive@@PBUbyteCount@@AAUbinaryNonAtomic@@@Z  (Idle)
--- From 'Obj\systemInformation_api.89ED56AB.obj'
01:0006E030 ?_createAtomic@binary@@SAXPBUbyteCount@@QAPAE@Z 
--- From 'Obj\binary.9ACBD368.obj'
01:0006E0A0 ?_createAtomic@binary@@SAXPBUpositive@@PBUbyteCount@@QAPAE@Z  (Idle)
01:0006E0C0 ?_makeBinaryFromPtr@binary@@SAXPAXPBUbyteCount@@QAPAE@Z 
01:0006E0F8 ?_makeBinaryNonAtomicFromPtr@binary@@SAXPAXPBUbyteCount@@AAUbinaryNonAtomic@@@Z 
01:0006E130 ?_createCopyNonAtomic@binary@@SAXPBUbinaryNonAtomic@@AAU2@@Z  (Idle)
01:0006E1B0 ?_createCopyAtomic@binary@@SAXQAEQAPAE@Z  (Idle)
01:0006E230 ?_createNonAtomicFromPointer@binary@@SAXPAXPBUbyteCount@@AAUbinaryNonAtomic@@@Z  (Idle)
--- From 'Obj\registry_api.CA39E249.obj'
01:0006E278 ?_createAtomicFromPointer@binary@@SAXPAXPBUbyteCount@@QAPAE@Z 
--- From 'Obj\binary.9ACBD368.obj'
01:0006E2C0 ?_createAtomicFromIntegerList@binary@@SAXPAU?$__list_struct@Uinteger@@@@QAPAE@Z  (Idle)
--- From 'Obj\registry_api.CA39E249.obj'
01:0006E318 ?_getSize@binary@@SAXQAEAAUbyteCount@@@Z 
--- From 'Obj\binary.9ACBD368.obj'
01:0006E334 ?_reSizeNonAtomic@binary@@SAXPBUbinaryNonAtomic@@PBUbyteCount@@AAU2@@Z 
01:0006E418 ?_reSizeAtomic@binary@@SAXQAEPBUbyteCount@@QAPAE@Z 
01:0006E4FC ?_concatNonAtomic@binary@@SAXPBUbinaryNonAtomic@@0AAU2@@Z  (Idle)
01:0006E578 ?_concatAtomic@binary@@SAXQAEQAEQAPAE@Z  (Idle)
01:0006E5F4 ?_insertAtomic@binary@@SAXQAEPBUbyteCount@@QAEQAPAE@Z  (Idle)
01:0006E6D0 ?_insertNonAtomic@binary@@SAXPBUbinaryNonAtomic@@PBUbyteCount@@QAEAAU2@@Z  (Idle)
01:0006E7AC ?_deleteAtomic@binary@@SAXQAEPBUbyteCount@@1QAPAE@Z  (Idle)
01:0006E84C ?_deleteNonAtomic@binary@@SAXPBUbinaryNonAtomic@@PBUbyteCount@@1AAU2@@Z  (Idle)
01:0006E8EC ?_getIndexed_unsigned8@binary@@SAXQAEPBUpositive@@AAU3@@Z 
01:0006E938 ?_getIndexed_unsigned16@binary@@SAXQAEPBUpositive@@AAU3@@Z 
01:0006E988 ?_getIndexed_unsigned32@binary@@SAXQAEPBUpositive@@AAU3@@Z 
01:0006E9D8 ?_getIndexed_unsigned64@binary@@SAXQAEPBUpositive@@PAPA_K@Z  (Idle)
01:0006EA28 ?_getIndexed_integer8@binary@@SAXQAEPBUpositive@@AAU3@@Z  (Idle)
01:0006EA74 ?_getIndexed_integer16@binary@@SAXQAEPBUpositive@@AAU3@@Z  (Idle)
01:0006EAC4 ?_getIndexed_integer32@binary@@SAXQAEPBUpositive@@AAU3@@Z  (Idle)
01:0006EB14 ?_getIndexed_integer64@binary@@SAXQAEPBUpositive@@PAPA_J@Z  (Idle)
01:0006EB64 ?_getIndexed_unsigned@binary@@SAXQAEPBUpositive@@PAI@Z  (Idle)
01:0006EBB4 ?_getIndexed_integer@binary@@SAXQAEPBUpositive@@PAH@Z  (Idle)
01:0006EC04 ?_getIndexed_real32@binary@@SAXQAEPBUpositive@@PAM@Z  (Idle)
01:0006EC54 ?_getIndexed_real@binary@@SAXQAEPBUpositive@@PAPAN@Z  (Idle)
01:0006ECA4 ?_getIndexed_pointer@binary@@SAXPBUbinaryNonAtomic@@PBUpositive@@PAPAX@Z 
01:0006ECF4 ?_getIndexed_object@binary@@SAXPBUbinaryNonAtomic@@PBUpositive@@PAPAV4@@@Z  (Idle)
01:0006ED50 ?_getIndexed_string@binary@@SAXPBUbinaryNonAtomic@@PBUpositive@@PAPB_W@Z  (Idle)
01:0006EDAC ?setIndexed_unsigned8@binary@@SAXQAEPBUpositive@@PBU3@@Z  (Idle)
01:0006EDF4 ?setIndexed_unsigned16@binary@@SAXQAEPBUpositive@@PBU3@@Z  (Idle)
01:0006EE40 ?setIndexed_unsigned32@binary@@SAXQAEPBUpositive@@PBU3@@Z  (Idle)
01:0006EE8C ?setIndexed_unsigned64@binary@@SAXQAEPBUpositive@@PA_K@Z  (Idle)
01:0006EEDC ?setIndexed_integer8@binary@@SAXQAEPBUpositive@@PBU3@@Z  (Idle)
01:0006EF24 ?setIndexed_integer16@binary@@SAXQAEPBUpositive@@PBU3@@Z  (Idle)
01:0006EF70 ?setIndexed_integer32@binary@@SAXQAEPBUpositive@@PBU3@@Z  (Idle)
01:0006EFBC ?setIndexed_integer64@binary@@SAXQAEPBUpositive@@PA_J@Z  (Idle)
01:0006F00C ?setIndexed_integer@binary@@SAXQAEPBUpositive@@H@Z 
01:0006F058 ?setIndexed_unsigned@binary@@SAXQAEPBUpositive@@I@Z  (Idle)
01:0006F0A4 ?setIndexed_real32@binary@@SAXQAEPBUpositive@@M@Z  (Idle)
01:0006F0F4 ?setIndexed_real@binary@@SAXQAEPBUpositive@@PAN@Z  (Idle)
01:0006F14C ?setIndexed_pointer@binary@@SAXPBUbinaryNonAtomic@@PBUpositive@@PAX@Z  (Idle)
01:0006F198 ?setIndexed_object@binary@@SAXPBUbinaryNonAtomic@@PBUpositive@@QAV4@@@Z  (Idle)
01:0006F1E4 ?setIndexed_string@binary@@SAXPBUbinaryNonAtomic@@PBUpositive@@PB_W@Z  (Idle)
01:0006F230 ?_getBinaryNonAtomic@binary@@SAXPBUbinaryNonAtomic@@PBUbyteCount@@1AAU2@@Z 
01:0006F2BC ?_getBinaryAtomic@binary@@SAXQAEPBUbyteCount@@1QAPAE@Z 
01:0006F348 ?setBinaryNonAtomic@binary@@SGXPBUbinaryNonAtomic@@PBUbyteCount@@QAE@Z  (Idle)
01:0006F3D8 ?setBinaryAtomic@binary@@SGXQAEPBUbyteCount@@QAE@Z  (Idle)
01:0006F468 ?setValue@binary@@SAXQAEPBUbyteCount@@PAUvalue_struct@core@@@Z 
01:0006F954 $getValue$binary$predicate$(i,i,unsigned64(o))$b$_c88  (Idle)
01:0006F9A8 ?_getString@binary@@SAXPAXPBUcharCount@@PAPB_W@Z 
01:0006FA84 ?checkOffsetForSetGetValue@binary@@SAXQAEPBUbyteCount@@1@Z 
01:0006FABC ?fillFromIntegerList@binary@@SAXQAEPBUpositive@@PAU?$__list_struct@Uinteger@@@@@Z 
01:0006FB08 ?copyTailIfNeeded@binary@@SAXQAEPBUbyteCount@@1QAE1@Z 
01:0006FB6C ?splitBinaryNonAtomic@binary@@SAXPBUbinaryNonAtomic@@PBUbyteCount@@AAU2@2@Z  (Idle)
01:0006FBAC ?splitBinaryAtomic@binary@@SAXQAEPBUbyteCount@@QAPAE2@Z  (Idle)
01:0006FBEC ?_binaryToStringList@binary@@SAXQAEPAPAU?$__list_struct@Ustring@@@@@Z  (Idle)
01:0006FC28 ?_getStringList@binary@@SAXPAXPBUbyteCount@@PAPAU?$__list_struct@Ustring@@@@@Z 
01:0006FDA0 ?_search@binary@@SAXQAEQAEAAUbyteCount@@@Z  (Idle)
01:0006FDF4 ?_binary8ToStringList@binary@@SAXQAEPAPAU?$__list_struct@Ustring@@@@@Z  (Idle)
01:0006FE1C ?_binary8ToStringList@binary@@SAXQAEPAUcodePage_struct@core@@PAPAU?$__list_struct@Ustring@@@@@Z 
01:0006FE64 ?_getStringListForBinary8@binary@@SAXPAXPBUbyteCount@@PAUcodePage_struct@core@@PAPAU?$__list_struct@Ustring@@@@@Z 
01:0006FFB8 binaryIsAtomicExpectedNonAtomic 
01:0006FFE8 doNothing 
--- From 'Obj\registry_api.CA39E249.obj'
01:0006FFF0 ?_getSize@binary@@SAXPBUbinaryNonAtomic@@AAUbyteCount@@@Z 
--- From 'Obj\binary.9ACBD368.obj'
01:0007000C ?_insertNonAtomic@binary@@SAXPBUbinaryNonAtomic@@PBUbyteCount@@0AAU2@@Z  (Idle)
01:000700E8 ?_getIndexed_unsigned8@binary@@SAXPBUbinaryNonAtomic@@PBUpositive@@AAU4@@Z  (Idle)
01:00070134 ?_getIndexed_unsigned16@binary@@SAXPBUbinaryNonAtomic@@PBUpositive@@AAU4@@Z  (Idle)
01:00070184 ?_getIndexed_unsigned32@binary@@SAXPBUbinaryNonAtomic@@PBUpositive@@AAU4@@Z  (Idle)
01:000701D4 ?_getIndexed_unsigned64@binary@@SAXPBUbinaryNonAtomic@@PBUpositive@@PAPA_K@Z  (Idle)
01:00070224 ?_getIndexed_integer8@binary@@SAXPBUbinaryNonAtomic@@PBUpositive@@AAU4@@Z  (Idle)
01:00070270 ?_getIndexed_integer16@binary@@SAXPBUbinaryNonAtomic@@PBUpositive@@AAU4@@Z  (Idle)
01:000702C0 ?_getIndexed_integer32@binary@@SAXPBUbinaryNonAtomic@@PBUpositive@@AAU4@@Z  (Idle)
01:00070310 ?_getIndexed_integer64@binary@@SAXPBUbinaryNonAtomic@@PBUpositive@@PAPA_J@Z  (Idle)
01:00070360 ?_getIndexed_unsigned@binary@@SAXPBUbinaryNonAtomic@@PBUpositive@@PAI@Z  (Idle)
01:000703B0 ?_getIndexed_integer@binary@@SAXPBUbinaryNonAtomic@@PBUpositive@@PAH@Z  (Idle)
01:00070400 ?_getIndexed_real32@binary@@SAXPBUbinaryNonAtomic@@PBUpositive@@PAM@Z  (Idle)
01:00070450 ?_getIndexed_real@binary@@SAXPBUbinaryNonAtomic@@PBUpositive@@PAPAN@Z  (Idle)
01:000704A0 ?setIndexed_unsigned8@binary@@SAXPBUbinaryNonAtomic@@PBUpositive@@PBU4@@Z  (Idle)
01:000704E8 ?setIndexed_unsigned16@binary@@SAXPBUbinaryNonAtomic@@PBUpositive@@PBU4@@Z  (Idle)
01:00070534 ?setIndexed_unsigned32@binary@@SAXPBUbinaryNonAtomic@@PBUpositive@@PBU4@@Z  (Idle)
01:00070580 ?setIndexed_unsigned64@binary@@SAXPBUbinaryNonAtomic@@PBUpositive@@PA_K@Z  (Idle)
01:000705D0 ?setIndexed_integer8@binary@@SAXPBUbinaryNonAtomic@@PBUpositive@@PBU4@@Z  (Idle)
01:00070618 ?setIndexed_integer16@binary@@SAXPBUbinaryNonAtomic@@PBUpositive@@PBU4@@Z  (Idle)
01:00070664 ?setIndexed_integer32@binary@@SAXPBUbinaryNonAtomic@@PBUpositive@@PBU4@@Z  (Idle)
01:000706B0 ?setIndexed_integer64@binary@@SAXPBUbinaryNonAtomic@@PBUpositive@@PA_J@Z  (Idle)
01:00070700 ?setIndexed_integer@binary@@SAXPBUbinaryNonAtomic@@PBUpositive@@H@Z  (Idle)
01:0007074C ?setIndexed_unsigned@binary@@SAXPBUbinaryNonAtomic@@PBUpositive@@I@Z  (Idle)
01:00070798 ?setIndexed_real32@binary@@SAXPBUbinaryNonAtomic@@PBUpositive@@M@Z  (Idle)
01:000707E8 ?setIndexed_real@binary@@SAXPBUbinaryNonAtomic@@PBUpositive@@PAN@Z  (Idle)
01:00070840 ?setBinaryNonAtomic@binary@@SGXPBUbinaryNonAtomic@@PBUbyteCount@@0@Z  (Idle)
01:000708D0 ?setBinaryAtomic@binary@@SGXPBUbinaryNonAtomic@@PBUbyteCount@@QAE@Z  (Idle)
01:00070960 ?setBinaryAtomic@binary@@SGXPBUbinaryNonAtomic@@PBUbyteCount@@0@Z  (Idle)
01:000709F0 ?setValue@binary@@SAXPBUbinaryNonAtomic@@PBUbyteCount@@PAUvalue_struct@core@@@Z  (Idle)
01:00070EDC $getValue$binary$predicate$(i,i,unsigned(o))$b$_c89  (Idle)
01:00070F30 $getValue$binary$predicate$(i,i,integer64(o))$b$_c90  (Idle)
01:00070F84 $getValue$binary$predicate$(i,i,integer(o))$b$_c91 
01:00070FD8 $getValue$binary$predicate$(i,i,real(o))$b$_c92  (Idle)
01:0007102C $getValue$binary$predicate$(i,i,char(o))$b$_c93  (Idle)
01:00071084 $getValue$binary$predicate$(i,i,string(o))$b$_c94  (Idle)
01:000710F4 $getValue$binary$predicate$(i,i,localtimevalue(o))$b$_c95  (Idle)
01:00071148 $getValue$binary$predicate$(i,i,gmttimevalue(o))$b$_c96  (Idle)
01:0007119C $getValue$binary$predicate$(i,i,unsigned64(o))$b$_c97  (Idle)
01:000711F0 $getValue$binary$predicate$(i,i,unsigned(o))$b$_c98  (Idle)
01:00071244 $getValue$binary$predicate$(i,i,integer64(o))$b$_c99  (Idle)
01:00071298 $getValue$binary$predicate$(i,i,integer(o))$b$_c100  (Idle)
01:000712EC $getValue$binary$predicate$(i,i,real(o))$b$_c101  (Idle)
01:00071340 $getValue$binary$predicate$(i,i,pointer(o))$b$_c102  (Idle)
01:00071394 $getValue$binary$predicate$(i,i,object(o))$b$_c103  (Idle)
01:000713E8 $getValue$binary$predicate$(i,i,char(o))$b$_c104  (Idle)
01:00071440 $getValue$binary$predicate$(i,i,string(o))$b$_c105  (Idle)
01:000714B0 $getValue$binary$predicate$(i,i,localtimevalue(o))$b$_c106  (Idle)
01:00071504 $getValue$binary$predicate$(i,i,gmttimevalue(o))$b$_c107  (Idle)
01:00071558 ?checkOffsetForSetGetValue@binary@@SAXPBUbinaryNonAtomic@@PBUbyteCount@@1@Z 
01:00071590 ?copyTailIfNeeded@binary@@SAXPBUbinaryNonAtomic@@PBUbyteCount@@101@Z 
01:00071790 outputStream_binary?_initObject@@@QAGXQAV1@H@Z 
01:000717C4 ?@create_object@outputStream_binary@@SGQAV1@@XZ 
01:000717E0 outputStream_binary?_InternalFinalizer@@@QAGXQAV1@@Z 
01:0007195C inputStream_binary?_initObject@@@QAGXQAV1@H@Z 
01:00071990 ?@create_object@inputStream_binary@@SGQAV1@@XZ 
01:000719AC inputStream_binary?_InternalFinalizer@@@QAGXQAV1@@Z 
--- From 'Obj\multiThread.F1B93BE6.obj'
01:000719C0 ?_length@list@@SAXQAVrTypeLibrary@TypeLibraries@RunTime@VIP@@PAU?$__list_struct@PAX@@AAUpositive@@@Z 
--- From 'Obj\list.31E92F83.obj'
01:000719DC ?_length2@list@@SAXQAVrTypeLibrary@TypeLibraries@RunTime@VIP@@PAU?$__list_struct@PAX@@PBUpositive@@AAU2@@Z 
--- From 'Obj\controlSupport.99797704.obj'
01:00071A18 ?isMember@list@@SAXQAVrTypeLibrary@TypeLibraries@RunTime@VIP@@PAXPAU?$__list_struct@PAX@@@Z 
--- From 'Obj\list.31E92F83.obj'
01:00071A6C ?isMemberBy@list@@SAXQAVrTypeLibrary@TypeLibraries@RunTime@VIP@@0XPAXPAU?$__list_struct@PAX@@@Z  (Idle)
01:00071A98 ?anonymous$2$36_27$comp2eq/1@list@@SAXPAUanonymous$2$36_27$comp2eq/1c_struct@1@PAXPAX@Z 
01:00071AD8 ?_comp2eq@list@@SAXQAVrTypeLibrary@TypeLibraries@RunTime@VIP@@0XPAX@Z 
01:00071B18 ?isMemberEq@list@@SAXQAVrTypeLibrary@TypeLibraries@RunTime@VIP@@0XPAXPAU?$__list_struct@PAX@@@Z 
01:00071B80 ?_tryGetMemberBy@list@@SAXQAVrTypeLibrary@TypeLibraries@RunTime@VIP@@0XPAXPAU?$__list_struct@PAX@@PAPAX@Z  (Idle)
01:00071BAC ?_tryGetMemberEq@list@@SAXQAVrTypeLibrary@TypeLibraries@RunTime@VIP@@0XPAXPAU?$__list_struct@PAX@@PAPAX@Z 
--- From 'Obj\collectionMsupport.C5291E49.obj'
01:00071C18 ?_getMember_nd@list@@SAXQAVrTypeLibrary@TypeLibraries@RunTime@VIP@@PAU?$__list_struct@PAX@@PAPAX@Z 
--- From 'Obj\list.31E92F83.obj'
01:00071C60 ?_getTupleMember_nd@list@@SAXQAVrTypeLibrary@TypeLibraries@RunTime@VIP@@0PAUtuple_struct@core@@PAU?$__list_struct@PAX@@PAU?$__list_struct@PAX@@PAPAU23@PAPAXPAPAX@Z  (Idle)
01:00071C94 ?memberIndex_nd@list@@SAXQAVrTypeLibrary@TypeLibraries@RunTime@VIP@@PAPAXAAUpositive@@PAU?$__list_struct@PAX@@@Z  (Idle)
01:00071CA8 ?memberIndexAcc_nd@list@@SAXQAVrTypeLibrary@TypeLibraries@RunTime@VIP@@PAPAXAAUpositive@@PAU?$__list_struct@PAX@@PBU2@@Z 
01:00071D08 ?_zipHead_nd@list@@SAXQAVrTypeLibrary@TypeLibraries@RunTime@VIP@@0PAU?$__list_struct@PAX@@2PAPAUtuple_struct@core@@PAPAXPAPAX@Z 
01:00071D98 ?_zip_nd@list@@SAXQAVrTypeLibrary@TypeLibraries@RunTime@VIP@@0PAU?$__list_struct@PAX@@2PAPAUtuple_struct@core@@PAPAXPAPAX@Z 
01:00071E54 ?_zip_nd@list@@SAXQAVrTypeLibrary@TypeLibraries@RunTime@VIP@@00PAU?$__list_struct@PAX@@33PAPAUtuple_struct@core@@PAPAXPAPAXPAPAX@Z 
01:00071FA4 ?_zip@list@@SAXQAVrTypeLibrary@TypeLibraries@RunTime@VIP@@0PAU?$__list_struct@PAX@@2PAPAU?$__list_struct@PAPAUtuple_struct@core@@PAPAXPAPAX@@@Z  (Idle)
01:00072014 ?_zip@list@@SAXQAVrTypeLibrary@TypeLibraries@RunTime@VIP@@00PAU?$__list_struct@PAX@@33PAPAU?$__list_struct@PAPAUtuple_struct@core@@PAPAXPAPAXPAPAX@@@Z  (Idle)
01:0007208C ?unzip@list@@SAXQAVrTypeLibrary@TypeLibraries@RunTime@VIP@@0PAU?$__list_struct@PAUtuple_struct@core@@PAXPAX@@PAPAU?$__list_struct@PAPAX@@3@Z 
01:0007212C ?unzip@list@@SAXQAVrTypeLibrary@TypeLibraries@RunTime@VIP@@00PAU?$__list_struct@PAUtuple_struct@core@@PAXPAXPAX@@PAPAU?$__list_struct@PAPAX@@44@Z 
01:00072200 ?_anonymous$3$116_22$compare@list@@SAXPAUanonymous$3$116_22$comparec_struct@1@PAXPAXPAPAUcompareResult_struct@_builtIn@@@Z 
01:00072218 ?_sort@list@@SAXQAVrTypeLibrary@TypeLibraries@RunTime@VIP@@PAU?$__list_struct@PAX@@PAPAU?$__list_struct@PAPAX@@@Z 
01:00072264 ?_anonymous$4$120_39$sort/2@list@@SAXPAUanonymous$4$120_39$sort/2c_struct@1@PAXPAXPAPAUcompareResult_struct@_builtIn@@@Z 
01:00072298 ?_sort@list@@SAXQAVrTypeLibrary@TypeLibraries@RunTime@VIP@@PAU?$__list_struct@PAX@@PAUsortOrder_struct@core@@PAPAU?$__list_struct@PAPAX@@@Z  (Idle)
01:00072300 ?_anonymous$5$124_53$sortby/3@list@@SAXPAUanonymous$5$124_53$sortby/3c_struct@1@PAXPAXPAPAUcompareResult_struct@_builtIn@@@Z 
01:00072330 ?_sortBy@list@@SAXQAVrTypeLibrary@TypeLibraries@RunTime@VIP@@XPAU?$__list_struct@PAX@@PAUsortOrder_struct@core@@PAPAU?$__list_struct@PAPAX@@@Z  (Idle)
01:0007238C ?_sortBy@list@@SAXQAVrTypeLibrary@TypeLibraries@RunTime@VIP@@XPAU?$__list_struct@PAX@@PAPAU?$__list_struct@PAPAX@@@Z 
01:000723B8 ?_merge@list@@SAXQAVrTypeLibrary@TypeLibraries@RunTime@VIP@@XPAU?$__list_struct@PAU?$__list_struct@PAX@@@@PAPAU?$__list_struct@PAPAX@@@Z 
01:00072434 ?mergeL@list@@SAXQAVrTypeLibrary@TypeLibraries@RunTime@VIP@@XPAU?$__list_struct@PAU?$__list_struct@PAX@@@@PAPAU?$__list_struct@PAPAU?$__list_struct@PAPAX@@@@@Z 
01:000724CC ?_merge2@list@@SAXQAVrTypeLibrary@TypeLibraries@RunTime@VIP@@XPAU?$__list_struct@PAX@@2PAPAU?$__list_struct@PAPAX@@@Z 
01:000725C8 ?_mkRuns@list@@SAXQAVrTypeLibrary@TypeLibraries@RunTime@VIP@@XPAU?$__list_struct@PAX@@PAPAU?$__list_struct@PAPAU?$__list_struct@PAPAX@@@@@Z 
01:000726EC ?takeRun@list@@SAXQAVrTypeLibrary@TypeLibraries@RunTime@VIP@@XPAXPAU?$__list_struct@PAX@@PAPAU?$__list_struct@PAPAX@@4@Z 
01:000727D8 ?takeRunDown@list@@SAXQAVrTypeLibrary@TypeLibraries@RunTime@VIP@@XPAXPAU?$__list_struct@PAX@@3PAPAU?$__list_struct@PAPAX@@5@Z 
01:000728AC ?_append@list@@SAXQAVrTypeLibrary@TypeLibraries@RunTime@VIP@@PAU?$__list_struct@PAX@@1PAPAU?$__list_struct@PAPAX@@@Z 
01:000728D0 ?_append1@list@@SAXQAVrTypeLibrary@TypeLibraries@RunTime@VIP@@PAU?$__list_struct@PAX@@1PAPAU?$__list_struct@PAPAX@@@Z 
01:00072938 ?_append@list@@SAXQAVrTypeLibrary@TypeLibraries@RunTime@VIP@@PAU?$__list_struct@PAX@@11PAPAU?$__list_struct@PAPAX@@@Z 
01:0007296C ?_append@list@@SAXQAVrTypeLibrary@TypeLibraries@RunTime@VIP@@PAU?$__list_struct@PAX@@111PAPAU?$__list_struct@PAPAX@@@Z 
01:000729A0 ?_append@list@@SAXQAVrTypeLibrary@TypeLibraries@RunTime@VIP@@PAU?$__list_struct@PAX@@1111PAPAU?$__list_struct@PAPAX@@@Z  (Idle)
01:000729D4 ?_appendList@list@@SAXQAVrTypeLibrary@TypeLibraries@RunTime@VIP@@PAU?$__list_struct@PAU?$__list_struct@PAX@@@@PAPAU?$__list_struct@PAPAX@@@Z 
01:00072A54 ?_reverse@list@@SAXQAVrTypeLibrary@TypeLibraries@RunTime@VIP@@PAU?$__list_struct@PAX@@PAPAU?$__list_struct@PAPAX@@@Z 
01:00072A7C ?_reverse1@list@@SAXQAVrTypeLibrary@TypeLibraries@RunTime@VIP@@PAU?$__list_struct@PAX@@1PAPAU?$__list_struct@PAPAX@@@Z 
01:00072AD4 ?_remove@list@@SAXQAVrTypeLibrary@TypeLibraries@RunTime@VIP@@PAU?$__list_struct@PAX@@PAXPAPAU?$__list_struct@PAPAX@@@Z 
01:00072B6C ?_removeBy@list@@SAXQAVrTypeLibrary@TypeLibraries@RunTime@VIP@@0XPAU?$__list_struct@PAX@@PAXPAPAU?$__list_struct@PAPAX@@@Z  (Idle)
01:00072B98 ?_removeEq@list@@SAXQAVrTypeLibrary@TypeLibraries@RunTime@VIP@@0XPAU?$__list_struct@PAX@@PAXPAPAU?$__list_struct@PAPAX@@@Z 
01:00072C40 ?_removeAll@list@@SAXQAVrTypeLibrary@TypeLibraries@RunTime@VIP@@PAU?$__list_struct@PAX@@PAXPAPAU?$__list_struct@PAPAX@@@Z 
01:00072CE4 ?_removeAllBy@list@@SAXQAVrTypeLibrary@TypeLibraries@RunTime@VIP@@0XPAU?$__list_struct@PAX@@PAXPAPAU?$__list_struct@PAPAX@@@Z  (Idle)
01:00072D10 ?_removeAllEq@list@@SAXQAVrTypeLibrary@TypeLibraries@RunTime@VIP@@0XPAU?$__list_struct@PAX@@PAXPAPAU?$__list_struct@PAPAX@@@Z 
01:00072DC0 ?_removeDuplicates@list@@SAXQAVrTypeLibrary@TypeLibraries@RunTime@VIP@@PAU?$__list_struct@PAX@@PAPAU?$__list_struct@PAPAX@@@Z  (Idle)
01:00072DF4 ?_removeDuplicatesBy@list@@SAXQAVrTypeLibrary@TypeLibraries@RunTime@VIP@@XPAU?$__list_struct@PAX@@PAPAU?$__list_struct@PAPAX@@@Z  (Idle)
01:00072E28 ?_removeDuplicates1@list@@SAXQAVrTypeLibrary@TypeLibraries@RunTime@VIP@@PAU?$__list_struct@PAX@@QAVsetM@@@PAXPAPAU?$__list_struct@PAPAX@@@Z 
01:00072EF8 ?_removeDuplicatesEq@list@@SAXQAVrTypeLibrary@TypeLibraries@RunTime@VIP@@XPAU?$__list_struct@PAX@@PAPAU?$__list_struct@PAPAX@@@Z 
01:00072FA0 ?_anonymous$6$287_71$compare@list@@SAXPAUanonymous$6$287_71$comparec_struct@1@PAXPAXPAPAUcompareResult_struct@_builtIn@@@Z 
01:00072FB8 ?_removeConsecutiveDuplicates@list@@SAXQAVrTypeLibrary@TypeLibraries@RunTime@VIP@@PAU?$__list_struct@PAX@@PAPAU?$__list_struct@PAPAX@@@Z  (Idle)
01:00073004 ?_removeConsecutiveDuplicatesEq@list@@SAXQAVrTypeLibrary@TypeLibraries@RunTime@VIP@@XPAU?$__list_struct@PAX@@PAPAU?$__list_struct@PAPAX@@@Z 
01:000730DC ?_removeConsecutiveDuplicatesBy@list@@SAXQAVrTypeLibrary@TypeLibraries@RunTime@VIP@@XPAU?$__list_struct@PAX@@PAPAU?$__list_struct@PAPAX@@@Z 
01:000731B0 ?_difference@list@@SAXQAVrTypeLibrary@TypeLibraries@RunTime@VIP@@PAU?$__list_struct@PAX@@1PAPAU?$__list_struct@PAPAX@@@Z 
01:0007325C ?_differenceBy@list@@SAXQAVrTypeLibrary@TypeLibraries@RunTime@VIP@@0XPAU?$__list_struct@PAX@@3PAPAU?$__list_struct@PAPAX@@@Z  (Idle)
01:00073288 ?_differenceEq@list@@SAXQAVrTypeLibrary@TypeLibraries@RunTime@VIP@@0XPAU?$__list_struct@PAX@@3PAPAU?$__list_struct@PAPAX@@@Z 
01:0007333C ?_nDuplicates@list@@SAXQAVrTypeLibrary@TypeLibraries@RunTime@VIP@@PAXPBUpositive@@PAPAU?$__list_struct@PAPAX@@@Z 
01:00073390 ?_tryGetIndex@list@@SAXQAVrTypeLibrary@TypeLibraries@RunTime@VIP@@PAXPAU?$__list_struct@PAX@@AAUpositive@@@Z 
01:000733AC ?_tryGetIndex@list@@SAXQAVrTypeLibrary@TypeLibraries@RunTime@VIP@@PAXPAU?$__list_struct@PAX@@PBUpositive@@AAU2@@Z 
01:00073418 ?_tryGetIndexBy@list@@SAXQAVrTypeLibrary@TypeLibraries@RunTime@VIP@@0XPAXPAU?$__list_struct@PAX@@AAUpositive@@@Z  (Idle)
01:00073468 ?_tryGetIndexEq@list@@SAXQAVrTypeLibrary@TypeLibraries@RunTime@VIP@@0XPAXPAU?$__list_struct@PAX@@AAUpositive@@@Z  (Idle)
01:00073484 ?_tryGetIndexEq@list@@SAXQAVrTypeLibrary@TypeLibraries@RunTime@VIP@@0XPAXPAU?$__list_struct@PAX@@PBUpositive@@AAU2@@Z 
01:00073504 ?_tryLastItem@list@@SAXQAVrTypeLibrary@TypeLibraries@RunTime@VIP@@PAU?$__list_struct@PAX@@PAPAX@Z 
01:0007354C ?_nth@list@@SAXQAVrTypeLibrary@TypeLibraries@RunTime@VIP@@PBUpositive@@PAU?$__list_struct@PAX@@PAPAX@Z 
01:000735C0 ?_tryGetNth@list@@SAXQAVrTypeLibrary@TypeLibraries@RunTime@VIP@@PBUpositive@@PAU?$__list_struct@PAX@@PAPAX@Z 
01:00073624 ?setNth@list@@SAXQAVrTypeLibrary@TypeLibraries@RunTime@VIP@@PBUpositive@@PAU?$__list_struct@PAX@@PAXPAPAU?$__list_struct@PAPAX@@@Z 
01:00073728 ?split@list@@SAXQAVrTypeLibrary@TypeLibraries@RunTime@VIP@@PBUpositive@@PAU?$__list_struct@PAX@@PAPAU?$__list_struct@PAPAX@@3@Z 
01:000737E0 ?_take@list@@SAXQAVrTypeLibrary@TypeLibraries@RunTime@VIP@@PBUpositive@@PAU?$__list_struct@PAX@@PAPAU?$__list_struct@PAPAX@@@Z  (Idle)
01:00073804 ?_drop@list@@SAXQAVrTypeLibrary@TypeLibraries@RunTime@VIP@@PBUpositive@@PAU?$__list_struct@PAX@@PAPAU?$__list_struct@PAPAX@@@Z 
01:00073864 ?_anonymous$7$394_31$compare@list@@SAXPAUanonymous$7$394_31$comparec_struct@1@PAXPAXPAPAUcompareResult_struct@_builtIn@@@Z 
--- From 'Obj\DataBase.D5FA3BBF.obj'
01:0007387C ?_maximum@list@@SAXQAVrTypeLibrary@TypeLibraries@RunTime@VIP@@PAU?$__list_struct@PAX@@PAPAX@Z 
--- From 'Obj\list.31E92F83.obj'
01:000738C8 ?_maximumBy@list@@SAXQAVrTypeLibrary@TypeLibraries@RunTime@VIP@@XPAU?$__list_struct@PAX@@PAPAX@Z 
01:00073918 ?_anonymous$8$402_31$compare@list@@SAXPAUanonymous$8$402_31$comparec_struct@1@PAXPAXPAPAUcompareResult_struct@_builtIn@@@Z 
01:00073930 ?_minimum@list@@SAXQAVrTypeLibrary@TypeLibraries@RunTime@VIP@@PAU?$__list_struct@PAX@@PAPAX@Z  (Idle)
01:0007397C ?_anonymous$9$407_53$minimumby/2@list@@SAXPAUanonymous$9$407_53$minimumby/2c_struct@1@PAXPAXPAPAUcompareResult_struct@_builtIn@@@Z 
01:000739AC ?_minimumBy@list@@SAXQAVrTypeLibrary@TypeLibraries@RunTime@VIP@@XPAU?$__list_struct@PAX@@PAPAX@Z 
01:00073A34 ?_extremum@list@@SAXQAVrTypeLibrary@TypeLibraries@RunTime@VIP@@XPAXPAU?$__list_struct@PAX@@PAPAX@Z 
01:00073AB4 ?_union@list@@SAXQAVrTypeLibrary@TypeLibraries@RunTime@VIP@@PAU?$__list_struct@PAX@@1PAPAU?$__list_struct@PAPAX@@@Z 
01:00073B60 ?_unionBy@list@@SAXQAVrTypeLibrary@TypeLibraries@RunTime@VIP@@XPAU?$__list_struct@PAX@@2PAPAU?$__list_struct@PAPAX@@@Z  (Idle)
01:00073B8C ?_unionEq@list@@SAXQAVrTypeLibrary@TypeLibraries@RunTime@VIP@@XPAU?$__list_struct@PAX@@2PAPAU?$__list_struct@PAPAX@@@Z 
01:00073C3C ?_intersection@list@@SAXQAVrTypeLibrary@TypeLibraries@RunTime@VIP@@PAU?$__list_struct@PAX@@1PAPAU?$__list_struct@PAPAX@@@Z 
01:00073CE0 ?_intersectionBy@list@@SAXQAVrTypeLibrary@TypeLibraries@RunTime@VIP@@XPAU?$__list_struct@PAX@@2PAPAU?$__list_struct@PAPAX@@@Z  (Idle)
01:00073D0C ?_intersectionEq@list@@SAXQAVrTypeLibrary@TypeLibraries@RunTime@VIP@@XPAU?$__list_struct@PAX@@2PAPAU?$__list_struct@PAPAX@@@Z 
01:00073DB8 ?_filter@list@@SAXQAVrTypeLibrary@TypeLibraries@RunTime@VIP@@PAU?$__list_struct@PAX@@XPAPAU?$__list_struct@PAPAX@@@Z  (Idle)
01:00073E3C ?filter@list@@SAXQAVrTypeLibrary@TypeLibraries@RunTime@VIP@@PAU?$__list_struct@PAX@@XPAPAU?$__list_struct@PAPAX@@3@Z 
01:00073F24 ?_decompose@list@@SAXQAVrTypeLibrary@TypeLibraries@RunTime@VIP@@0PAU?$__list_struct@PAX@@XPAPAU?$__list_struct@PAPAUtuple_struct@core@@PAPAXPAPAU?$__list_struct@PAPAX@@@@@Z  (Idle)
01:000740C0 ?_map@list@@SAXQAVrTypeLibrary@TypeLibraries@RunTime@VIP@@0PAU?$__list_struct@PAX@@XPAPAU?$__list_struct@PAPAX@@@Z 
--- From 'Obj\controlSupport.99797704.obj'
01:00074148 ?_fold@list@@SAXQAVrTypeLibrary@TypeLibraries@RunTime@VIP@@0PAU?$__list_struct@PAX@@XPAXPAPAX@Z 
01:000741B4 ?forAll@list@@SAXQAVrTypeLibrary@TypeLibraries@RunTime@VIP@@PAU?$__list_struct@PAX@@X@Z 
--- From 'Obj\list.31E92F83.obj'
01:000741FC ?exists@list@@SAXQAVrTypeLibrary@TypeLibraries@RunTime@VIP@@PAU?$__list_struct@PAX@@X@Z 
01:00074260 ?exceptionDifferentLength@list@@SAXPB_W@Z 
01:00074298 ?exceptionEmpty@list@@SAXPB_W@Z 
01:000742D0 ?classInfo@list@@SAXPAPB_W0@Z 
--- From 'Obj\namedValue.547BB274.obj'
01:000742F0 ?classInfo@namedValue@@SAXPAPB_W0@Z 
--- From 'Obj\errorPresentationDialog.9174D14B.obj'
01:0007430C ?_tryMapLookUp@namedValue@@SAXPAU?$__list_struct@U1@@@PB_WPAPAUvalue_struct@core@@@Z 
--- From 'Obj\namedValue.547BB274.obj'
01:00074368 ?_tryMapLookUpIgnoreCase@namedValue@@SAXPAU?$__list_struct@U1@@@PB_WPAPAUvalue_struct@core@@@Z 
01:000743D0 ?_mapLookUp@namedValue@@SAXPAU?$__list_struct@U1@@@PB_WPAPAUvalue_struct@core@@@Z 
01:000744D4 ?nameNotInMap@namedValue@@SAXPAXPAPB_W1@Z 
01:000744FC ?_mapLookUp@namedValue@@SAXPAU?$__list_struct@U1@@@PB_WPAUvalue_struct@core@@PAPAU34@@Z  (Idle)
01:00074538 ?_lookUp_nd@namedValue@@SAXPAU?$__list_struct@U1@@@PB_WPAPAUvalue_struct@core@@@Z 
01:000745A8 ?_getNamed_integer@namedValue@@SAXPAU?$__list_struct@U1@@@PB_WPAH@Z  (Idle)
01:000745D8 ?_tryGetNamed_integer@namedValue@@SAXPAU?$__list_struct@U1@@@PB_WPAH@Z  (Idle)
01:00074618 ?_getNamedDefault_integer@namedValue@@SAXPAU?$__list_struct@U1@@@PB_WHPAH@Z  (Idle)
01:00074670 ?_getNamed_unsigned@namedValue@@SAXPAU?$__list_struct@U1@@@PB_WPAI@Z  (Idle)
01:000746A0 ?_tryGetNamed_unsigned@namedValue@@SAXPAU?$__list_struct@U1@@@PB_WPAI@Z  (Idle)
01:000746E0 ?_getNamedDefault_unsigned@namedValue@@SAXPAU?$__list_struct@U1@@@PB_WIPAI@Z  (Idle)
01:00074738 ?_getNamed_real@namedValue@@SAXPAU?$__list_struct@U1@@@PB_WPAPAN@Z  (Idle)
01:00074768 ?_tryGetNamed_real@namedValue@@SAXPAU?$__list_struct@U1@@@PB_WPAPAN@Z  (Idle)
01:000747A8 ?_getNamedDefault_real@namedValue@@SAXPAU?$__list_struct@U1@@@PB_WPANPAPAN@Z  (Idle)
01:00074800 ?_getNamed_char@namedValue@@SAXPAU?$__list_struct@U1@@@PB_WPA_W@Z  (Idle)
01:00074830 ?_tryGetNamed_char@namedValue@@SAXPAU?$__list_struct@U1@@@PB_WPA_W@Z  (Idle)
01:00074874 ?_getNamedDefault_char@namedValue@@SAXPAU?$__list_struct@U1@@@PB_W_WPA_W@Z  (Idle)
01:000748D0 ?_getNamed_string@namedValue@@SAXPAU?$__list_struct@U1@@@PB_WPAPB_W@Z  (Idle)
01:00074900 ?_tryGetNamed_string@namedValue@@SAXPAU?$__list_struct@U1@@@PB_WPAPB_W@Z 
01:00074940 ?_getNamedDefault_string@namedValue@@SAXPAU?$__list_struct@U1@@@PB_W1PAPB_W@Z  (Idle)
01:00074998 ?_getNamed_boolean@namedValue@@SAXPAU?$__list_struct@U1@@@PB_WPAPAUboolean_struct@_builtIn@@@Z  (Idle)
01:000749C8 ?_tryGetNamed_boolean@namedValue@@SAXPAU?$__list_struct@U1@@@PB_WPAPAUboolean_struct@_builtIn@@@Z  (Idle)
01:00074A08 ?_getNamedDefault_boolean@namedValue@@SAXPAU?$__list_struct@U1@@@PB_WPAUboolean_struct@_builtIn@@PAPAU34@@Z  (Idle)
01:00074A60 ?_getNamed_binary@namedValue@@SAXPAU?$__list_struct@U1@@@PB_WQAPAE@Z  (Idle)
01:00074AE4 ?_tryGetNamed_binary@namedValue@@SAXPAU?$__list_struct@U1@@@PB_WQAPAE@Z  (Idle)
01:00074B24 ?_getNamedDefault_binary@namedValue@@SAXPAU?$__list_struct@U1@@@PB_WQAEQAPAE@Z  (Idle)
01:00074B54 ?_getNamed_object@namedValue@@SAXPAU?$__list_struct@U1@@@PB_WPAPAV3@@@Z  (Idle)
01:00074BD8 ?_tryGetNamed_object@namedValue@@SAXPAU?$__list_struct@U1@@@PB_WPAPAV3@@@Z  (Idle)
01:00074C18 ?_getNamedDefault_object@namedValue@@SAXPAU?$__list_struct@U1@@@PB_WQAV3@@PAPAV3@@@Z  (Idle)
01:00074C48 ?_getNamed_pointer@namedValue@@SAXPAU?$__list_struct@U1@@@PB_WPAPAX@Z  (Idle)
01:00074CCC ?_tryGetNamed_pointer@namedValue@@SAXPAU?$__list_struct@U1@@@PB_WPAPAX@Z  (Idle)
01:00074D0C ?_getNamedDefault_pointer@namedValue@@SAXPAU?$__list_struct@U1@@@PB_WPAXPAPAX@Z  (Idle)
01:00074D64 ?_getNamed_handle@namedValue@@SAXPAU?$__list_struct@U1@@@PB_WAAU3@@Z  (Idle)
01:00074DE8 ?_tryGetNamed_handle@namedValue@@SAXPAU?$__list_struct@U1@@@PB_WAAU3@@Z  (Idle)
01:00074E28 ?_getNamedDefault_handle@namedValue@@SAXPAU?$__list_struct@U1@@@PB_WPBU3@AAU3@@Z  (Idle)
01:00074E80 ?_getNamed_gmtTimeValue@namedValue@@SAXPAU?$__list_struct@U1@@@PB_WPAAAU3@@Z  (Idle)
01:00074EB0 ?_tryGetNamed_gmtTimeValue@namedValue@@SAXPAU?$__list_struct@U1@@@PB_WPAAAU3@@Z  (Idle)
01:00074EF0 ?_getNamedDefault_gmtTimeValue@namedValue@@SAXPAU?$__list_struct@U1@@@PB_WPAPBU3@PAAAU3@@Z  (Idle)
01:00074F48 ?_getNamed_integer64@namedValue@@SAXPAU?$__list_struct@U1@@@PB_WPAPA_J@Z  (Idle)
01:00074FCC ?_tryGetNamed_integer64@namedValue@@SAXPAU?$__list_struct@U1@@@PB_WPAPA_J@Z  (Idle)
01:0007500C ?_getNamedDefault_integer64@namedValue@@SAXPAU?$__list_struct@U1@@@PB_WPA_JPAPA_J@Z  (Idle)
01:0007503C ?_getNamed_unsigned64@namedValue@@SAXPAU?$__list_struct@U1@@@PB_WPAPA_K@Z  (Idle)
01:000750C0 ?_tryGetNamed_unsigned64@namedValue@@SAXPAU?$__list_struct@U1@@@PB_WPAPA_K@Z  (Idle)
01:00075100 ?_getNamedDefault_unsigned64@namedValue@@SAXPAU?$__list_struct@U1@@@PB_WPA_KPAPA_K@Z  (Idle)
--- From 'Obj\std.74E19363.obj'
01:00075130 ?classInfo@std@@SAXPAPB_W0@Z  (Idle)
01:0007514C ?_fromTo@std@@SAXHHPAH@Z 
01:00075198 ?_downTo@std@@SAXHHPAH@Z 
01:000751E4 ?_between@std@@SAXHHPAH@Z  (Idle)
01:00075284 ?_fromToInStep@std@@SAXHHPBUpositive@@PAH@Z 
01:000752D4 ?_downToInStep@std@@SAXHHPBUpositive@@PAH@Z 
01:00075324 ?_betweenInStep@std@@SAXHHPBUpositive@@PAH@Z  (Idle)
01:000753D8 ?_countFrom@std@@SAXHPAH@Z 
01:00075408 ?_countFromInStep@std@@SAXHPBUpositive@@PAH@Z 
01:0007543C ?_countDownFrom@std@@SAXHPAH@Z 
01:0007546C ?_countDownFromInStep@std@@SAXHPBUpositive@@PAH@Z 
01:000754A0 ?repeat@std@@SAXXZ 
01:000754C0 ?_fromTo@std@@SAXIIPAI@Z 
01:0007550C ?_downTo@std@@SAXIIPAI@Z 
01:00075558 ?_between@std@@SAXIIPAI@Z  (Idle)
--- From 'Obj\runTime_api.CB430B85.obj'
01:00075600 ?classInfo@runtime_api@@SAXPAPB_W0@Z  (Idle)
01:0007561C ?_determineOSV5@runtime_api@@SAXIIPBUunsigned16@@PAPB_W@Z 
01:000758C8 ?_determineOSV4@runtime_api@@SAXIIPBUunsigned16@@PAPB_W@Z 
01:00075960 ?_determineOSV6@runtime_api@@SAXIIPBUunsigned16@@PAPB_W@Z 
01:00075A58 ?_determineMajorVersion@runtime_api@@SAXIIIPBUunsigned16@@PAPB_W@Z 
01:00075B24 ?_determineOSFamily@runtime_api@@SAXIPAPB_W@Z 
01:00075C68 ?getOSVersion@runtime_api@@SAXQAVoutputStream@@@@Z 
01:00075DB8 ?_getSysInfoStr@runtime_api@@SAXPAPB_W@Z 
01:00075E4C ?_systemInfo_native@runtime_api@@SAXXPAPAUsystem_Info_struct@systemInformation_native@@@Z 
01:00075E7C ?_getNativeSysInfo@runtime_api@@SAXPAPB_W@Z 
01:00075F60 ?_getRegInfo@runtime_api@@SAXPAPB_W@Z 
01:00076004 ?_getRegInfoK@runtime_api@@SAXPB_WPAPB_W@Z 
01:00076070 ?_printString@runtime_api@@SAXPAUvalue_struct@core@@PAPB_W@Z 
01:000760C4 ?_class_facts_initializer@runtime_api@@SGXXZ 
--- From 'Obj\boolean.F0E458C4.obj'
01:000760E0 ?classInfo@boolean@@SAXPAPB_W0@Z  (Idle)
--- From 'Obj\regExp.1C7438E9.obj'
01:000760FC ?_toBooleanInt@boolean@@SAXPAUboolean_struct@_builtIn@@AAUbooleanInt@@@Z 
--- From 'Obj\boolean.F0E458C4.obj'
01:00076120 ?_fromBooleanInt@boolean@@SAXPBUbooleanInt@@PAPAUboolean_struct@_builtIn@@@Z 
--- From 'Obj\controlSupport.99797704.obj'
01:00076144 ?_logicalNot@boolean@@SAXPAUboolean_struct@_builtIn@@PAPAU23@@Z 
--- From 'Obj\boolean.F0E458C4.obj'
01:00076168 ?_logicalAnd@boolean@@SAXPAUboolean_struct@_builtIn@@0PAPAU23@@Z 
01:000761A4 ?_logicalOr@boolean@@SAXPAUboolean_struct@_builtIn@@0PAPAU23@@Z  (Idle)
01:000761E0 ?_logicalXor@boolean@@SAXPAUboolean_struct@_builtIn@@0PAPAU23@@Z  (Idle)
--- From 'Obj\controlSupport.99797704.obj'
01:00076220 ?classInfo@userControlSupport@@SAXPAPB_W0@Z 
01:0007623C ?new@userControlSupport@@SAXQAV1@@@Z 
01:00076318 ?new@userControlSupport@@SAXQAV1@@QAVcontainerWindow@@@@Z 
01:00076334 ?setDrawWindowExtension@userControlSupport@@SAXQAVdrawWindow@@@QAVdrawWindowExtension@@@@Z 
01:0007634C ?_onControlNative@userControlSupport@@SAXQAV1@@QAVwindow@@@IIHPAPAUnativeResponse_struct@3@@Z 
01:000763E0 ?show@userControlSupport@@SAXQAVwindow@@@@Z 
01:00076600 ?onBackgroundGetFocus@userControlSupport@@SAXQAV1@@QAVwindow@@@@Z 
01:00076620 ?_getDrawWindow@userControlSupport@@SAXQAV1@@PAPAVdrawWindow@@@@Z 
01:00076634 ?setContainer@userControlSupport@@SAXQAVcontrol@@@QAVcontainerWindow@@@@Z 
01:000766D0 ?addToParentContainer@userControlSupport@@SAXQAV1@@QAVcontainerWindow@@@@Z 
01:00076708 ?_tryGetControl@userControlSupport@@SAXQAVcontainerWindow@@@PAPAVcontrol@@@@Z 
01:00076728 ?_validate@userControlSupport@@SAXQAVcontrol@@@PAPAUvalidateResult_struct@2@@Z 
01:00076788 ?_onControlEraseBackground@userControlSupport@@SAXQAVdrawWindow@@@QAVwindowGDI@@@PAPAUeraseBackgroundResponse_struct@2@@Z 
01:0007679C ?setHorizontalScroll@userControlSupport@@SAXQAV1@@@Z 
01:000767B0 ?setHorizontalScroll@userControlSupport@@SAXQAV1@@PAUboolean_struct@_builtIn@@@Z 
01:00076810 ?_getHorizontalScroll@userControlSupport@@SAXQAV1@@PAPAUboolean_struct@_builtIn@@@Z 
01:00076824 ?setVerticalScroll@userControlSupport@@SAXQAV1@@@Z 
01:00076838 ?setVerticalScroll@userControlSupport@@SAXQAV1@@PAUboolean_struct@_builtIn@@@Z 
01:00076898 ?_getVerticalScroll@userControlSupport@@SAXQAV1@@PAPAUboolean_struct@_builtIn@@@Z 
01:000768AC ?setTransparent@userControlSupport@@SAXQAV1@@@Z 
01:000768C0 ?setTransparent@userControlSupport@@SAXQAV1@@PAUboolean_struct@_builtIn@@@Z 
01:00076920 ?_getTransparent@userControlSupport@@SAXQAV1@@PAPAUboolean_struct@_builtIn@@@Z 
01:00076934 ?setBorder@userControlSupport@@SAXQAV1@@@Z 
01:00076948 ?setBorder@userControlSupport@@SAXQAV1@@PAUboolean_struct@_builtIn@@@Z 
01:000769A8 ?_getBorder@userControlSupport@@SAXQAV1@@PAPAUboolean_struct@_builtIn@@@Z 
01:000769BC ?_new@userControlSupport@@SAXQAVcontainerWindow@@@PAPAV1@@@Z  (Idle)
01:000769E4 ?_new@userControlSupport@@SAXPAPAV1@@@Z  (Idle)
01:00076A0C ?_object_facts_initializer@userControlSupport@@SGXQAV1@@@Z 
01:00076A38 ?handlePaint@userControlSupport@@SAXQAVdrawWindowExtension@@@QAVdrawWindow@@@PAUrct_struct@vpiDomains@@QAVwindowGDI@@@@Z 
01:00076A64 ?_handleEraseBackground@userControlSupport@@SAXQAVdrawWindowExtension@@@QAVdrawWindow@@@PAPAUeraseBackgroundResponse_struct@3@@Z 
01:00076A90 ?handleMouseDown@userControlSupport@@SAXQAVdrawWindowExtension@@@QAVdrawWindow@@@PAUpnt_struct@vpiDomains@@PBUkeyModifier@5@H@Z 
01:00076ABC ?handleMouseUp@userControlSupport@@SAXQAVdrawWindowExtension@@@QAVdrawWindow@@@PAUpnt_struct@vpiDomains@@PBUkeyModifier@5@H@Z 
01:00076AE8 ?handleMouseMove@userControlSupport@@SAXQAVdrawWindowExtension@@@QAVdrawWindow@@@PAUpnt_struct@vpiDomains@@PBUkeyModifier@5@PAU?$__list_struct@Uinteger@@@@@Z 
01:00076B14 ?handleMouseDbl@userControlSupport@@SAXQAVdrawWindowExtension@@@QAVdrawWindow@@@PAUpnt_struct@vpiDomains@@PBUkeyModifier@5@H@Z 
01:00076B40 ?_handleChar@userControlSupport@@SAXQAVdrawWindowExtension@@@QAVdrawWindow@@@HPBUkeyModifier@vpiDomains@@PAPAUcharResponse_struct@3@@Z 
01:00076B6C ?_handleKeyDown@userControlSupport@@SAXQAVdrawWindowExtension@@@QAVdrawWindow@@@HPBUkeyModifier@vpiDomains@@PAPAUkeyDownResponse_struct@3@@Z 
01:00076B98 ?_handleKeyUp@userControlSupport@@SAXQAVdrawWindowExtension@@@QAVdrawWindow@@@HPBUkeyModifier@vpiDomains@@PAPAUkeyUpResponse_struct@3@@Z 
01:00076BC4 ?handleVScroll@userControlSupport@@SAXQAVdrawWindowExtension@@@QAVdrawWindow@@@PBUscrollCode@vpiDomains@@H@Z 
01:00076BF0 ?handleHScroll@userControlSupport@@SAXQAVdrawWindowExtension@@@QAVdrawWindow@@@PBUscrollCode@vpiDomains@@H@Z 
01:00076C1C ?handleShow@userControlSupport@@SAXQAVwindowExtension@@@QAVwindow@@@H@Z 
01:00076C48 ?handleDestroy@userControlSupport@@SAXQAVwindowExtension@@@QAVwindow@@@@Z 
01:00076C74 ?handleSize@userControlSupport@@SAXQAVwindowExtension@@@QAVwindow@@@HH@Z 
01:00076CA0 ?handleMove@userControlSupport@@SAXQAVwindowExtension@@@QAVwindow@@@HH@Z 
01:00076CCC ?handleFocus@userControlSupport@@SAXQAVwindowExtension@@@QAVwindow@@@@Z 
01:00076CF8 ?handleLoseFocus@userControlSupport@@SAXQAVwindowExtension@@@QAVwindow@@@@Z 
01:00076D24 ?handleMenuCommand@userControlSupport@@SAXQAVwindowExtension@@@QAVwindow@@@PBUmenuTag@vpiDomains@@@Z 
01:00076D50 ?handleTimer@userControlSupport@@SAXQAVwindowExtension@@@QAVwindow@@@PBUtimerId@vpiDomains@@@Z 
01:00076D7C ?_handleNative@userControlSupport@@SAXQAVwindowExtension@@@QAVwindow@@@IIHPAPAUnativeResponse_struct@3@@Z 
01:00076DA8 ?handleUser@userControlSupport@@SAXQAVwindowExtension@@@QAVwindow@@@HH@Z 
01:00076DD4 ?handleStateChange@userControlSupport@@SAXQAVwindowExtension@@@QAVwindow@@@PAUstateInfo_struct@vpiDomains@@@Z 
01:00076E00 ?setStyle@styleFlagsEx@@SAXQAV1@@I@Z 
01:00076E28 ?resetStyle@styleFlagsEx@@SAXQAV1@@I@Z 
01:00076E5C ?setStyleEx@styleFlagsEx@@SAXQAV1@@I@Z 
01:00076E84 ?resetStyleEx@styleFlagsEx@@SAXQAV1@@I@Z 
01:00076EB8 ?_getStyleBoolean@styleFlagsEx@@SAXQAV1@@IPAPAUboolean_struct@_builtIn@@@Z 
01:00076EF4 ?setStyleBoolean@styleFlagsEx@@SAXQAV1@@IPAUboolean_struct@_builtIn@@@Z 
01:00076F10 ?_getStyleExBoolean@styleFlagsEx@@SAXQAV1@@IPAPAUboolean_struct@_builtIn@@@Z 
01:00076F4C ?setStyleExBoolean@styleFlagsEx@@SAXQAV1@@IPAUboolean_struct@_builtIn@@@Z 
01:00076F68 ?setWsflags@styleFlagsEx@@SAXQAV1@@PAU?$__list_struct@Uwsflag@@@@@Z 
01:00076FB4 ?resetWsflags@styleFlagsEx@@SAXQAV1@@PAU?$__list_struct@Uwsflag@@@@@Z 
01:00077000 ?setWsflag@styleFlagsEx@@SAXQAV1@@PBUwsflag@@@Z 
01:0007708C ?resetWsflag@styleFlagsEx@@SAXQAV1@@PBUwsflag@@@Z 
01:00077118 ?mapStyle@styleFlagsEx@@SAXPBUwsflag@@PAI@Z 
01:00077274 ?mapStyleEx@styleFlagsEx@@SAXPBUwsflag@@PAI@Z 
01:000773B4 ?classInfo@styleFlagsEx@@SAXPAPB_W0@Z  (Idle)
01:000773D0 ?new@styleFlagsEx@@SAXQAV1@@@Z 
01:000773D8 ?_new@styleFlagsEx@@SAXPAPAV1@@@Z  (Idle)
01:00077400 ?_object_facts_initializer@styleFlagsEx@@SGXQAV1@@@Z 
01:00077418 ?style@styleFlagsEx@@SGXQAV1@@I@Z 
01:00077428 ?style@styleFlagsEx@@SGIQAV1@@@Z 
01:00077434 ?styleEx@styleFlagsEx@@SGXQAV1@@I@Z 
01:00077444 ?styleEx@styleFlagsEx@@SGIQAV1@@@Z 
01:00077450 ?classInfo@standardControlSupport@@SAXPAPB_W0@Z  (Idle)
01:0007746C ?new@standardControlSupport@@SAXQAV1@@PBUwintype@vpiDomains@@@Z 
01:000774C8 ?show@standardControlSupport@@SAXQAVwindow@@@@Z 
01:00077680 ?_new@standardControlSupport@@SAXPBUwintype@vpiDomains@@PAPAVcontrol@@@@Z  (Idle)
01:000776A8 ?classInfo@nullControlSupport@@SAXPAPB_W0@Z  (Idle)
01:000776C4 ?new@nullControlSupport@@SAXQAV1@@QAVcontainerWindow@@@@Z 
01:000776E0 ?new@nullControlSupport@@SAXQAV1@@@Z 
01:00077718 ?_new@nullControlSupport@@SAXQAVcontainerWindow@@@PAPAV1@@@Z 
01:00077740 ?_new@nullControlSupport@@SAXPAPAV1@@@Z  (Idle)
01:00077768 ?classInfo@drawControlSupport@@SAXPAPB_W0@Z 
01:00077784 ?new@drawControlSupport@@SAXQAV1@@@Z 
01:00077878 ?new@drawControlSupport@@SAXQAV1@@QAVcontainerWindow@@@@Z 
01:00077894 ?_getDefaultUserControlExtension@drawControlSupport@@SAXQAV1@@PAPAVdrawControlExtension@@@@Z 
01:000778A8 ?_getUserControlExtension@drawControlSupport@@SAXQAV1@@PAPAVdrawControlExtension@@@@Z 
01:000778CC ?setUserControlExtension@drawControlSupport@@SAXQAV1@@QAVdrawControlExtension@@@@Z 
01:000778F0 ?setDrawWindowExtension@drawControlSupport@@SAXQAVdrawWindow@@@QAVdrawWindowExtension@@@@Z 
01:00077908 ?show@drawControlSupport@@SAXQAVwindow@@@@Z 
01:000779EC ?setContainer@drawControlSupport@@SAXQAVcontrol@@@QAVcontainerWindow@@@@Z 
01:00077A8C ?addToParentContainer@drawControlSupport@@SAXQAV1@@QAVcontainerWindow@@@@Z 
01:00077AC4 ?redirectEditEvents@drawControlSupport@@SAXQAV1@@QAVcontrol@@@@Z 
01:00077AEC ?redirectTextEvents@drawControlSupport@@SAXQAV1@@QAVcontrol@@@@Z 
01:00077B14 ?_onControlEraseBackground@drawControlSupport@@SAXQAVdrawWindow@@@QAVwindowGDI@@@PAPAUeraseBackgroundResponse_struct@2@@Z 
01:00077B28 ?onPaint@drawControlSupport@@SAXQAV1@@QAVdrawWindow@@@PAUrct_struct@vpiDomains@@QAVwindowGDI@@@@Z 
01:00077C60 ?_anonymous$1$139_36$getdlgcode/0@drawControlSupport@@SAXPAUkeyHook_struct@1@IPAI@Z 
01:00077C90 ?_getDlgCode@drawControlSupport@@SAXQAV1@@PAI@Z 
01:00077CE8 ?_mapKeyHook@drawControlSupport@@SAXPAUkeyHook_struct@1@PAI@Z 
01:00077D30 ?_onControlNative@drawControlSupport@@SAXQAV1@@QAVwindow@@@IIHPAPAUnativeResponse_struct@3@@Z 
01:00077EFC ?setHorizontalScroll@drawControlSupport@@SAXQAV1@@@Z 
01:00077F10 ?setHorizontalScroll@drawControlSupport@@SAXQAV1@@PAUboolean_struct@_builtIn@@@Z 
01:00077F70 ?_getHorizontalScroll@drawControlSupport@@SAXQAV1@@PAPAUboolean_struct@_builtIn@@@Z 
01:00077F84 ?setVerticalScroll@drawControlSupport@@SAXQAV1@@@Z 
01:00077F98 ?setVerticalScroll@drawControlSupport@@SAXQAV1@@PAUboolean_struct@_builtIn@@@Z 
01:00077FF8 ?_getVerticalScroll@drawControlSupport@@SAXQAV1@@PAPAUboolean_struct@_builtIn@@@Z 
01:0007800C ?setTransparent@drawControlSupport@@SAXQAV1@@@Z 
01:00078020 ?setTransparent@drawControlSupport@@SAXQAV1@@PAUboolean_struct@_builtIn@@@Z 
01:00078080 ?_getTransparent@drawControlSupport@@SAXQAV1@@PAPAUboolean_struct@_builtIn@@@Z 
01:00078094 ?setBorder@drawControlSupport@@SAXQAV1@@@Z 
01:000780A8 ?setBorder@drawControlSupport@@SAXQAV1@@PAUboolean_struct@_builtIn@@@Z 
01:00078108 ?_getBorder@drawControlSupport@@SAXQAV1@@PAPAUboolean_struct@_builtIn@@@Z 
01:0007811C ?_new@drawControlSupport@@SAXQAVcontainerWindow@@@PAPAV1@@@Z  (Idle)
01:00078144 ?_new@drawControlSupport@@SAXPAPAV1@@@Z  (Idle)
01:0007816C ?_object_facts_initializer@drawControlSupport@@SGXQAV1@@@Z 
01:00078198 ?keyboardHook@drawControlSupport@@SGXQAV1@@PAU?$__list_struct@UkeyHook@@@@@Z 
01:000781A8 ?keyboardHook@drawControlSupport@@SGPAU?$__list_struct@UkeyHook@@@@QAV1@@@Z 
01:000781B4 ?handlePaint@drawControlSupport@@SAXQAVdrawWindowExtension@@@QAVdrawWindow@@@PAUrct_struct@vpiDomains@@QAVwindowGDI@@@@Z 
01:000781E0 ?_handleEraseBackground@drawControlSupport@@SAXQAVdrawWindowExtension@@@QAVdrawWindow@@@PAPAUeraseBackgroundResponse_struct@3@@Z 
01:0007820C ?handleMouseDown@drawControlSupport@@SAXQAVdrawWindowExtension@@@QAVdrawWindow@@@PAUpnt_struct@vpiDomains@@PBUkeyModifier@5@H@Z 
01:00078238 ?handleMouseUp@drawControlSupport@@SAXQAVdrawWindowExtension@@@QAVdrawWindow@@@PAUpnt_struct@vpiDomains@@PBUkeyModifier@5@H@Z 
01:00078264 ?handleMouseMove@drawControlSupport@@SAXQAVdrawWindowExtension@@@QAVdrawWindow@@@PAUpnt_struct@vpiDomains@@PBUkeyModifier@5@PAU?$__list_struct@Uinteger@@@@@Z 
01:00078290 ?handleMouseDbl@drawControlSupport@@SAXQAVdrawWindowExtension@@@QAVdrawWindow@@@PAUpnt_struct@vpiDomains@@PBUkeyModifier@5@H@Z 
01:000782BC ?_handleChar@drawControlSupport@@SAXQAVdrawWindowExtension@@@QAVdrawWindow@@@HPBUkeyModifier@vpiDomains@@PAPAUcharResponse_struct@3@@Z 
01:000782E8 ?_handleKeyDown@drawControlSupport@@SAXQAVdrawWindowExtension@@@QAVdrawWindow@@@HPBUkeyModifier@vpiDomains@@PAPAUkeyDownResponse_struct@3@@Z 
01:00078314 ?_handleKeyUp@drawControlSupport@@SAXQAVdrawWindowExtension@@@QAVdrawWindow@@@HPBUkeyModifier@vpiDomains@@PAPAUkeyUpResponse_struct@3@@Z 
01:00078340 ?handleVScroll@drawControlSupport@@SAXQAVdrawWindowExtension@@@QAVdrawWindow@@@PBUscrollCode@vpiDomains@@H@Z 
01:0007836C ?handleHScroll@drawControlSupport@@SAXQAVdrawWindowExtension@@@QAVdrawWindow@@@PBUscrollCode@vpiDomains@@H@Z 
01:00078398 ?handleShow@drawControlSupport@@SAXQAVwindowExtension@@@QAVwindow@@@H@Z 
01:000783C4 ?handleDestroy@drawControlSupport@@SAXQAVwindowExtension@@@QAVwindow@@@@Z 
01:000783F0 ?handleSize@drawControlSupport@@SAXQAVwindowExtension@@@QAVwindow@@@HH@Z 
01:0007841C ?handleMove@drawControlSupport@@SAXQAVwindowExtension@@@QAVwindow@@@HH@Z 
01:00078448 ?handleFocus@drawControlSupport@@SAXQAVwindowExtension@@@QAVwindow@@@@Z 
01:00078474 ?handleLoseFocus@drawControlSupport@@SAXQAVwindowExtension@@@QAVwindow@@@@Z 
01:000784A0 ?handleMenuCommand@drawControlSupport@@SAXQAVwindowExtension@@@QAVwindow@@@PBUmenuTag@vpiDomains@@@Z 
01:000784CC ?handleTimer@drawControlSupport@@SAXQAVwindowExtension@@@QAVwindow@@@PBUtimerId@vpiDomains@@@Z 
01:000784F8 ?_handleNative@drawControlSupport@@SAXQAVwindowExtension@@@QAVwindow@@@IIHPAPAUnativeResponse_struct@3@@Z 
01:00078524 ?handleUser@drawControlSupport@@SAXQAVwindowExtension@@@QAVwindow@@@HH@Z 
01:00078550 ?handleStateChange@drawControlSupport@@SAXQAVwindowExtension@@@QAVwindow@@@PAUstateInfo_struct@vpiDomains@@@Z 
01:0007857C ?classInfo@controlSupport@@SAXPAPB_W0@Z 
01:00078598 ?new@controlSupport@@SAXQAV1@@QAVcontrol@@@@Z 
01:00078694 ?newId@controlSupport@@SAXQAV1@@QAVcontrol@@@H@Z 
01:000786B8 ?_getDefaultControlExtension@controlSupport@@SAXQAV1@@PAPAVcontrolExtension@@@@Z 
01:000786CC ?_getControlExtension@controlSupport@@SAXQAV1@@PAPAVcontrolExtension@@@@Z 
01:000786E0 ?setControlExtension@controlSupport@@SAXQAV1@@QAVcontrolExtension@@@@Z 
01:0007871C ?dispatchEvent@controlSupport@@SAXQAV1@@PAUcontrolInfo_struct@vpiDomains@@@Z 
01:00078724 ?dispatchNotification@controlSupport@@SAXQAV1@@PBUunsigned16@@@Z 
01:0007872C ?_dispatchWmNotify@controlSupport@@SAXQAV1@@IPAXPAPAUnativeResponse_struct@window@@@Z 
01:00078740 ?_getContainer@controlSupport@@SAXQAV1@@PAPAVcontainerWindow@@@@Z 
01:00078784 ?_tryGetContainer@controlSupport@@SAXQAV1@@PAPAVcontainerWindow@@@@Z 
01:000787A8 ?setContainer@controlSupport@@SAXQAV1@@QAVcontainerWindow@@@@Z 
01:000788B8 ?resetContainer@controlSupport@@SAXQAV1@@@Z 
01:000789FC ?_getCtrlId@controlSupport@@SAXQAV1@@PAH@Z 
01:00078A10 ?setCtrlId@controlSupport@@SAXQAV1@@H@Z 
01:00078A58 ?setRect@controlSupport@@SAXQAV1@@PAUrct_struct@vpiDomains@@@Z 
01:00078ACC ?_getRect@controlSupport@@SAXQAV1@@PAPAUrct_struct@vpiDomains@@@Z 
01:00078AE0 ?setPosition@controlSupport@@SAXQAV1@@PAUpnt_struct@vpiDomains@@@Z 
01:00078B60 ?setPosition@controlSupport@@SAXQAV1@@HH@Z 
01:00078B8C ?_getPosition@controlSupport@@SAXQAV1@@PAPAUpnt_struct@vpiDomains@@@Z 
01:00078BD8 ?getPosition@controlSupport@@SAXQAV1@@PAHPAH@Z 
01:00078C08 ?setSize@controlSupport@@SAXQAV1@@HH@Z 
01:00078C80 ?getSize@controlSupport@@SAXQAV1@@PAHPAH@Z 
01:00078CC8 ?setWidth@controlSupport@@SAXQAV1@@H@Z 
01:00078CF0 ?_getWidth@controlSupport@@SAXQAV1@@PAH@Z 
01:00078D10 ?setHeight@controlSupport@@SAXQAV1@@H@Z 
01:00078D44 ?_getHeight@controlSupport@@SAXQAV1@@PAH@Z 
01:00078D64 ?setFocus@controlSupport@@SAXQAV1@@@Z 
01:00078E10 ?onControlSize@controlSupport@@SAXQAV1@@QAVwindow@@@@Z 
01:00078E1C ?onControlMove@controlSupport@@SAXQAV1@@QAVwindow@@@@Z 
01:00078E28 ?onDestroy@controlSupport@@SAXQAV1@@QAVwindow@@@@Z 
01:00078E44 ?updateControlUnitRect@controlSupport@@SAXQAV1@@@Z 
01:00078EE4 ?updateLayout@controlSupport@@SAXQAV1@@@Z 
01:00078FA4 ?setTabStop@controlSupport@@SAXQAV1@@@Z 
01:00078FB8 ?setTabStop@controlSupport@@SAXQAV1@@PAUboolean_struct@_builtIn@@@Z 
01:000790B4 ?_getTabStop@controlSupport@@SAXQAV1@@PAPAUboolean_struct@_builtIn@@@Z 
01:0007911C ?addValidateResponder@controlSupport@@SAXQAV1@@X@Z 
01:0007913C ?removeValidateResponder@controlSupport@@SAXQAV1@@X@Z 
01:00079204 ?_validate@controlSupport@@SAXQAV1@@PAPAUvalidateResult_struct@control@@@Z 
01:000792A0 ?tryValidateWithErrorDialog@controlSupport@@SAXQAV1@@@Z 
01:00079320 ?setLabel@controlSupport@@SAXQAV1@@PB_W@Z 
01:00079334 ?_getLabel@controlSupport@@SAXQAV1@@PAPB_W@Z 
01:00079378 ?setAnchors@controlSupport@@SAXQAV1@@PAU?$__list_struct@UanchorEdge@@@@@Z 
01:000793DC ?checkSizeListener@controlSupport@@SAXQAV1@@@Z 
01:00079554 ?removeSizeListener@controlSupport@@SAXQAV1@@@Z 
01:000795EC ?resetAnchorSize@controlSupport@@SAXQAV1@@@Z 
01:00079608 ?_tryDetermineUnitSize@controlSupport@@SAXQAVcontainerWindow@@@PAPAUtuple_struct@core@@PAHPAH@Z 
01:000796CC ?onParentContainerSize@controlSupport@@SAXQAV1@@QAVwindow@@@@Z 
01:0007987C ?anchorToContainer@controlSupport@@SAXQAV1@@PAUboolean_struct@_builtIn@@1PAUanchorDimension_struct@1@HHHPAHPAH@Z 
01:00079970 ?_getPreviousReminder@controlSupport@@SAXQAV1@@PAUanchorDimension_struct@1@PAH@Z 
01:00079998 ?fixPreviousReminder@controlSupport@@SAXQAV1@@PAUanchorDimension_struct@1@H@Z 
01:000799BC ?exploreAnchorList@controlSupport@@SAXPAU?$__list_struct@UanchorEdge@@@@PAUboolean_struct@_builtIn@@111PAPAU34@555@Z 
01:00079A60 ?_getAnchors@controlSupport@@SAXQAV1@@PAPAU?$__list_struct@UanchorEdge@@@@@Z 
01:00079BC0 ?_new@controlSupport@@SAXQAVcontrol@@@PAPAV1@@@Z  (Idle)
01:00079BE8 ?_newId@controlSupport@@SAXQAVcontrol@@@HPAPAV1@@@Z  (Idle)
01:00079C14 ?_class_facts_initializer@controlSupport@@SGXXZ 
01:00079C2C ?_object_facts_initializer@controlSupport@@SGXQAV1@@@Z 
01:00079C6C ?handleShow@controlSupport@@SAXQAVwindowExtension@@@QAVwindow@@@H@Z 
01:00079C88 ?handleDestroy@controlSupport@@SAXQAVwindowExtension@@@QAVwindow@@@@Z 
01:00079CA4 ?handleSize@controlSupport@@SAXQAVwindowExtension@@@QAVwindow@@@HH@Z 
01:00079CC0 ?handleMove@controlSupport@@SAXQAVwindowExtension@@@QAVwindow@@@HH@Z 
01:00079CDC ?handleFocus@controlSupport@@SAXQAVwindowExtension@@@QAVwindow@@@@Z 
01:00079CF8 ?handleLoseFocus@controlSupport@@SAXQAVwindowExtension@@@QAVwindow@@@@Z 
01:00079D14 ?handleMenuCommand@controlSupport@@SAXQAVwindowExtension@@@QAVwindow@@@PBUmenuTag@vpiDomains@@@Z 
01:00079D30 ?handleTimer@controlSupport@@SAXQAVwindowExtension@@@QAVwindow@@@PBUtimerId@vpiDomains@@@Z 
01:00079D4C ?_handleNative@controlSupport@@SAXQAVwindowExtension@@@QAVwindow@@@IIHPAPAUnativeResponse_struct@3@@Z 
01:00079D68 ?handleUser@controlSupport@@SAXQAVwindowExtension@@@QAVwindow@@@HH@Z 
01:00079D84 ?handleStateChange@controlSupport@@SAXQAVwindowExtension@@@QAVwindow@@@PAUstateInfo_struct@vpiDomains@@@Z 
01:00079DA0 ?new@commonControlSupport@@SAXQAV1@@QAVcontrol@@@PB_W@Z 
01:00079DF4 ?show@commonControlSupport@@SAXQAVwindow@@@@Z 
01:00079F44 ?_sendMessageIfShown@commonControlSupport@@SAXQAV1@@IIIPAH@Z 
01:00079FA0 ?setOrClearStyleBits@commonControlSupport@@SAXQAV1@@PAUboolean_struct@_builtIn@@I@Z 
01:0007A068 ?_areStyleBitsSet@commonControlSupport@@SAXQAV1@@IPAPAUboolean_struct@_builtIn@@@Z 
01:0007A0AC ?classInfo@commonControlSupport@@SAXPAPB_W0@Z 
01:0007A0C8 ?_new@commonControlSupport@@SAXQAVcontrol@@@PB_WPAPAV1@@@Z  (Idle)
01:0007A0F4 ?_object_facts_initializer@commonControlSupport@@SGXQAV1@@@Z 
01:0007C554 userControlSupport?_initObject@@@QAGXQAV1@H@Z 
01:0007C5A8 ?@create_object@userControlSupport@@SGQAV1@@XZ 
01:0007C5C4 userControlSupport?_InternalFinalizer@@@QAGXQAV1@@Z 
01:0007C5E8 styleFlagsEx?_initObject@@@QAGXQAV1@H@Z 
01:0007C608 ?@create_object@styleFlagsEx@@SGQAV1@@XZ 
01:0007C624 styleFlagsEx?_InternalFinalizer@@@QAGXQAV1@@Z 
01:0007D198 standardControlSupport?_initObject@@@QAGXQAV1@H@Z 
01:0007D1DC ?@create_object@standardControlSupport@@SGQAV1@@XZ 
01:0007D1F8 standardControlSupport?_InternalFinalizer@@@QAGXQAV1@@Z 
01:0007E4D8 nullControlSupport?_initObject@@@QAGXQAV1@H@Z 
01:0007E4FC ?@create_object@nullControlSupport@@SGQAV1@@XZ 
01:0007E518 nullControlSupport?_InternalFinalizer@@@QAGXQAV1@@Z 
01:000800B0 drawControlSupport?_initObject@@@QAGXQAV1@H@Z 
01:00080100 ?@create_object@drawControlSupport@@SGQAV1@@XZ 
01:0008011C drawControlSupport?_InternalFinalizer@@@QAGXQAV1@@Z 
01:000801C0 controlSupport?_initObject@@@QAGXQAV1@H@Z 
01:000801EC ?@create_object@controlSupport@@SGQAV1@@XZ 
01:00080208 controlSupport?_InternalFinalizer@@@QAGXQAV1@@Z 
01:00080D6C commonControlSupport?_initObject@@@QAGXQAV1@H@Z 
01:00080DB8 ?@create_object@commonControlSupport@@SGQAV1@@XZ 
01:00080DD4 commonControlSupport?_InternalFinalizer@@@QAGXQAV1@@Z 
--- From 'Obj\templateExpander.13D15020.obj'
01:00080DF0 ?substitute@templateExpander@@SAXQAVinputStream@@@QAVoutputStream@@@PB_WX@Z  (Idle)
01:00080E18 ?substitute_string@templateExpander@@SAXPB_WQAVoutputStream@@@0X@Z 
01:00080E40 ?substitute_regExp@templateExpander@@SAXQAVinputStream@@@QAVoutputStream@@@QAV4@@X@Z 
01:00080EA8 ?substitute_line@templateExpander@@SAXPB_WQAVoutputStream@@@QAVregExp@@@X@Z 
01:00080FA0 ?classInfo@templateExpander@@SAXPAPB_W0@Z  (Idle)
--- From 'Obj\gui_api.12FAE6A8.obj'
01:00080FC0 ?classInfo@gui_native@@SAXPAPB_W0@Z  (Idle)
01:00080FDC ?classInfo@gui_api@@SAXPAPB_W0@Z 
01:00080FF8 ?getScrollRange@gui_api@@SAXPBUhwnd@@HPAHPAH@Z  (Idle)
01:00081040 ?_getScrollInfo@gui_api@@SAXPBUhwnd@@HPAPAUscrollInfo_struct@1@@Z  (Idle)
01:0008112C ?_setScrollInfo@gui_api@@SAXPBUhwnd@@HPAUscrollInfo_struct@1@HPAH@Z  (Idle)
01:000811A4 ?_scrollWindowEx@gui_api@@SAXPBUhwnd@@HHPAUrct_struct@vpiDomains@@3I3IPAH@Z  (Idle)
01:000811FC ?_makePoints@gui_api@@SAXHPAPAUpnt_struct@vpiDomains@@@Z  (Idle)
01:00081264 ?_makeLParam@gui_api@@SAXPAUpnt_struct@vpiDomains@@PAH@Z  (Idle)
01:000812E4 ?_getWindowPlacement@gui_api@@SAXPBUhwnd@@PAPAUwindowPlacement_struct@1@@Z  (Idle)
01:000813A0 ?setWindowPlacement@gui_api@@SAXPBUhwnd@@PAUwindowPlacement_struct@1@@Z  (Idle)
01:00081458 ?_getTextMetrics@gui_api@@SAXPBUhDC@@PAPAUtextmetric_struct@gui_native@@@Z 
01:000814B4 ?_getTextMetrics_hwnd@gui_api@@SAXPBU2@PAPAUtextmetric_struct@gui_native@@@Z 
01:00081530 ?_registerClassEx@gui_api@@SAXIXHHPBUhModule@@PBUhIcon@@PBUhCursor@@PBUhBrush@@PB_W85AAUatom@@@Z  (Idle)
01:00081624 ?_createWindowEx@gui_api@@SAXIPB_W1IHHHHPBUhwnd@@PBUhMenu@@PBUhModule@@PAXAAU2@@Z  (Idle)
01:000816E0 ?_beginPaint@gui_api@@SAXPBUhwnd@@PAPAUpaintStruct_struct@gui_native@@@Z  (Idle)
01:0008173C ?endPaint@gui_api@@SAXPBUhwnd@@PAUpaintStruct_struct@gui_native@@@Z  (Idle)
01:00081750 ?_getClientRect@gui_api@@SAXPBUhwnd@@PAPAUrct_struct@vpiDomains@@@Z  (Idle)
01:000817AC ?_getWindowLong@gui_api@@SAXPBUhwnd@@HPAI@Z 
01:00081808 ?_setWindowLong@gui_api@@SAXPBUhwnd@@HHPAH@Z  (Idle)
01:00081860 ?extTextOut@gui_api@@SAXPBUhDC@@HHIPAUrct_struct@vpiDomains@@PB_W@Z  (Idle)
01:00081880 ?extTextOut@gui_api@@SAXPBUhDC@@HHIPAUrct_struct@vpiDomains@@PB_WPAX@Z  (Idle)
01:000818A8 ?extTextOut@gui_api@@SAXPBUhDC@@HHIPAUrct_struct@vpiDomains@@PB_WPBUcharCount@@PAX@Z 
01:000818FC ?invalidateRect@gui_api@@SAXPBUhwnd@@PAUrct_struct@vpiDomains@@PBUbooleanInt@@@Z  (Idle)
01:00081940 ?_createWindowEx@gui_api@@SAXIIPB_WIHHHHPBUhwnd@@PBUhMenu@@PBUhModule@@PAXAAU2@@Z  (Idle)
--- From 'Obj\systemInformation_api.89ED56AB.obj'
01:00081A00 ?classInfo@systemInformation_api@@SAXPAPB_W0@Z 
01:00081A1C ?getVersionEx@systemInformation_api@@SAXPAIPAIPAIPAIPAPB_WAAUunsigned16@@55AAUunsigned8@@@Z 
01:00081B68 ?_allocWithSize@systemInformation_api@@SAXPBUbyteCount@@PAPAX@Z 
01:00081B94 ?systemInfo@systemInformation_api@@SGPAUsystem_Info_struct@systemInformation_native@@XZ 
01:00081BC4 ?_getUserName@systemInformation_api@@SAXPAPB_W@Z  (Idle)
01:00081C4C ?_getUserNameEx@systemInformation_api@@SAXPBUuserNameFormat@systemInformation_native@@PAPB_W@Z  (Idle)
01:00081CCC ?_getComputerName@systemInformation_api@@SAXPAPB_W@Z  (Idle)
01:00081D54 ?_getComputerNameEx@systemInformation_api@@SAXPBUcomputerNameFormat@systemInformation_native@@PAPB_W@Z  (Idle)
01:00081DD4 ?systemParametersInfo@systemInformation_api@@SAXIIPAXI@Z  (Idle)
01:00081E1C ?systemParametersInfo_outInt@systemInformation_api@@SAXIIPAHI@Z  (Idle)
01:00081E64 ?isVersionWindows98@systemInformation_api@@SAXXZ  (Idle)
--- From 'Obj\errorPresentationDialog.9174D14B.obj'
01:00081E70 ?classInfo@errorPresentationDialog@@SAXPAPB_W0@Z  (Idle)
01:00081E8C ?setBatchMode@errorPresentationDialog@@SAXPB_W@Z  (Idle)
01:00081E9C ?dumpIfBatchMode@errorPresentationDialog@@SAXPB_WPAUoptional_struct@core@@PAUtraceInfo_struct@exception@@@Z 
01:00081F54 ?copyErrorReport@errorPresentationDialog@@SAXQAVwindow@@@PAUoptional_struct@core@@PAUtraceInfo_struct@exception@@PB_W2@Z 
01:00081F9C ?nullExtraInfoWriter@errorPresentationDialog@@SAXQAVoutputStream@@@@Z 
01:00081FA4 ?_formatTraceAndExtra@errorPresentationDialog@@SAXPB_WPAUoptional_struct@core@@PAUtraceInfo_struct@exception@@0PAPB_W@Z 
01:00082060 ?extraInfo@errorPresentationDialog@@SGPB_WQAV1@@@Z 
01:00082108 ?displayDefiniteUserError@errorPresentationDialog@@SAXPB_W@Z  (Idle)
01:00082138 ?displayDefiniteUserError@errorPresentationDialog@@SAXQAVwindow@@@PB_W@Z 
01:00082184 ?displayUserError@errorPresentationDialog@@SAXPB_WPAUtraceInfo_struct@exception@@@Z  (Idle)
01:000821C0 ?displayUserError@errorPresentationDialog@@SAXQAVwindow@@@PB_WPAUtraceInfo_struct@exception@@@Z 
01:00082220 ?displayInternalError@errorPresentationDialog@@SAXPAUtraceInfo_struct@exception@@@Z  (Idle)
01:00082250 ?displayInternalError@errorPresentationDialog@@SAXQAVwindow@@@PAUtraceInfo_struct@exception@@@Z 
01:000822AC ?displayError@errorPresentationDialog@@SAXPAUtraceInfo_struct@exception@@@Z  (Idle)
01:000822DC ?displayError@errorPresentationDialog@@SAXQAVwindow@@@PAUtraceInfo_struct@exception@@@Z 
01:00082328 ?displayFeedback@errorPresentationDialog@@SAXXZ  (Idle)
01:0008234C ?displayFeedback@errorPresentationDialog@@SAXQAVwindow@@@@Z 
01:00082374 ?_getPrettyUserMsg@errorPresentationDialog@@SAXPAU?$__list_struct@Udescriptor@exception@@@@PAPB_W@Z 
01:00082418 ?_getPrettyUserMsg_dt@errorPresentationDialog@@SAXPAUdescriptor_struct@exception@@PAPB_W@Z 
01:00082430 ?_getPrettyUserMsgFromNV_dt@errorPresentationDialog@@SAXPAU?$__list_struct@UnamedValue@@@@PAPB_W@Z 
01:000824CC ?_fillUsrMsgTags@errorPresentationDialog@@SAXPB_WPAU?$__list_struct@UnamedValue@@@@PAPB_W@Z 
01:000825A4 ?_substituteTag@errorPresentationDialog@@SAXPB_WPAU?$__list_struct@UnamedValue@@@@PAPB_W@Z 
01:000825F0 ?newUserError@errorPresentationDialog@@SAXQAV1@@QAVwindow@@@PB_WPAUtraceInfo_struct@exception@@@Z 
01:00082640 ?newInternalError@errorPresentationDialog@@SAXQAV1@@QAVwindow@@@PAUtraceInfo_struct@exception@@@Z 
01:000826DC ?newFeedback@errorPresentationDialog@@SAXQAV1@@QAVwindow@@@@Z 
01:0008274C ?commonNew@errorPresentationDialog@@SAXQAV1@@QAVwindow@@@PBUresid@vpiDomains@@PB_WPAUoptional_struct@core@@PAUtraceInfo_struct@exception@@@Z 
01:00082910 ?_onShowDetails@errorPresentationDialog@@SAXQAV1@@QAVbutton@@@PAPAUactionResponse_struct@3@@Z 
01:00082928 ?_onHideDetails@errorPresentationDialog@@SAXQAV1@@QAVbutton@@@PAPAUactionResponse_struct@3@@Z 
01:00082940 ?showDetails@errorPresentationDialog@@SAXQAV1@@@Z 
01:00082AEC ?hideDetails@errorPresentationDialog@@SAXQAV1@@@Z 
01:00082BB0 ?makeRoomForDetails@errorPresentationDialog@@SAXQAV1@@H@Z 
01:00082C20 ?present@errorPresentationDialog@@SAXPBUtraceId@exception@@@Z 
01:00082C50 ?present@errorPresentationDialog@@SAXQAVwindow@@@PBUtraceId@@@Z 
01:00082D24 ?anonymous$1$297_45$presentasynchronously/1@errorPresentationDialog@@SAXPAUanonymous$1$297_45$presentasynchronously/1c_struct@1@@Z 
01:00082D3C ?presentAsynchronously@errorPresentationDialog@@SAXPBUtraceId@exception@@@Z  (Idle)
01:00082D98 ?_onReportErrorClick@errorPresentationDialog@@SAXQAV1@@QAVbutton@@@PAPAUactionResponse_struct@3@@Z 
01:00082EB8 ?_onCloseAppClick@errorPresentationDialog@@SAXQAVbutton@@@PAPAUactionResponse_struct@2@@Z 
01:00082F20 ?generatedInitialize@errorPresentationDialog@@SAXQAV1@@@Z 
01:000839E8 ?_newUserError@errorPresentationDialog@@SAXQAVwindow@@@PB_WPAUtraceInfo_struct@exception@@PAPAV1@@@Z 
01:00083A18 ?_newInternalError@errorPresentationDialog@@SAXQAVwindow@@@PAUtraceInfo_struct@exception@@PAPAV1@@@Z 
01:00083A44 ?_newFeedback@errorPresentationDialog@@SAXQAVwindow@@@PAPAV1@@@Z 
01:00083A6C ?_commonNew@errorPresentationDialog@@SAXQAVwindow@@@PBUresid@vpiDomains@@PB_WPAUoptional_struct@core@@PAUtraceInfo_struct@exception@@PAPAV1@@@Z  (Idle)
01:00083AA0 ?_class_facts_initializer@errorPresentationDialog@@SGXXZ 
01:00083B38 ?title@errorPresentationDialog@@SGXPB_W@Z  (Idle)
01:00083B44 ?title@errorPresentationDialog@@SGPB_WXZ  (Idle)
01:00083B4C ?internalErrorMessage@errorPresentationDialog@@SGXPB_W@Z  (Idle)
01:00083B58 ?internalErrorMessage@errorPresentationDialog@@SGPB_WXZ  (Idle)
01:00083B60 ?commentTextPromt@errorPresentationDialog@@SGXPB_W@Z  (Idle)
01:00083B6C ?commentTextPromt@errorPresentationDialog@@SGPB_WXZ  (Idle)
01:00083B74 ?feedbackMessage@errorPresentationDialog@@SGXPB_W@Z  (Idle)
01:00083B80 ?feedbackMessage@errorPresentationDialog@@SGPB_WXZ  (Idle)
01:00083B88 ?callBackBtnText@errorPresentationDialog@@SGXPB_W@Z  (Idle)
01:00083B94 ?callBackBtnText@errorPresentationDialog@@SGPB_WXZ  (Idle)
01:00083B9C ?dontCallBackBtnText@errorPresentationDialog@@SGXPB_W@Z  (Idle)
01:00083BA8 ?dontCallBackBtnText@errorPresentationDialog@@SGPB_WXZ  (Idle)
01:00083BB0 ?showDetailsBtnText@errorPresentationDialog@@SGXPB_W@Z  (Idle)
01:00083BBC ?showDetailsBtnText@errorPresentationDialog@@SGPB_WXZ  (Idle)
01:00083BC4 ?hideDetailsBtnText@errorPresentationDialog@@SGXPB_W@Z  (Idle)
01:00083BD0 ?hideDetailsBtnText@errorPresentationDialog@@SGPB_WXZ  (Idle)
01:00083BD8 ?closeApplicationBtnText@errorPresentationDialog@@SGXPB_W@Z  (Idle)
01:00083BE4 ?closeApplicationBtnText@errorPresentationDialog@@SGPB_WXZ  (Idle)
01:00083BEC ?definiteUserErrorIcon@errorPresentationDialog@@SGXPBUresid@vpiDomains@@@Z  (Idle)
01:00083BF8 ?definiteUserErrorIcon@errorPresentationDialog@@SGPBUresid@vpiDomains@@XZ  (Idle)
01:00083C00 ?userErrorIcon@errorPresentationDialog@@SGXPBUresid@vpiDomains@@@Z  (Idle)
01:00083C0C ?userErrorIcon@errorPresentationDialog@@SGPBUresid@vpiDomains@@XZ  (Idle)
01:00083C14 ?internalErrorIcon@errorPresentationDialog@@SGXPBUresid@vpiDomains@@@Z  (Idle)
01:00083C20 ?internalErrorIcon@errorPresentationDialog@@SGPBUresid@vpiDomains@@XZ  (Idle)
01:00083C28 ?reportErrorDelegate@errorPresentationDialog@@SGXX@Z  (Idle)
01:00083C34 ?reportErrorDelegate@errorPresentationDialog@@SGXXZ  (Idle)
01:00083C3C ?extraInfoWriter@errorPresentationDialog@@SGXX@Z  (Idle)
01:00083C48 ?extraInfoWriter@errorPresentationDialog@@SGXXZ  (Idle)
01:00085508 errorPresentationDialog?_initObject@@@QAGXQAV1@H@Z 
01:00085540 ?@create_object@errorPresentationDialog@@SGQAV1@@XZ 
01:0008555C errorPresentationDialog?_InternalFinalizer@@@QAGXQAV1@@Z 
--- From 'Obj\monitorQueue.113845A9.obj'
01:00085570 ?enqueue@monitorQueue@@SAXQAV1@@PAXPAX@Z 
01:000855F8 ?_dequeue@monitorQueue@@SAXQAV1@@PAXPAPAX@Z 
01:00085748 ?_tryDequeue@monitorQueue@@SAXQAV1@@PAXPAPAX@Z 
01:000858D8 ?classInfo@monitorQueue@@SAXPAPB_W0@Z 
01:000858F4 ?new@monitorQueue@@SAXQAV1@@PAXQAVrTypeLibrary@TypeLibraries@RunTime@VIP@@@Z 
01:00085900 ?_new@monitorQueue@@SAXQAVrTypeLibrary@TypeLibraries@RunTime@VIP@@PAPAV1@@PAPAX@Z 
01:0008592C ?_object_typelib_initializer@monitorQueue@@SGXQAV1@@PAXQAVrTypeLibrary@TypeLibraries@RunTime@VIP@@@Z 
01:00085944 ?_dequeue/0_guard@monitorQueue@@SAXQAV1@@PAX@Z 
01:00085964 ?_object_facts_initializer@monitorQueue@@SGXQAV1@@PAX@Z 
01:00085980 ?_monitor_initializer@monitorQueue@@SAXQAV1@@PAX@Z 
01:000859A4 ?_set_guard_events@monitorQueue@@SAXQAV1@@PAX@Z 
01:000859F4 ?_leave_guarded_monitor@monitorQueue@@SAXQAV1@@PAX@Z 
01:00085A18 ?_close_monitor@monitorQueue@@SGXQAV1@@PAX@Z 
01:00085A44 ?finalize@monitorQueue@@SGXQAV1@@PAX@Z 
01:00085A64 monitorQueue{@Elem}?_initObject@@@QAGXQAV1@H@Z 
01:00085A94 ?@create_object@monitorQueue@@SGQAV1@@PAXQAVrTypeLibrary@TypeLibraries@RunTime@VIP@@@Z 
01:00085AB8 monitorQueue{@Elem}?_InternalFinalizer@@@QAGXQAV1@@Z 
--- From 'Obj\multiThread.F1B93BE6.obj'
01:00085B00 ?classInfo@waitableTimer@@SAXPAPB_W0@Z  (Idle)
01:00085B1C ?create@waitableTimer@@SAXQAV1@@PAUboolean_struct@_builtIn@@@Z 
01:00085B40 ?createNamed@waitableTimer@@SAXQAV1@@PB_WPAUboolean_struct@_builtIn@@@Z 
01:00085B70 ?openTimer@waitableTimer@@SAXQAV1@@PB_W@Z 
01:00085BA0 ?setTimer@waitableTimer@@SAXQAV1@@PAPBUtimeIntervalValue@@HPAUboolean_struct@_builtIn@@@Z 
01:00085BC8 ?setTimer@waitableTimer@@SAXQAV1@@PAPBUtimeIntervalValue@@HXPAXPAUboolean_struct@_builtIn@@@Z 
01:00085BF0 ?freeze@waitableTimer@@SAXQAV1@@@Z 
01:00085C18 ?_create@waitableTimer@@SAXPAUboolean_struct@_builtIn@@PAPAV1@@@Z  (Idle)
01:00085C40 ?_createNamed@waitableTimer@@SAXPB_WPAUboolean_struct@_builtIn@@PAPAV1@@@Z  (Idle)
01:00085C6C ?_openTimer@waitableTimer@@SAXPB_WPAPAV1@@@Z  (Idle)
01:00085C94 ?classInfo@thread@@SAXPAPB_W0@Z 
01:00085CB0 ?start@thread@@SAXQAV1@@X@Z 
01:00085CCC ?start@thread@@SAXQAV1@@XPBUbyteCount@@@Z 
01:00085CE0 ?createSuspended@thread@@SAXQAV1@@X@Z 
01:00085CFC ?createSuspended@thread@@SAXQAV1@@XPBUbyteCount@@@Z 
01:00085D10 ?_getThreadId@thread@@SAXQAV1@@PAI@Z 
01:00085D24 ?threadEntry@thread@@SGIPAX@Z 
01:00085D58 ?create@thread@@SAXQAV1@@XPBUbyteCount@@I@Z 
01:00085DD0 ?attach@thread@@SAXQAV1@@PBUthreadHandle@multiThread_native@@@Z 
01:00085DE4 ?attach@thread@@SAXQAV1@@PBUthreadHandle@multiThread_native@@I@Z 
01:00085E00 ?_getPriority@thread@@SAXQAV1@@AAUthreadPriority@multiThread_native@@@Z 
01:00085E44 ?setPriority@thread@@SAXQAV1@@PBUthreadPriority@multiThread_native@@@Z 
01:00085E84 ?_suspend@thread@@SAXQAV1@@AAUunsigned32@@@Z 
01:00085EC8 ?_resume@thread@@SAXQAV1@@AAUunsigned32@@@Z 
01:00085F0C ?isActive@thread@@SAXQAV1@@@Z 
01:00085F38 ?_getExitCode@thread@@SAXQAV1@@AAUunsigned32@@@Z 
01:00085F78 ?terminate@thread@@SAXQAV1@@PBUunsigned32@@@Z 
01:00085FB8 ?getTimes@thread@@SAXQAV1@@PAAAUgmtTimeValue@@111@Z 
01:00086080 ?assertKeepAlive@thread@@SAXX@Z 
01:0008615C ?retractKeepAlive@thread@@SAXX@Z 
01:000862CC ?raise_@thread@@SAXPB_W@Z 
01:000862F4 ?setThreadName@thread@@SAXIPB_W@Z 
01:00086384 ?threadName@thread@@SGXQAV1@@PB_W@Z 
01:000863B8 ?_start@thread@@SAXXPAPAV1@@@Z  (Idle)
01:000863E0 ?_start@thread@@SAXXPBUbyteCount@@PAPAV1@@@Z  (Idle)
01:0008640C ?_createSuspended@thread@@SAXXPAPAV1@@@Z  (Idle)
01:00086434 ?_createSuspended@thread@@SAXXPBUbyteCount@@PAPAV1@@@Z  (Idle)
01:00086460 ?_attach@thread@@SAXPBUthreadHandle@multiThread_native@@PAPAV1@@@Z  (Idle)
01:00086488 ?_attach@thread@@SAXPBUthreadHandle@multiThread_native@@IPAPAV1@@@Z  (Idle)
01:000864B4 ?_create@thread@@SAXXPBUbyteCount@@IPAPAV1@@@Z  (Idle)
01:000864E4 ?_class_facts_initializer@thread@@SGXXZ 
01:000864FC ?classInfo@syncObject@@SAXPAPB_W0@Z 
01:00086518 ?new@syncObject@@SAXQAV1@@PBUsyncHandle@windowsAPI@@PAUboolean_struct@_builtIn@@@Z 
01:00086554 ?_getHandle@syncObject@@SAXQAV1@@AAUsyncHandle@windowsAPI@@@Z 
01:00086568 ?_wait@syncObject@@SAXQAV1@@PAI@Z 
01:00086584 ?_wait@syncObject@@SAXQAV1@@IPAI@Z 
01:0008667C $waitAny$syncObject$predicate$(i,o)$b$_c2  (Idle)
01:00086698 $waitAll$syncObject$predicate$(i,o)$b$_c4  (Idle)
01:000866B4 $waitAll$syncObject$predicate$(i,i,o)$b$_c5 
01:000866D0 $waitAny$syncObject$predicate$(i,i,o)$b$_c3 
01:000866EC ?close@syncObject@@SAXQAV1@@@Z 
01:00086788 ?finalize@syncObject@@SGXQAV1@@@Z 
01:000867B8 $waitList$syncObject$predicate$(i,i,i,o)$c$_m6 
01:00086850 $copyHandles$syncObject$predicate$(i,i)$c$_m7 
01:000868C4 ?_new@syncObject@@SAXPBUsyncHandle@windowsAPI@@PAUboolean_struct@_builtIn@@PAPAV1@@@Z  (Idle)
01:000868F0 ?_object_facts_initializer@syncObject@@SGXQAV1@@@Z 
01:00086908 ?classInfo@semaphore@@SAXPAPB_W0@Z  (Idle)
01:00086924 ?create@semaphore@@SAXQAV1@@II@Z 
01:00086950 ?createNamed@semaphore@@SAXQAV1@@PB_WII@Z 
01:00086984 ?openSemaphore@semaphore@@SAXQAV1@@PB_W@Z 
01:000869B4 ?_release@semaphore@@SAXQAV1@@IPAI@Z 
01:000869DC ?_create@semaphore@@SAXIIPAPAV1@@@Z  (Idle)
01:00086A08 ?_createNamed@semaphore@@SAXPB_WIIPAPAV1@@@Z  (Idle)
01:00086A38 ?_openSemaphore@semaphore@@SAXPB_WPAPAV1@@@Z  (Idle)
01:00086A60 ?create@mutex@@SAXQAV1@@PAUboolean_struct@_builtIn@@@Z 
01:00086AC0 ?createNamed@mutex@@SAXQAV1@@PB_W@Z 
01:00086B74 ?release@mutex@@SAXQAV1@@@Z 
01:00086B9C ?classInfo@mutex@@SAXPAPB_W0@Z 
01:00086BB8 ?createOrOpenNamed@mutex@@SAXQAV1@@PB_W@Z 
01:00086BC0 ?createNamed@mutex@@SAXQAV1@@PB_WPAUboolean_struct@_builtIn@@@Z 
01:00086BF4 ?openMutex@mutex@@SAXQAV1@@PB_W@Z 
01:00086BFC ?_create@mutex@@SAXPAUboolean_struct@_builtIn@@PAPAV1@@@Z  (Idle)
01:00086C24 ?_createNamed@mutex@@SAXPB_WPAPAV1@@@Z  (Idle)
01:00086C4C ?_createNamed@mutex@@SAXPB_WPAUboolean_struct@_builtIn@@PAPAV1@@@Z  (Idle)
01:00086C78 ?_createOrOpenNamed@mutex@@SAXPB_WPAPAV1@@@Z  (Idle)
01:00086CA0 ?_openMutex@mutex@@SAXPB_WPAPAV1@@@Z  (Idle)
01:00086CC8 ?classInfo@event@@SAXPAPB_W0@Z  (Idle)
01:00086CE4 ?create@event@@SAXQAV1@@PAUboolean_struct@_builtIn@@1@Z 
01:00086D10 ?createNamed@event@@SAXQAV1@@PB_WPAUboolean_struct@_builtIn@@2@Z 
01:00086D44 ?openEvent@event@@SAXQAV1@@PB_W@Z 
01:00086D74 ?setSignaled@event@@SAXQAV1@@PAUboolean_struct@_builtIn@@@Z 
01:00086DC4 ?pulse@event@@SAXQAV1@@@Z 
01:00086DEC ?_create@event@@SAXPAUboolean_struct@_builtIn@@0PAPAV1@@@Z  (Idle)
01:00086E18 ?_createNamed@event@@SAXPB_WPAUboolean_struct@_builtIn@@1PAPAV1@@@Z  (Idle)
01:00086E48 ?_openEvent@event@@SAXPB_WPAPAV1@@@Z  (Idle)
01:00086E70 ?classInfo@criticalSection@@SAXPAPB_W0@Z 
01:00086E8C ?new@criticalSection@@SAXQAV1@@@Z 
01:00086EBC ?new@criticalSection@@SAXQAV1@@I@Z 
01:00086F20 ?enter@criticalSection@@SAXQAV1@@@Z 
01:00086F38 ?tryEnter@criticalSection@@SAXQAV1@@@Z 
01:00086F58 ?leave@criticalSection@@SAXQAV1@@@Z 
01:00086F70 ?_setSpinCount@criticalSection@@SAXQAV1@@IPAI@Z 
01:00086F90 ?delete@criticalSection@@SAXQAV1@@@Z 
01:00086FB0 ?finalize@criticalSection@@SGXQAV1@@@Z 
01:00087038 ?_new@criticalSection@@SAXPAPAV1@@@Z 
01:00087060 ?_new@criticalSection@@SAXIPAPAV1@@@Z  (Idle)
01:00087088 ?classInfo@consoleSync@@SAXPAPB_W0@Z 
01:000870A4 ?create@consoleSync@@SAXQAV1@@@Z 
01:000870EC ?checkHandle@consoleSync@@SAXPBUfileHandle@@@Z 
01:00087124 ?_create@consoleSync@@SAXPAPAVsyncObject@@@@Z  (Idle)
01:000871B4 waitableTimer?_initObject@@@QAGXQAV1@H@Z 
01:000871DC ?@create_object@waitableTimer@@SGQAV1@@XZ 
01:000871F8 waitableTimer?_InternalFinalizer@@@QAGXQAV1@@Z 
01:00087270 thread?_initObject@@@QAGXQAV1@H@Z 
01:0008729C ?@create_object@thread@@SGQAV1@@XZ 
01:000872B8 thread?_InternalFinalizer@@@QAGXQAV1@@Z 
01:000872D0 syncObject?_initObject@@@QAGXQAV1@H@Z 
01:000872F0 ?@create_object@syncObject@@SGQAV1@@XZ 
01:0008730C syncObject?_InternalFinalizer@@@QAGXQAV1@@Z 
01:000873BC semaphore?_initObject@@@QAGXQAV1@H@Z 
01:000873E4 ?@create_object@semaphore@@SGQAV1@@XZ 
01:00087400 semaphore?_InternalFinalizer@@@QAGXQAV1@@Z 
01:00087488 mutex?_initObject@@@QAGXQAV1@H@Z 
01:000874B0 ?@create_object@mutex@@SGQAV1@@XZ 
01:000874CC mutex?_InternalFinalizer@@@QAGXQAV1@@Z 
01:00087544 event?_initObject@@@QAGXQAV1@H@Z 
01:0008756C ?@create_object@event@@SGQAV1@@XZ 
01:00087588 event?_InternalFinalizer@@@QAGXQAV1@@Z 
01:000875A0 criticalSection?_initObject@@@QAGXQAV1@H@Z 
01:000875B4 ?@create_object@criticalSection@@SGQAV1@@XZ 
01:000875D0 criticalSection?_InternalFinalizer@@@QAGXQAV1@@Z 
01:00087670 consoleSync?_initObject@@@QAGXQAV1@H@Z 
01:00087698 ?@create_object@consoleSync@@SGQAV1@@XZ 
01:000876B4 consoleSync?_InternalFinalizer@@@QAGXQAV1@@Z 
--- From 'Obj\multiThread_api.6CAB3B1E.obj'
01:000876D0 ?classInfo@multiThread_api@@SAXPAPB_W0@Z 
01:000876EC ?_createEvent@multiThread_api@@SAXPB_WPAUboolean_struct@_builtIn@@1AAUsyncHandle@windowsAPI@@@Z 
01:00087818 ?_openEvent@multiThread_api@@SAXPB_WAAUsyncHandle@windowsAPI@@@Z 
01:00087864 ?setEvent@multiThread_api@@SAXPBUsyncHandle@@@Z 
01:000878F4 ?error@multiThread_api@@SAXPBUsyncHandle@windowsAPI@@PB_W@Z 
01:00087970 ?resetEvent@multiThread_api@@SAXPBUsyncHandle@@@Z 
01:00087998 ?pulseEvent@multiThread_api@@SAXPBUsyncHandle@windowsAPI@@@Z 
01:00087A28 ?_createMutex@multiThread_api@@SAXPB_WPAUboolean_struct@_builtIn@@AAUsyncHandle@@@Z 
01:00087AE0 ?_openMutex@multiThread_api@@SAXPB_WAAUsyncHandle@windowsAPI@@@Z  (Idle)
01:00087B2C ?releaseMutex@multiThread_api@@SAXPBUsyncHandle@windowsAPI@@@Z 
01:00087B54 ?_createSemaphore@multiThread_api@@SAXPB_WIIAAUsyncHandle@windowsAPI@@@Z 
01:00087C5C ?_openSemaphore@multiThread_api@@SAXPB_WAAUsyncHandle@@@Z 
01:00087CA8 ?_releaseSemaphore@multiThread_api@@SAXPBUsyncHandle@@IPAI@Z 
01:00087D8C ?_createWaitableTimer@multiThread_api@@SAXPB_WPAUboolean_struct@_builtIn@@AAUsyncHandle@@@Z 
01:00087E58 ?_openWaitableTimer@multiThread_api@@SAXPB_WAAUsyncHandle@@@Z 
01:00087EA4 ?setWaitableTimer@multiThread_api@@SAXPBUsyncHandle@@PAPBUtimeIntervalValue@@HPAUboolean_struct@_builtIn@@@Z 
01:00087ECC ?setWaitableTimer@multiThread_api@@SAXPBUsyncHandle@@PAPBUtimeIntervalValue@@HXPAXPAUboolean_struct@_builtIn@@@Z 
01:00088084 ?cancelWaitableTimer@multiThread_api@@SAXPBUsyncHandle@@@Z 
01:000880AC ?_handlingNullString@multiThread_api@@SAXPB_WPAPB_W@Z 
01:000880F0 ?checkHandle@multiThread_api@@SAXPBUsyncHandle@windowsAPI@@PB_W1PAU?$__list_struct@UnamedValue@@@@@Z 
01:0008818C ?checkAlreadyExist@multiThread_api@@SAXPBUhandle@@PB_W@Z 
--- From 'Obj\outputStreamSupport.2B16F673.obj'
01:00088250 ?classInfo@outputSupport@@SAXPAPB_W0@Z 
01:0008826C ?_getFlushProcedure@outputSupport@@SAXQAV1@@PAUboolean_struct@_builtIn@@PAX@Z 
01:000882B4 ?doFlush@outputSupport@@SAXQAV1@@0@Z 
01:000882C4 ?doNotFlush@outputSupport@@SAXQAV1@@@Z 
01:000882CC ?new@outputSupport@@SAXQAV1@@QAVoutputBuffer@@@PAUmode_struct@stream@@PAUboolean_struct@_builtIn@@@Z 
01:00088314 ?newEx@outputSupport@@SAXQAV1@@QAVoutputBuffer@@@PAUmode_struct@stream@@PAUoptional_struct@core@@X@Z 
01:00088354 ?nop@outputSupport@@SAXQAV1@@@Z 
01:0008835C ?setMode@outputSupport@@SGXQAVstream@@@PAUmode_struct@2@@Z 
01:00088390 ?getMode@outputSupport@@SGPAUmode_struct@stream@@QAV3@@@Z 
01:000883A8 ?flush@outputSupport@@SGXQAVoutputStream@@@@Z 
01:000883C8 ?getPosition@outputSupport@@SGPBUfileSize@fileSystem_api@@QAVstream@@@@Z 
01:000883E0 ?setPosition@outputSupport@@SGXQAVstream@@@PBUfileSize@fileSystem_api@@@Z 
01:000883F8 ?getCRLFconversion@outputSupport@@SGPAUboolean_struct@_builtIn@@QAVstream@@@@Z 
01:00088400 ?setCRLFconversion@outputSupport@@SGXQAVstream@@@PAUboolean_struct@_builtIn@@@Z 
01:00088428 ?close@outputSupport@@SGXQAVstream@@@@Z 
01:00088438 ?write@outputSupport@@SAXQAVoutputStream@@@@Z 
01:00088488 ?writeQuoted@outputSupport@@SAXQAVoutputStream@@@@Z 
01:000884E8 ?writef@outputSupport@@SAXQAVoutputStream@@@PB_W@Z 
01:00088588 ?nl@outputSupport@@SGXQAVoutputStream@@@@Z 
01:000885C8 ?save@outputSupport@@SGXQAVoutputStream@@@PBUfactDB@@@Z 
01:0008862C ?writeBytes@outputSupport@@SGXQAVoutputStream@@@PAXPBUbyteCount@@@Z 
01:000886BC ?checkMode_text@outputSupport@@SAXQAV1@@PB_W@Z 
01:000886EC ?_new@outputSupport@@SAXQAVoutputBuffer@@@PAUmode_struct@stream@@PAUboolean_struct@_builtIn@@PAPAV1@@@Z 
01:0008871C ?_newEx@outputSupport@@SAXQAVoutputBuffer@@@PAUmode_struct@stream@@PAUoptional_struct@core@@XPAPAV1@@@Z  (Idle)
01:00088754 outputSupport?_initObject@@@QAGXQAV1@H@Z 
01:0008876C ?@create_object@outputSupport@@SGQAV1@@XZ 
01:00088788 outputSupport?_InternalFinalizer@@@QAGXQAV1@@Z 
--- From 'Obj\vpiEditor.ADC33AAB.obj'
01:000887A0 ?setOptionsByList@vpiEditor@@SAXPAU?$__list_struct@UcolorOption@@@@@Z 
01:000887F4 ?getColorType@vpiEditor@@SAXPAHPAPAUcolorType_struct@1@@Z 
01:00088AD8 ?getFtype@vpiEditor@@SAXPAH@Z 
01:00088B4C ?getOption@vpiEditor@@SAXPAPAUcolorOption_struct@1@@Z 
01:00088BB8 ?getOptions@vpiEditor@@SAXPAPAU?$__list_struct@UcolorOption@@@@PAIPAIAAUbooleanInt@@33@Z  (Idle)
01:00088C3C ?setOptions@vpiEditor@@SAXPAU?$__list_struct@UcolorOption@@@@IIPBUbooleanInt@@33@Z  (Idle)
01:00088C70 ?setTabsize@vpiEditor@@SAXPBUwindowHandle@@I@Z  (Idle)
01:00088C8C ?index_FontStyle@vpiEditor@@SAXHAAUfs@@@Z 
01:00088CC8 ?_get_CorrectBackColor@vpiEditor@@SAXPBUcolor@@AAU2@@Z 
01:00088D30 ?_get_CorrectForeColor@vpiEditor@@SAXPBUcolor@@AAU2@@Z 
01:00088D98 ?_convertIndexToColorType@vpiEditor@@SAXHPAPAUcolorType_struct@1@@Z 
01:00088DE4 ?_convertColorTypeToIndex@vpiEditor@@SAXPAUcolorType_struct@1@PAH@Z 
01:00088E34 ?_get_ColorFromColorOption@vpiEditor@@SAXPAPAUcolorSettings_struct@1@@Z 
01:00088F08 ?set_NewColorSettings@vpiEditor@@SAXPAUcolorSettings_struct@1@@Z 
01:0008907C ?_get_ColorForControl@vpiEditor@@SAXHAAUcolor@@@Z 
01:000890E4 ?checkFocus@vpiEditor@@SAXPAU?$__list_struct@Ustate@@@@@Z 
01:0008911C ?update_preview@vpiEditor@@SAXPBUwindowHandle@@PAUrct_struct@vpiDomains@@@Z 
01:000891E4 ?_toStyleFlags@vpiEditor@@SAXPBUfs@@PAPAU?$__list_struct@U2@@@@Z 
01:0008921C ?update_button@vpiEditor@@SAXPBUwindowHandle@@PAUrct_struct@vpiDomains@@HPAU?$__list_struct@Ustate@@@@@Z 
01:000892D8 ?_get_DefaultBackColor@vpiEditor@@SAXPBUbooleanInt@@AAUcolor@@@Z 
01:00089304 ?_get_DefaultForeColor@vpiEditor@@SAXPBUbooleanInt@@AAUcolor@@@Z 
01:00089330 ?on_DefaultBackground@vpiEditor@@SAXPBUwindowHandle@@0@Z 
01:000893E4 ?on_DefaultForeground@vpiEditor@@SAXPBUwindowHandle@@0@Z 
01:00089498 ?on_BackgroundColor@vpiEditor@@SAXPBUwindowHandle@@0@Z 
01:00089570 ?on_ForegroundColor@vpiEditor@@SAXPBUwindowHandle@@0@Z 
01:00089648 ?on_FontStyle@vpiEditor@@SAXPBUwindowHandle@@@Z 
01:00089708 ?show_color@vpiEditor@@SAXPBUwindowHandle@@@Z 
01:00089760 ?_getDefaultForColor@vpiEditor@@SAXPBUcolor@@AAUbooleanInt@@@Z 
01:00089784 ?show_Forecolor@vpiEditor@@SAXPBUwindowHandle@@PBU3@@Z 
01:00089804 ?show_Backcolor@vpiEditor@@SAXPBUwindowHandle@@PBU3@@Z 
01:00089884 ?show_BoldItalic@vpiEditor@@SAXPBUwindowHandle@@PBUfs@@@Z 
01:000898E4 ?on_OK@vpiEditor@@SAXPBUwindowHandle@@@Z 
01:00089968 ?init_tokenColoring@vpiEditor@@SAXPBUwindowHandle@@H@Z 
01:00089A24 ?_dlg_token_coloring_eh@vpiEditor@@SAXPBUwindowHandle@@PAUevent_struct@vpiDomains@@PAH@Z 
01:00089D60 ?optionsDialog@vpiEditor@@SAXPBUwindowHandle@@H@Z  (Idle)
01:00089D90 ?_tryGetSelectedText@vpiEditor@@SAXPBUwindowHandle@@AAUcharCount@@1PAPB_W@Z 
01:00089E04 ?_getSelectedText@vpiEditor@@SAXPBUwindowHandle@@PAPB_W@Z  (Idle)
01:00089E5C ?index_FontStyle@vpiEditor@@SAXPAHPBUfs@@@Z 
01:00089E98 ?_class_facts_initializer@vpiEditor@@SGXXZ 
--- From 'Obj\inputStreamSupport.AAEBD08D.obj'
01:00089EC0 ?classInfo@inputSupport@@SAXPAPB_W0@Z 
01:00089EDC ?new@inputSupport@@SAXQAV1@@QAVinputBuffer@@@PAUmode_struct@stream@@@Z 
01:00089F10 ?setMode@inputSupport@@SGXQAV1@@PAUmode_struct@stream@@@Z 
01:00089F44 ?getMode@inputSupport@@SGPAUmode_struct@stream@@QAV1@@@Z 
01:00089F5C ?_readChar@inputSupport@@SAXQAV1@@PA_W@Z 
01:00089F8C ?ungetChar@inputSupport@@SAXQAV1@@@Z 
01:00089FB4 ?_readLine@inputSupport@@SAXQAV1@@PAPB_W@Z 
01:00089FE4 ?_read@inputSupport@@SAXQAV1@@QAVrTypeLibrary@TypeLibraries@RunTime@VIP@@PAPAX@Z 
01:0008A00C ?consult@inputSupport@@SAXQAV1@@PBUfactDB@@@Z 
01:0008A038 ?reconsult@inputSupport@@SAXQAV1@@PBUfactDB@@@Z 
01:0008A04C ?_readBytes@inputSupport@@SAXQAV1@@PBUbyteCount@@QAPAE@Z 
01:0008A0B0 ?_readString@inputSupport@@SAXQAV1@@PBUcharCount@@PAPB_W@Z 
01:0008A0E4 ?checkMode_text@inputSupport@@SAXQAV1@@PB_W@Z 
01:0008A114 ?_convertMode@inputSupport@@SAXPAUmode_struct@stream@@AAUbooleanInt@core@@@Z 
01:0008A138 ?_new@inputSupport@@SAXQAVinputBuffer@@@PAUmode_struct@stream@@PAPAV1@@@Z  (Idle)
01:0008A16C inputSupport?_initObject@@@QAGXQAV1@H@Z 
01:0008A180 ?@create_object@inputSupport@@SGQAV1@@XZ 
01:0008A19C inputSupport?_InternalFinalizer@@@QAGXQAV1@@Z 
--- From 'Obj\locale_api.55F3BDA7.obj'
01:0008A1B0 ?classInfo@locale_native@@SAXPAPB_W0@Z  (Idle)
01:0008A1CC ?classInfo@locale_api@@SAXPAPB_W0@Z  (Idle)
01:0008A1E8 ?_makeLangId@locale_api@@SAXIIPAI@Z  (Idle)
01:0008A20C ?_primaryLangId@locale_api@@SAXIPAI@Z  (Idle)
01:0008A228 ?_subLangId@locale_api@@SAXIPAI@Z  (Idle)
01:0008A244 ?_makeLcId@locale_api@@SAXIIPAI@Z  (Idle)
01:0008A268 ?_makeSortLcId@locale_api@@SAXIIIPAI@Z  (Idle)
01:0008A2B0 ?_langIdFromLcId@locale_api@@SAXIPAI@Z  (Idle)
01:0008A2CC ?_sortIdFromLcId@locale_api@@SAXIPAI@Z  (Idle)
01:0008A2F4 ?_sortVersionFromLcId@locale_api@@SAXIPAI@Z  (Idle)
--- From 'Obj\string8.F7761F11.obj'
01:0008A310 ?classInfo@string8@@SAXPAPB_W0@Z  (Idle)
01:0008A32C ?isValidCodePage@string8@@SAXI@Z  (Idle)
01:0008A348 ?isValidToRead@string8@@SAXPAD@Z  (Idle)
01:0008A368 ?_mapFromString@string8@@SAXPB_WPAPAD@Z 
01:0008A390 ?_mapFromString@string8@@SAXPB_WPAUcodePage_struct@core@@PAPAD@Z 
01:0008A3E4 ?_mapToString@string8@@SAXPADPAPB_W@Z  (Idle)
01:0008A40C ?_mapToString@string8@@SAXPADPAUcodePage_struct@core@@PAPB_W@Z 
01:0008A458 ?_mapFromChar@string8@@SAX_WAAUchar8@@@Z  (Idle)
01:0008A480 ?_mapFromChar@string8@@SAX_WPAUcodePage_struct@core@@AAUchar8@@@Z 
01:0008A4F4 ?_mapToChar@string8@@SAXPBUchar8@@PA_W@Z  (Idle)
01:0008A51C ?_mapToChar@string8@@SAXPBUchar8@@PAUcodePage_struct@core@@PA_W@Z 
01:0008A58C ?_createCopy@string8@@SAXPADPAPAD@Z  (Idle)
--- From 'Obj\Shell_api.FF07D5B3.obj'
01:0008A600 ?classInfo@shell_native@@SAXPAPB_W0@Z  (Idle)
01:0008A61C ?classInfo@shell_api@@SAXPAPB_W0@Z 
01:0008A638 ?shellExecute@shell_api@@SAXPBUhwnd@@PB_W111H@Z  (Idle)
01:0008A698 ?shellExecuteEx@shell_api@@SAXPAUshellExecuteInfo_struct@shell_native@@@Z  (Idle)
01:0008A6D8 ?_getSEErrorDescription@shell_api@@SAXPBUunsigned32@@PAPB_W@Z 
--- From 'Obj\string8_api.1EF407E4.obj'
01:0008A820 ?classInfo@string8_api@@SAXPAPB_W0@Z 
01:0008A83C ?toWideChar@string8_api@@SGXPAUcodePage_struct@core@@PADPBUbyteCountOptional@@PB_WPBUcharCount@@@Z 
01:0008A8B4 ?_lenWideChar@string8_api@@SAXPAUcodePage_struct@core@@PADPBUbyteCountOptional@@AAUcharCount@@@Z 
01:0008A940 ?toMultiByte@string8_api@@SGXPAUcodePage_struct@core@@PB_WPBUcharCountOptional@@PADPBUbyteCount@@@Z 
01:0008A9BC ?_lenMultiByte@string8_api@@SAXPAUcodePage_struct@core@@PB_WPBUcharCountOptional@@AAUbyteCount@@@Z 
01:0008AA4C ?_toApiCodePage@string8_api@@SAXPAUcodePage_struct@core@@PAI@Z 
--- From 'Obj\mapM_redBlack.DE0C8F8A.obj'
01:0008AA90 ?new@mapM_redBlack@@SAXQAV1@@PAXPAXQAVrTypeLibrary@TypeLibraries@RunTime@VIP@@1@Z 
01:0008AAD8 ?newCustom@mapM_redBlack@@SAXQAV1@@PAXPAXQAVrTypeLibrary@TypeLibraries@RunTime@VIP@@1X@Z 
01:0008AB18 ?set@mapM_redBlack@@SAXQAVmapM@@@PAXPAXPAXPAX@Z 
01:0008AB5C ?_tryGet@mapM_redBlack@@SAXQAVmap@@@PAXPAXPAXPAPAX@Z 
01:0008ABA4 ?_getAll_nd@mapM_redBlack@@SAXQAVcollection@@@PAXPAPAX@Z 
01:0008ABE4 ?removeKey@mapM_redBlack@@SAXQAVmapM@@@PAXPAXPAX@Z 
01:0008AC3C ?clear@mapM_redBlack@@SAXQAVmodifiable@@@PAX@Z 
01:0008AC78 ?classInfo@mapM_redBlack@@SAXPAPB_W0@Z  (Idle)
01:0008AC94 ?siteClassInfo@mapM_redBlack@@SAXQAVcollectionMsite@@collectionSupportM@@PAXPAPB_W1@Z 
01:0008ACB0 ?_new@mapM_redBlack@@SAXQAVrTypeLibrary@TypeLibraries@RunTime@VIP@@0PAPAVmapM@@@PAPAXPAPAX@Z 
01:0008ACE4 ?_newCustom@mapM_redBlack@@SAXQAVrTypeLibrary@TypeLibraries@RunTime@VIP@@0XPAPAVmapM@@@PAPAXPAPAX@Z  (Idle)
01:0008AD18 ?_object_typelib_initializer@mapM_redBlack@@SGXQAV1@@PAXPAXQAVrTypeLibrary@TypeLibraries@RunTime@VIP@@1@Z 
01:0008B074 mapM_redBlack{@Key,@Data}?_initObject@@@QAGXQAV1@H@Z 
01:0008B0B8 ?@create_object@mapM_redBlack@@SGQAV1@@PAXPAXQAVrTypeLibrary@TypeLibraries@RunTime@VIP@@0@Z 
01:0008B0E0 mapM_redBlack{@Key,@Data}?_InternalFinalizer@@@QAGXQAV1@@Z 
--- From 'Obj\setM_redBlack.60A8A024.obj'
01:0008B0F0 ?new@setM_redBlack@@SAXQAV1@@PAXQAVrTypeLibrary@TypeLibraries@RunTime@VIP@@@Z 
01:0008B118 ?newCustom@setM_redBlack@@SAXQAV1@@PAXQAVrTypeLibrary@TypeLibraries@RunTime@VIP@@X@Z 
01:0008B140 ?newInternal@setM_redBlack@@SAXQAV1@@PAXQAVrTypeLibrary@TypeLibraries@RunTime@VIP@@PAUset_struct@redBlackSet@@PAX@Z 
01:0008B15C ?contains@setM_redBlack@@SAXQAVcollection@@@PAXPAX@Z 
01:0008B190 ?_getAll_nd@setM_redBlack@@SAXQAVcollection@@@PAXPAPAX@Z 
01:0008B1C0 ?insert@setM_redBlack@@SAXQAVmodifiable@@@PAXPAX@Z 
01:0008B1F8 ?remove@setM_redBlack@@SAXQAVmodifiable@@@PAXPAX@Z 
01:0008B230 ?clear@setM_redBlack@@SAXQAVmodifiable@@@PAX@Z 
01:0008B264 ?classInfo@setM_redBlack@@SAXPAPB_W0@Z  (Idle)
01:0008B280 ?siteClassInfo@setM_redBlack@@SAXQAVcollectionMsite@@collectionSupportM@@PAXPAPB_W1@Z 
01:0008B29C ?_new@setM_redBlack@@SAXQAVrTypeLibrary@TypeLibraries@RunTime@VIP@@PAPAVsetM@@@PAPAX@Z 
01:0008B2C8 ?_newCustom@setM_redBlack@@SAXQAVrTypeLibrary@TypeLibraries@RunTime@VIP@@XPAPAVsetM@@@PAPAX@Z 
01:0008B2F8 ?_newInternal@setM_redBlack@@SAXQAVrTypeLibrary@TypeLibraries@RunTime@VIP@@PAUset_struct@redBlackSet@@PAXPAPAVsetM@@@PAPAX@Z  (Idle)
01:0008B328 ?_object_typelib_initializer@setM_redBlack@@SGXQAV1@@PAXQAVrTypeLibrary@TypeLibraries@RunTime@VIP@@@Z 
01:0008B508 setM_redBlack{@Type}?_initObject@@@QAGXQAV1@H@Z 
01:0008B544 ?@create_object@setM_redBlack@@SGQAV1@@PAXQAVrTypeLibrary@TypeLibraries@RunTime@VIP@@@Z 
01:0008B568 setM_redBlack{@Type}?_InternalFinalizer@@@QAGXQAV1@@Z 
--- From 'Obj\registry.7837C76D.obj'
01:0008B580 ?classInfo@registry_exception@@SAXPAPB_W0@Z 
01:0008B59C ?wrongValue@registry_exception@@SAXPAXPAPB_W1@Z 
01:0008B5C4 ?noPath@registry_exception@@SAXPAXPAPB_W1@Z 
01:0008B5EC ?cannotCreateKey@registry_exception@@SAXPAXPAPB_W1@Z 
01:0008B614 ?raise_WrongValue@registry_exception@@SAXXPBUunsigned32@@PAUrootKey_struct@registry@@PB_W3@Z  (Idle)
01:0008B7A4 ?raise_noPath@registry_exception@@SAXXPBUunsigned32@@PAUrootKey_struct@registry@@PB_W3@Z  (Idle)
01:0008B934 ?raise_CannotCreateKey@registry_exception@@SAXXPBUunsigned32@@PAUrootKey_struct@registry@@PB_W@Z  (Idle)
01:0008BA70 ?_getSystemDescription@registry_exception@@SAXIPAPB_W@Z 
01:0008BAAC ?_getRootKeyName@registry_exception@@SAXPAUrootKey_struct@registry@@PAPB_W@Z 
01:0008BB18 ?classInfo@registry@@SAXPAPB_W0@Z 
01:0008BB34 ?createKey@registry@@SAXPAUrootKey_struct@1@PB_W@Z  (Idle)
01:0008BB80 ?existKey@registry@@SAXPAUrootKey_struct@1@PB_W@Z  (Idle)
01:0008BBC4 ?deleteKey@registry@@SAXPAUrootKey_struct@1@PB_W@Z 
01:0008BC14 ?deleteKeyList@registry@@SAXPAUrootKey_struct@1@PB_WPAU?$__list_struct@Ustring@@@@@Z 
01:0008BC74 ?setValue@registry@@SAXPAUrootKey_struct@1@PB_WPAU?$__list_struct@UnamedValue@@@@@Z  (Idle)
01:0008BD90 ?setValuesToKey@registry@@SAXPBUhkey@@PAU?$__list_struct@UnamedValue@@@@@Z 
01:0008BDE0 ?_getValue@registry@@SAXPAUrootKey_struct@1@PB_W1PAPAUvalue_struct@core@@@Z 
01:0008BE84 ?_tryGetValue@registry@@SAXPAUrootKey_struct@1@PB_W1PAPAUvalue_struct@core@@@Z 
01:0008BF78 ?removeValue@registry@@SAXPAUrootKey_struct@1@PB_WPAU?$__list_struct@Ustring@@@@@Z  (Idle)
01:0008C018 ?removeListValues@registry@@SAXPBUhkey@@PAU?$__list_struct@Ustring@@@@@Z 
01:0008C060 ?_getSubkeys@registry@@SAXPAUrootKey_struct@1@PB_WPAPAU?$__list_struct@Ustring@@@@@Z 
01:0008C100 ?_getAllValues@registry@@SAXPAUrootKey_struct@1@PB_WPAPAU?$__list_struct@UnamedValue@@@@@Z  (Idle)
01:0008C1A0 ?_getRootKeyHandle@registry@@SAXPAUrootKey_struct@1@AAUhkey@@@Z 
--- From 'Obj\regExp.1C7438E9.obj'
01:0008C210 ?classInfo@regExp_exception@@SAXPAPB_W0@Z 
01:0008C22C ?invalidPattern@regExp_exception@@SAXPAXPAPB_W1@Z 
01:0008C254 ?classInfo@regExp@@SAXPAPB_W0@Z 
01:0008C270 ?new@regExp@@SAXQAV1@@PB_WPAUboolean_struct@_builtIn@@@Z 
01:0008C2B4 ?searchPos@regExp@@SAXQAV1@@PB_WPBUcharCount@@HAAU3@4@Z 
01:0008C2EC ?search@regExp@@SAXQAV1@@PB_WAAUcharCount@@2@Z 
01:0008C32C ?match@regExp@@SAXQAV1@@PB_WAAUcharCount@@2PAPAU?$__list_struct@Ustring@@@@@Z 
01:0008C380 ?matchPos@regExp@@SAXQAV1@@PB_WPBUcharCount@@HAAU3@4PAPAU?$__list_struct@Ustring@@@@@Z 
01:0008C3D0 ?_search_and_replace@regExp@@SAXQAV1@@PB_WPBUcharCount@@H1AAU3@5PAPB_W@Z 
01:0008C420 ?searchPos@regExp@@SAXPB_W0PAUboolean_struct@_builtIn@@PBUcharCount@@HAAU4@5@Z  (Idle)
01:0008C464 ?search@regExp@@SAXPB_W0AAUcharCount@@2@Z  (Idle)
01:0008C4A0 ?_replace@regExp@@SAXPB_W00PAPB_W@Z  (Idle)
01:0008C500 ?_processString@regExp@@SAXPBUinfoData@@PB_W11PAPB_W@Z 
01:0008C5C8 ?_search_and_replace@regExp@@SAXPB_W0PAUboolean_struct@_builtIn@@PBUcharCount@@H0AAU4@6PAPB_W@Z  (Idle)
01:0008C650 ?checkRes@regExp@@SAXHPB_W@Z 
01:0008C730 ?_new@regExp@@SAXPB_WPAUboolean_struct@_builtIn@@PAPAV1@@@Z 
01:0008C764 regExp?_initObject@@@QAGXQAV1@H@Z 
01:0008C778 ?@create_object@regExp@@SGQAV1@@XZ 
01:0008C794 regExp?_InternalFinalizer@@@QAGXQAV1@@Z 
--- From 'Obj\mapMSupport.291A338C.obj'
01:0008C7A0 ?new@mapMSupport@collectionSupportM@@SAXQAV1@2@PAXPAXQAVrTypeLibrary@TypeLibraries@RunTime@VIP@@1QAVmapMSite@@2@PAXPAX@Z 
01:0008C7E8 ?_get@mapMSupport@collectionSupportM@@SAXQAV1@@PAXPAXPAXPAPAX@Z 
01:0008C884 ?contains@mapMSupport@collectionSupportM@@SAXQAV1@@PAXPAXPAUtuple_struct@core@@PAXPAX@Z 
01:0008C8CC ?_getKey_nd@mapMSupport@collectionSupportM@@SAXQAV1@@PAXPAXPAPAX@Z 
01:0008C900 ?_getValue_nd@mapMSupport@collectionSupportM@@SAXQAV1@@PAXPAXPAPAX@Z 
01:0008C934 ?keyList@mapMSupport@collectionSupportM@@SGPAU?$__list_struct@PAX@@QAV1@@PAXPAX@Z 
01:0008C9A0 ?valueList@mapMSupport@collectionSupportM@@SGPAU?$__list_struct@PAX@@QAV1@@PAXPAX@Z 
01:0008CA0C ?insert@mapMSupport@collectionSupportM@@SAXQAV1@@PAXPAXPAUtuple_struct@core@@PAXPAX@Z 
01:0008CA48 ?remove@mapMSupport@collectionSupportM@@SAXQAV1@@PAXPAXPAUtuple_struct@core@@PAXPAX@Z 
01:0008CAB8 ?removeKeyList@mapMSupport@collectionSupportM@@SAXQAV1@@PAXPAXPAU?$__list_struct@PAX@@@Z 
01:0008CB08 ?removeKeyCollection@mapMSupport@collectionSupportM@@SAXQAV1@@PAXPAXQAVcollection@@@PAX@Z 
01:0008CB50 ?classInfo@mapMSupport@collectionSupportM@@SAXPAPB_W0@Z  (Idle)
01:0008CB6C ?_new@mapMSupport@collectionSupportM@@SAXQAVrTypeLibrary@TypeLibraries@RunTime@VIP@@0QAVmapMSite@@2@PAXPAXPAPAV1@@PAPAXPAPAX@Z  (Idle)
01:0008CBA8 ?_object_typelib_initializer@mapMSupport@collectionSupportM@@SGXQAV1@2@PAXPAXQAVrTypeLibrary@TypeLibraries@RunTime@VIP@@1@Z 
01:0008CBC4 ?_mk_tl_0_collectionSupportM\collectionMsupport{@Type}$imp$@mapMSupport@collectionSupportM@@SGQAVrTypeLibrary@TypeLibraries@RunTime@VIP@@QAV1@2@PAXPAX@Z 
01:0008CBF8 ?siteClassInfo@mapMSupport@collectionSupportM@@SAXQAVcollectionMsite@@2@PAXPAPB_W1@Z 
01:0008CC14 ?_getAll_nd@mapMSupport@collectionSupportM@@SAXQAVcollectionMsite@@2@PAXPAPAX@Z 
01:0008CD04 collectionSupportM\mapMSupport{@Key,@Data}?_initObject@@@QAGXQAV1@H@Z 
01:0008CD58 ?@create_object@mapMSupport@collectionSupportM@@SGQAV1@2@PAXPAXQAVrTypeLibrary@TypeLibraries@RunTime@VIP@@0@Z 
01:0008CD80 collectionSupportM\mapMSupport{@Key,@Data}?_InternalFinalizer@@@QAGXQAV1@@Z 
--- From 'Obj\collectionMsupport.C5291E49.obj'
01:0008CD90 ?new@collectionMsupport@collectionSupportM@@SAXQAV1@2@PAXQAVrTypeLibrary@TypeLibraries@RunTime@VIP@@QAVcollectionMsite@@2@PAX@Z 
01:0008CDA4 ?isEmpty@collectionMsupport@collectionSupportM@@SAXQAV1@2@PAX@Z 
01:0008CDF0 ?_tryGetFirst@collectionMsupport@collectionSupportM@@SAXQAV1@2@PAXPAPAX@Z 
01:0008CE1C ?asList@collectionMsupport@collectionSupportM@@SGPAU?$__list_struct@PAX@@QAV1@2@PAX@Z 
01:0008CE8C ?insertList@collectionMsupport@collectionSupportM@@SAXQAV1@2@PAXPAU?$__list_struct@PAX@@@Z 
01:0008CEDC ?insertCollection@collectionMsupport@collectionSupportM@@SAXQAV1@2@PAXQAVcollection@@@PAX@Z 
01:0008CF24 ?removeList@collectionMsupport@collectionSupportM@@SAXQAV1@2@PAXPAU?$__list_struct@PAX@@@Z 
01:0008CF74 ?removeCollection@collectionMsupport@collectionSupportM@@SAXQAV1@2@PAXQAVcollection@@@PAX@Z 
01:0008CFBC ?_tryRemoveFirst@collectionMsupport@collectionSupportM@@SAXQAV1@2@PAXPAPAX@Z 
01:0008CFF0 ?classInfo@collectionMsupport@collectionSupportM@@SAXPAPB_W0@Z  (Idle)
01:0008D00C ?_new@collectionMsupport@collectionSupportM@@SAXQAVrTypeLibrary@TypeLibraries@RunTime@VIP@@QAVcollectionMsite@@2@PAXPAPAV1@2@PAPAX@Z  (Idle)
01:0008D040 ?_object_typelib_initializer@collectionMsupport@collectionSupportM@@SGXQAV1@2@PAXQAVrTypeLibrary@TypeLibraries@RunTime@VIP@@@Z 
01:0008D060 collectionSupportM\collectionMsupport{@Type}?_initObject@@@QAGXQAV1@H@Z 
01:0008D084 ?@create_object@collectionMsupport@collectionSupportM@@SGQAV1@2@PAXQAVrTypeLibrary@TypeLibraries@RunTime@VIP@@@Z 
01:0008D0A8 collectionSupportM\collectionMsupport{@Type}?_InternalFinalizer@@@QAGXQAV1@@Z 
--- From 'Obj\redBlackTree.DD02B175.obj'
01:0008D0C0 ?_anonymous$2$13_33$compare@redBlackTree@@SAXPAUanonymous$2$13_33$comparec_struct@1@PAXPAXPAPAUcompareResult_struct@_builtIn@@@Z 
01:0008D0D8 ?_empty@redBlackTree@@SAXQAVrTypeLibrary@TypeLibraries@RunTime@VIP@@0PAPAUtree_struct@1@PAPAXPAPAX@Z  (Idle)
01:0008D150 ?_anonymous$3$16_39$compare@redBlackTree@@SAXPAUanonymous$3$16_39$comparec_struct@1@PAXPAXPAPAUcompareResult_struct@_builtIn@@@Z 
01:0008D168 ?_emptyUnique@redBlackTree@@SAXQAVrTypeLibrary@TypeLibraries@RunTime@VIP@@0PAPAUtree_struct@1@PAPAXPAPAX@Z 
01:0008D1E0 ?_emptyCustom@redBlackTree@@SAXQAVrTypeLibrary@TypeLibraries@RunTime@VIP@@0XPAPAUtree_struct@1@PAPAXPAPAX@Z  (Idle)
01:0008D230 ?_emptyCustomUnique@redBlackTree@@SAXQAVrTypeLibrary@TypeLibraries@RunTime@VIP@@0XPAPAUtree_struct@1@PAPAXPAPAX@Z 
01:0008D280 ?_emptySameKind@redBlackTree@@SAXQAVrTypeLibrary@TypeLibraries@RunTime@VIP@@0PAUtree_struct@1@PAXPAXPAPAU21@PAPAXPAPAX@Z 
01:0008D2B8 ?isEmpty@redBlackTree@@SAXQAVrTypeLibrary@TypeLibraries@RunTime@VIP@@0PAUtree_struct@1@PAXPAX@Z  (Idle)
01:0008D2DC ?_insert@redBlackTree@@SAXQAVrTypeLibrary@TypeLibraries@RunTime@VIP@@0PAUtree_struct@1@PAXPAXPAXPAXPAPAU21@PAPAXPAPAX@Z 
01:0008D344 ?_delete@redBlackTree@@SAXQAVrTypeLibrary@TypeLibraries@RunTime@VIP@@0PAUtree_struct@1@PAXPAXPAXPAXPAPAU21@PAPAXPAPAX@Z 
01:0008D3AC ?_tryDeleteOne@redBlackTree@@SAXQAVrTypeLibrary@TypeLibraries@RunTime@VIP@@0PAUtree_struct@1@PAXPAXPAXPAPAXPAPAU21@PAPAXPAPAX@Z 
01:0008D414 ?_tryDeleteFirst@redBlackTree@@SAXQAVrTypeLibrary@TypeLibraries@RunTime@VIP@@0PAUtree_struct@1@PAXPAXPAPAX3PAPAU21@PAPAXPAPAX@Z  (Idle)
01:0008D460 ?_lookUp_nd@redBlackTree@@SAXQAVrTypeLibrary@TypeLibraries@RunTime@VIP@@0PAUtree_struct@1@PAXPAXPAXPAPAX@Z 
01:0008D49C ?_tryLookUp@redBlackTree@@SAXQAVrTypeLibrary@TypeLibraries@RunTime@VIP@@0PAUtree_struct@1@PAXPAXPAXPAPAX@Z 
01:0008D4C8 ?_getAll_nd@redBlackTree@@SAXQAVrTypeLibrary@TypeLibraries@RunTime@VIP@@0PAUtree_struct@1@PAXPAXPAPAUtuple_struct@core@@PAPAXPAPAX@Z 
01:0008D4E0 ?_upFrom_nd@redBlackTree@@SAXQAVrTypeLibrary@TypeLibraries@RunTime@VIP@@0PAUtree_struct@1@PAXPAXPAXPAPAUtuple_struct@core@@PAPAXPAPAX@Z  (Idle)
01:0008D51C ?_downFrom_nd@redBlackTree@@SAXQAVrTypeLibrary@TypeLibraries@RunTime@VIP@@0PAUtree_struct@1@PAXPAXPAXPAPAUtuple_struct@core@@PAPAXPAPAX@Z  (Idle)
01:0008D558 ?_comp@redBlackTree@@SAXQAVrTypeLibrary@TypeLibraries@RunTime@VIP@@PAUtreeProperty_struct@1@PAXPAXPAXPAPAUcompareResult_struct@_builtIn@@@Z 
01:0008D588 ?_find_nd_rep@redBlackTree@@SAXQAVrTypeLibrary@TypeLibraries@RunTime@VIP@@0PAUtreeProperty_struct@1@PAXPAXPAUtreeRep_struct@1@PAXPAXPAPAX@Z 
01:0008D610 ?_find_nd_rep1@redBlackTree@@SAXQAVrTypeLibrary@TypeLibraries@RunTime@VIP@@0PAUtreeProperty_struct@1@PAXPAUcompareResult_struct@_builtIn@@PAXPAUtreeRep_struct@1@PAXPAXPAX5PAPAX@Z 
01:0008D6F4 ?_get_nd_rep@redBlackTree@@SAXQAVrTypeLibrary@TypeLibraries@RunTime@VIP@@0PAUtreeRep_struct@1@PAXPAXPAPAUtuple_struct@core@@PAPAXPAPAX@Z 
01:0008D7B4 ?_upFrom_nd_rep@redBlackTree@@SAXQAVrTypeLibrary@TypeLibraries@RunTime@VIP@@0PAUtreeProperty_struct@1@PAXPAXPAUtreeRep_struct@1@PAXPAXPAPAUtuple_struct@core@@PAPAXPAPAX@Z 
01:0008D848 ?_upFrom_nd_rep1@redBlackTree@@SAXQAVrTypeLibrary@TypeLibraries@RunTime@VIP@@0PAUtreeProperty_struct@1@PAXPAUcompareResult_struct@_builtIn@@PAXPAUtreeRep_struct@1@PAXPAXPAXPAX5PAPAUtuple_struct@core@@PAPAXPAPAX@Z 
01:0008D918 ?_downFrom_nd_rep@redBlackTree@@SAXQAVrTypeLibrary@TypeLibraries@RunTime@VIP@@0PAUtreeProperty_struct@1@PAXPAXPAUtreeRep_struct@1@PAXPAXPAPAUtuple_struct@core@@PAPAXPAPAX@Z 
01:0008D9AC ?_downFrom_nd_rep1@redBlackTree@@SAXQAVrTypeLibrary@TypeLibraries@RunTime@VIP@@0PAUtreeProperty_struct@1@PAXPAUcompareResult_struct@_builtIn@@PAXPAUtreeRep_struct@1@PAXPAXPAXPAX5PAPAUtuple_struct@core@@PAPAXPAPAX@Z 
01:0008DA7C ?_insert_rep@redBlackTree@@SAXQAVrTypeLibrary@TypeLibraries@RunTime@VIP@@0PAUtreeProperty_struct@1@PAXPAXPAXPAUtreeRep_struct@1@PAXPAXPAPAU41@PAPAXPAPAX@Z 
01:0008DAB8 ?_ins@redBlackTree@@SAXQAVrTypeLibrary@TypeLibraries@RunTime@VIP@@0PAUtreeProperty_struct@1@PAXPAXPAXPAUtreeRep_struct@1@PAXPAXPAPAU41@PAPAXPAPAX@Z 
01:0008DC38 ?_ins_black@redBlackTree@@SAXQAVrTypeLibrary@TypeLibraries@RunTime@VIP@@0PAUtreeProperty_struct@1@PAXPAUcompareResult_struct@_builtIn@@PAXPAXPAUtreeRep_struct@1@PAXPAXPAXPAX6PAPAU61@PAPAXPAPAX@Z 
01:0008DD7C ?_ins_red@redBlackTree@@SAXQAVrTypeLibrary@TypeLibraries@RunTime@VIP@@0PAUtreeProperty_struct@1@PAXPAUcompareResult_struct@_builtIn@@PAXPAXPAUtreeRep_struct@1@PAXPAXPAXPAX6PAPAU61@PAPAXPAPAX@Z 
01:0008DF14 ?_balance@redBlackTree@@SAXQAVrTypeLibrary@TypeLibraries@RunTime@VIP@@0PAUtreeRep_struct@1@PAXPAXPAXPAX2PAPAU21@PAPAXPAPAX@Z 
01:0008F1E0 ?_makeblack@redBlackTree@@SAXQAVrTypeLibrary@TypeLibraries@RunTime@VIP@@0PAUtreeRep_struct@1@PAXPAXPAPAU21@PAPAXPAPAX@Z 
01:0008F258 ?_delete_rep@redBlackTree@@SAXQAVrTypeLibrary@TypeLibraries@RunTime@VIP@@0PAUtreeProperty_struct@1@PAXPAXPAXPAUtreeRep_struct@1@PAXPAXPAPAU41@PAPAXPAPAX@Z 
01:0008F2AC ?del@redBlackTree@@SAXQAVrTypeLibrary@TypeLibraries@RunTime@VIP@@0PAUtreeProperty_struct@1@PAXPAXPAXPAUtreeRep_struct@1@PAXPAXPAPAU41@PAPAXPAPAXPAPAUboolean_struct@_builtIn@@@Z 
01:0008F36C ?del1@redBlackTree@@SAXQAVrTypeLibrary@TypeLibraries@RunTime@VIP@@0PAUtreeProperty_struct@1@PAXPAUcompareResult_struct@_builtIn@@PAXPAXPAUtreeRep_struct@1@PAXPAXPAXPAX6PAPAU61@PAPAXPAPAXPAPAUboolean_struct@5@@Z 
01:0008F4C0 ?delLeft@redBlackTree@@SAXQAVrTypeLibrary@TypeLibraries@RunTime@VIP@@0PAUtreeProperty_struct@1@PAXPAXPAXPAUtreeRep_struct@1@PAXPAXPAXPAX5PAPAU41@PAPAXPAPAXPAPAUboolean_struct@_builtIn@@@Z 
01:0008F584 ?delRight@redBlackTree@@SAXQAVrTypeLibrary@TypeLibraries@RunTime@VIP@@0PAUtreeProperty_struct@1@PAXPAXPAXPAUtreeRep_struct@1@PAXPAXPAXPAX5PAPAU41@PAPAXPAPAXPAPAUboolean_struct@_builtIn@@@Z 
01:0008F658 ?_tryDeleteOne_rep@redBlackTree@@SAXQAVrTypeLibrary@TypeLibraries@RunTime@VIP@@0PAUtreeProperty_struct@1@PAXPAXPAUtreeRep_struct@1@PAXPAXPAPAXPAPAU41@PAPAXPAPAX@Z 
01:0008F694 ?_tryDel@redBlackTree@@SAXQAVrTypeLibrary@TypeLibraries@RunTime@VIP@@0PAUtreeProperty_struct@1@PAXPAXPAUtreeRep_struct@1@PAXPAXPAPAXPAPAU41@PAPAXPAPAX@Z 
01:0008F734 ?_tryDel1@redBlackTree@@SAXQAVrTypeLibrary@TypeLibraries@RunTime@VIP@@0PAUtreeProperty_struct@1@PAXPAUcompareResult_struct@_builtIn@@PAXPAUtreeRep_struct@1@PAXPAXPAXPAX5PAPAXPAPAU61@PAPAXPAPAX@Z 
01:0008F7D4 ?_tryDelLeft@redBlackTree@@SAXQAVrTypeLibrary@TypeLibraries@RunTime@VIP@@0PAUtreeProperty_struct@1@PAXPAXPAUtreeRep_struct@1@PAXPAXPAXPAX4PAPAXPAPAU41@PAPAXPAPAX@Z 
01:0008F89C ?_tryDelRight@redBlackTree@@SAXQAVrTypeLibrary@TypeLibraries@RunTime@VIP@@0PAUtreeProperty_struct@1@PAXPAXPAUtreeRep_struct@1@PAXPAXPAXPAX4PAPAXPAPAU41@PAPAXPAPAX@Z 
01:0008F974 ?_balLeft@redBlackTree@@SAXQAVrTypeLibrary@TypeLibraries@RunTime@VIP@@0PAUtreeRep_struct@1@PAXPAXPAXPAX2PAPAU21@PAPAXPAPAX@Z 
01:0008FD5C ?_balRight@redBlackTree@@SAXQAVrTypeLibrary@TypeLibraries@RunTime@VIP@@0PAUtreeRep_struct@1@PAXPAXPAXPAX2PAPAU21@PAPAXPAPAX@Z 
01:00090148 ?_sub1@redBlackTree@@SAXQAVrTypeLibrary@TypeLibraries@RunTime@VIP@@0PAUtreeRep_struct@1@PAXPAXPAPAU21@PAPAXPAPAX@Z 
01:000901EC ?_mkNode@redBlackTree@@SAXQAVrTypeLibrary@TypeLibraries@RunTime@VIP@@0PAUtreeRep_struct@1@PAXPAX2PAPAU21@PAPAXPAPAX@Z 
01:000904D4 ?_mkNodeRR_BC@redBlackTree@@SAXQAVrTypeLibrary@TypeLibraries@RunTime@VIP@@0PAUtreeRep_struct@1@PAXPAXPAXPAX2PAXPAX2PAPAU21@PAPAXPAPAX@Z 
01:00090648 ?_mkNodeBB_BC@redBlackTree@@SAXQAVrTypeLibrary@TypeLibraries@RunTime@VIP@@0PAUtreeRep_struct@1@PAXPAXPAXPAX2PAXPAX2PAPAU21@PAPAXPAPAX@Z 
01:00090784 ?classInfo@redBlackTree@@SAXPAPB_W0@Z 
--- From 'Obj\redBlackSet.ACE22A48.obj'
01:000907A0 ?_anonymous$1$11_19$compare@redBlackSet@@SAXPAUanonymous$1$11_19$comparec_struct@1@PAXPAXPAPAUcompareResult_struct@_builtIn@@@Z 
01:000907B8 ?_empty@redBlackSet@@SAXQAVrTypeLibrary@TypeLibraries@RunTime@VIP@@PAPAUset_struct@1@PAPAX@Z 
01:00090810 ?_emptyCustom@redBlackSet@@SAXQAVrTypeLibrary@TypeLibraries@RunTime@VIP@@XPAPAUset_struct@1@PAPAX@Z 
01:00090840 ?_emptySameKind@redBlackSet@@SAXQAVrTypeLibrary@TypeLibraries@RunTime@VIP@@PAUset_struct@1@PAXPAPAU21@PAPAX@Z 
01:00090878 ?isEmpty@redBlackSet@@SAXQAVrTypeLibrary@TypeLibraries@RunTime@VIP@@PAUset_struct@1@PAX@Z  (Idle)
01:00090894 ?_getComparator@redBlackSet@@SAXQAVrTypeLibrary@TypeLibraries@RunTime@VIP@@XPAX@Z 
01:000908A4 ?_insert@redBlackSet@@SAXQAVrTypeLibrary@TypeLibraries@RunTime@VIP@@PAUset_struct@1@PAXPAXPAPAU21@PAPAX@Z 
01:0009091C ?_delete@redBlackSet@@SAXQAVrTypeLibrary@TypeLibraries@RunTime@VIP@@PAUset_struct@1@PAXPAXPAPAU21@PAPAX@Z 
01:00090994 ?_tryDeleteFirst@redBlackSet@@SAXQAVrTypeLibrary@TypeLibraries@RunTime@VIP@@PAUset_struct@1@PAXPAPAXPAPAU21@PAPAX@Z  (Idle)
01:000909C4 ?isMember@redBlackSet@@SAXQAVrTypeLibrary@TypeLibraries@RunTime@VIP@@PAXPAUset_struct@1@PAX@Z 
01:00090A10 ?_getAll_nd@redBlackSet@@SAXQAVrTypeLibrary@TypeLibraries@RunTime@VIP@@PAUset_struct@1@PAXPAPAX@Z 
01:00090A28 ?_upFrom_nd@redBlackSet@@SAXQAVrTypeLibrary@TypeLibraries@RunTime@VIP@@PAUset_struct@1@PAXPAXPAPAX@Z  (Idle)
01:00090A7C ?_downFrom_nd@redBlackSet@@SAXQAVrTypeLibrary@TypeLibraries@RunTime@VIP@@PAUset_struct@1@PAXPAXPAPAX@Z  (Idle)
01:00090AD0 ?find_nd_rep@redBlackSet@@SAXQAVrTypeLibrary@TypeLibraries@RunTime@VIP@@XPAXPAUsetRep_struct@1@PAX@Z 
01:00090B44 ?find_nd_rep1@redBlackSet@@SAXQAVrTypeLibrary@TypeLibraries@RunTime@VIP@@XPAUcompareResult_struct@_builtIn@@PAXPAUsetRep_struct@1@PAX4@Z 
01:00090B88 ?_get_nd_rep@redBlackSet@@SAXQAVrTypeLibrary@TypeLibraries@RunTime@VIP@@PAUsetRep_struct@1@PAXPAPAX@Z 
01:00090C1C ?_upFrom_nd_rep@redBlackSet@@SAXQAVrTypeLibrary@TypeLibraries@RunTime@VIP@@XPAXPAUsetRep_struct@1@PAXPAPAX@Z 
01:00090CA8 ?_upFrom_nd_rep1@redBlackSet@@SAXQAVrTypeLibrary@TypeLibraries@RunTime@VIP@@XPAUcompareResult_struct@_builtIn@@PAXPAUsetRep_struct@1@PAXPAX4PAPAX@Z 
01:00090D5C ?_downFrom_nd_rep@redBlackSet@@SAXQAVrTypeLibrary@TypeLibraries@RunTime@VIP@@XPAXPAUsetRep_struct@1@PAXPAPAX@Z 
01:00090DE8 ?_downFrom_nd_rep1@redBlackSet@@SAXQAVrTypeLibrary@TypeLibraries@RunTime@VIP@@XPAUcompareResult_struct@_builtIn@@PAXPAUsetRep_struct@1@PAXPAX4PAPAX@Z 
01:00090E9C ?_insert_rep@redBlackSet@@SAXQAVrTypeLibrary@TypeLibraries@RunTime@VIP@@XPAXPAUsetRep_struct@1@PAXPAPAU21@PAPAX@Z 
01:00090EF4 ?_tryIns@redBlackSet@@SAXQAVrTypeLibrary@TypeLibraries@RunTime@VIP@@XPAXPAUsetRep_struct@1@PAXPAPAU21@PAPAX@Z 
01:00091038 ?_tryIns_black@redBlackSet@@SAXQAVrTypeLibrary@TypeLibraries@RunTime@VIP@@XPAUcompareResult_struct@_builtIn@@PAXPAUsetRep_struct@1@PAXPAX4PAPAU41@PAPAX@Z 
01:000910CC ?_tryIns_red@redBlackSet@@SAXQAVrTypeLibrary@TypeLibraries@RunTime@VIP@@XPAUcompareResult_struct@_builtIn@@PAXPAUsetRep_struct@1@PAXPAX4PAPAU41@PAPAX@Z 
01:00091190 ?_balance@redBlackSet@@SAXQAVrTypeLibrary@TypeLibraries@RunTime@VIP@@PAUsetRep_struct@1@PAXPAX1PAPAU21@PAPAX@Z 
01:00092358 ?_makeblack@redBlackSet@@SAXQAVrTypeLibrary@TypeLibraries@RunTime@VIP@@PAUsetRep_struct@1@PAXPAPAU21@PAPAX@Z 
01:000923C8 ?_delete_rep@redBlackSet@@SAXQAVrTypeLibrary@TypeLibraries@RunTime@VIP@@XPAXPAUsetRep_struct@1@PAXPAPAU21@PAPAX@Z 
01:00092418 ?del@redBlackSet@@SAXQAVrTypeLibrary@TypeLibraries@RunTime@VIP@@XPAXPAUsetRep_struct@1@PAXPAPAU21@PAPAXPAPAUboolean_struct@_builtIn@@@Z 
01:000924C4 ?del1@redBlackSet@@SAXQAVrTypeLibrary@TypeLibraries@RunTime@VIP@@XPAUcompareResult_struct@_builtIn@@PAXPAUsetRep_struct@1@PAXPAX4PAPAU41@PAPAXPAPAUboolean_struct@3@@Z 
01:00092558 ?delLeft@redBlackSet@@SAXQAVrTypeLibrary@TypeLibraries@RunTime@VIP@@XPAXPAUsetRep_struct@1@PAXPAX3PAPAU21@PAPAXPAPAUboolean_struct@_builtIn@@@Z 
01:0009260C ?delRight@redBlackSet@@SAXQAVrTypeLibrary@TypeLibraries@RunTime@VIP@@XPAXPAUsetRep_struct@1@PAXPAX3PAPAU21@PAPAXPAPAUboolean_struct@_builtIn@@@Z 
01:000926C8 ?_balLeft@redBlackSet@@SAXQAVrTypeLibrary@TypeLibraries@RunTime@VIP@@PAUsetRep_struct@1@PAXPAX1PAPAU21@PAPAX@Z 
01:00092A4C ?_balRight@redBlackSet@@SAXQAVrTypeLibrary@TypeLibraries@RunTime@VIP@@PAUsetRep_struct@1@PAXPAX1PAPAU21@PAPAX@Z 
01:00092DCC ?_sub1@redBlackSet@@SAXQAVrTypeLibrary@TypeLibraries@RunTime@VIP@@PAUsetRep_struct@1@PAXPAPAU21@PAPAX@Z 
01:00092E68 ?_mkNode@redBlackSet@@SAXQAVrTypeLibrary@TypeLibraries@RunTime@VIP@@PAUsetRep_struct@1@PAX1PAPAU21@PAPAX@Z 
01:000930E0 ?_mkNodeRR_BC@redBlackSet@@SAXQAVrTypeLibrary@TypeLibraries@RunTime@VIP@@PAUsetRep_struct@1@PAXPAX1PAX1PAPAU21@PAPAX@Z 
01:0009322C ?_mkNodeBB_BC@redBlackSet@@SAXQAVrTypeLibrary@TypeLibraries@RunTime@VIP@@PAUsetRep_struct@1@PAXPAX1PAX1PAPAU21@PAPAX@Z 
01:00093348 ?classInfo@redBlackSet@@SAXPAPB_W0@Z 
--- From 'Obj\registry_api.CA39E249.obj'
01:00093370 ?_regOpenKeyEx@registry_api@@SAXPBUhkey@@PB_WIAAU2@@Z 
01:000933B8 ?_regTryOpenKeyEx@registry_api@@SAXPBUhkey@@PB_WIAAU2@@Z 
01:000933E0 ?regCloseKey@registry_api@@SAXPBUhkey@@@Z 
01:00093470 ?_regCreateKeyEx@registry_api@@SAXPBUhkey@@PB_WIIPAUsecurityAttr_struct@registry_native@@PAIAAU2@@Z 
01:000934B8 ?regDeleteKey@registry_api@@SAXPBUhkey@@PB_W@Z 
01:000934F8 ?_regEnumKeyEx@registry_api@@SAXPBUhkey@@PAPAU?$__list_struct@Ustring@@@@@Z 
01:00093590 ?_regEnumKeyEx1@registry_api@@SAXPBUhKey@@IPB_WIPAPAU?$__list_struct@Ustring@@@@@Z 
01:0009360C ?_tryRegEnumKeyExOne@registry_api@@SAXPBUhKey@@IPB_WIPAPB_W@Z 
01:00093748 ?regSetValueEx@registry_api@@SAXPBUhkey@@PB_WPAUvalue_struct@core@@@Z 
01:000937B8 ?_regQueryValueEx@registry_api@@SAXPBUhkey@@PB_WPAPAUvalue_struct@core@@@Z 
01:0009381C ?_regTryQueryValueEx@registry_api@@SAXPBUhkey@@PB_WPAPAUvalue_struct@core@@@Z 
01:00093870 ?_regQueryValueEx1@registry_api@@SAXPBUhKey@@PB_WPAUpUnsigned_struct@memory@@PAPAUvalue_struct@core@@@Z 
01:0009390C ?regDeleteValue@registry_api@@SAXPBUhkey@@PB_W@Z 
01:00093940 ?_regEnumValue@registry_api@@SAXPBUhkey@@PAPAU?$__list_struct@UnamedValue@@@@@Z 
01:000939D8 ?_regEnumValue1@registry_api@@SAXPBUhKey@@IPB_WIPAPAU?$__list_struct@UnamedValue@@@@@Z 
01:00093A54 ?_tryRegEnumValueOne@registry_api@@SAXPBUhKey@@IPB_WIPAPAUnamedValue_struct@core@@@Z 
01:00093DC8 ?_packValue@registry_api@@SAXIPAXPBUbyteCount@@PAPAUvalue_struct@core@@@Z 
01:00094060 ?unpackValue@registry_api@@SAXPAUvalue_struct@core@@PAIPAPAXAAUbyteCount@@@Z 
01:000943EC ?_convertToStringList@registry_api@@SAXPAXPBUbyteCount@@PAPAU?$__list_struct@Ustring@@@@@Z 
01:000944A4 ?_mk_pUnsigned@registry_api@@SAXIPAPAUpUnsigned_struct@memory@@@Z 
01:000944C8 ?_getInteger@registry_api@@SAXPAUpUnsigned_struct@memory@@PAH@Z 
01:000944DC ?_getUnsigned@registry_api@@SAXPAUpUnsigned_struct@memory@@AAUbyteCount@@@Z 
01:000944F0 ?check_name_value@registry_api@@SAXIPB_W1PAUvalue_struct@core@@@Z 
01:000945A4 ?check_name@registry_api@@SAXIPB_W1@Z 
01:00094628 ?check@registry_api@@SAXIPB_WPAU?$__list_struct@UnamedValue@@@@@Z 
01:00094650 ?classInfo@registry_api@@SAXPAPB_W0@Z 
--- From 'Obj\DataBase.D5FA3BBF.obj'
01:00094670 ?classInfo@dataBase@@SAXPAPB_W0@Z  (Idle)
--- From 'Obj\Forms.80533223.obj'
01:0009468C ?addPatronPID@dataBase@@SAXHPANPANPANPB_W4HPANPANPAN44HPAN44HPAN44HPAN44HPAN44HPAN44HPAN44@Z 
--- From 'Obj\DataBase.D5FA3BBF.obj'
01:00095418 ?recoverPatronPID@dataBase@@SAXXZ 
01:00095604 ?new@dataBase@@SAXQAV1@@@Z 
01:0009560C ?_new@dataBase@@SAXPAPAV1@@@Z  (Idle)
01:0009563C dataBase?_initObject@@@QAGXQAV1@H@Z 
01:0009564C ?@create_object@dataBase@@SGQAV1@@XZ 
01:00095668 dataBase?_InternalFinalizer@@@QAGXQAV1@@Z 
--- From 'Obj\Forms.80533223.obj'
01:00095680 ?classInfo@visualizeResults@@SAXPAPB_W0@Z  (Idle)
01:0009569C ?_display@visualizeResults@@SAXQAVwindow@@@PAPAV1@@@Z  (Idle)
01:000956C4 ?new@visualizeResults@@SAXQAV1@@QAVwindow@@@@Z 
01:000956E4 ?_onOkClick@visualizeResults@@SAXQAV1@@QAVbutton@@@PAPAUactionResponse_struct@3@@Z 
01:000956F8 ?_onPushButtonClick@visualizeResults@@SAXQAV1@@QAVbutton@@@PAPAUactionResponse_struct@3@@Z 
01:0009570C ?generatedInitialize@visualizeResults@@SAXQAV1@@@Z 
01:00095D60 ?_new@visualizeResults@@SAXQAVwindow@@@PAPAV1@@@Z 
01:00095D88 ?classInfo@factor@@SAXPAPB_W0@Z  (Idle)
01:00095DA4 ?_display@factor@@SAXQAVwindow@@@PAPAV1@@@Z  (Idle)
01:00095DCC ?new@factor@@SAXQAV1@@QAVwindow@@@@Z 
01:00095DEC ?_onPushButtonClick@factor@@SAXQAV1@@QAVbutton@@@PAPAUactionResponse_struct@3@@Z 
01:00095EF0 ?generatedInitialize@factor@@SAXQAV1@@@Z 
01:000962DC ?_new@factor@@SAXQAVwindow@@@PAPAV1@@@Z 
01:00096304 ?classInfo@efectoGlobal@@SAXPAPB_W0@Z  (Idle)
01:00096320 ?_display@efectoGlobal@@SAXQAVwindow@@@PAPAV1@@@Z  (Idle)
01:00096348 ?new@efectoGlobal@@SAXQAV1@@QAVwindow@@@@Z 
01:00096368 ?_onPushButtonClick@efectoGlobal@@SAXQAV1@@QAVbutton@@@PAPAUactionResponse_struct@3@@Z 
01:00096550 ?generatedInitialize@efectoGlobal@@SAXQAV1@@@Z 
01:00096A5C ?_new@efectoGlobal@@SAXQAVwindow@@@PAPAV1@@@Z 
01:00096A84 ?classInfo@disyuncionHechos@@SAXPAPB_W0@Z  (Idle)
01:00096AA0 ?_display@disyuncionHechos@@SAXQAVwindow@@@PAPAV1@@@Z  (Idle)
01:00096AC8 ?new@disyuncionHechos@@SAXQAV1@@QAVwindow@@@@Z 
01:00096AE8 ?_onPushButtonClick@disyuncionHechos@@SAXQAV1@@QAVbutton@@@PAPAUactionResponse_struct@3@@Z 
01:00096CD4 ?generatedInitialize@disyuncionHechos@@SAXQAV1@@@Z 
01:00097204 ?_new@disyuncionHechos@@SAXQAVwindow@@@PAPAV1@@@Z 
01:0009722C ?classInfo@contribucionProporcional@@SAXPAPB_W0@Z  (Idle)
01:00097248 ?_display@contribucionProporcional@@SAXQAVwindow@@@PAPAV1@@@Z  (Idle)
01:00097270 ?new@contribucionProporcional@@SAXQAV1@@QAVwindow@@@@Z 
01:00097290 ?_onPushButtonClick@contribucionProporcional@@SAXQAV1@@QAVbutton@@@PAPAUactionResponse_struct@3@@Z 
01:0009767C ?generatedInitialize@contribucionProporcional@@SAXQAV1@@@Z 
01:00098154 ?_new@contribucionProporcional@@SAXQAVwindow@@@PAPAV1@@@Z 
01:0009817C ?classInfo@conjuncionHechos@@SAXPAPB_W0@Z  (Idle)
01:00098198 ?_display@conjuncionHechos@@SAXQAVwindow@@@PAPAV1@@@Z  (Idle)
01:000981C0 ?new@conjuncionHechos@@SAXQAV1@@QAVwindow@@@@Z 
01:000981E0 ?_onCalcularButtonClick@conjuncionHechos@@SAXQAV1@@QAVbutton@@@PAPAUactionResponse_struct@3@@Z 
01:000983CC ?generatedInitialize@conjuncionHechos@@SAXQAV1@@@Z 
01:000988F0 ?_new@conjuncionHechos@@SAXQAVwindow@@@PAPAV1@@@Z 
01:00098918 ?classInfo@addPIPattern@@SAXPAPB_W0@Z  (Idle)
01:00098934 ?_display@addPIPattern@@SAXQAVwindow@@@PAPAV1@@@Z  (Idle)
01:0009895C ?new@addPIPattern@@SAXQAV1@@QAVwindow@@@@Z 
01:0009897C ?_onOkClick@addPIPattern@@SAXQAV1@@QAVbutton@@@PAPAUactionResponse_struct@3@@Z 
01:00099440 ?generatedInitialize@addPIPattern@@SAXQAV1@@@Z 
01:0009C2CC ?_new@addPIPattern@@SAXQAVwindow@@@PAPAV1@@@Z 
01:0009E8AC visualizeResults?_initObject@@@QAGXQAV1@H@Z 
01:0009E8E4 ?@create_object@visualizeResults@@SGQAV1@@XZ 
01:0009E900 visualizeResults?_InternalFinalizer@@@QAGXQAV1@@Z 
01:000A0EB8 factor?_initObject@@@QAGXQAV1@H@Z 
01:000A0EF0 ?@create_object@factor@@SGQAV1@@XZ 
01:000A0F0C factor?_InternalFinalizer@@@QAGXQAV1@@Z 
01:000A34C4 efectoGlobal?_initObject@@@QAGXQAV1@H@Z 
01:000A34FC ?@create_object@efectoGlobal@@SGQAV1@@XZ 
01:000A3518 efectoGlobal?_InternalFinalizer@@@QAGXQAV1@@Z 
01:000A5AD0 disyuncionHechos?_initObject@@@QAGXQAV1@H@Z 
01:000A5B08 ?@create_object@disyuncionHechos@@SGQAV1@@XZ 
01:000A5B24 disyuncionHechos?_InternalFinalizer@@@QAGXQAV1@@Z 
01:000A80DC contribucionProporcional?_initObject@@@QAGXQAV1@H@Z 
01:000A8114 ?@create_object@contribucionProporcional@@SGQAV1@@XZ 
01:000A8130 contribucionProporcional?_InternalFinalizer@@@QAGXQAV1@@Z 
01:000AA6E8 conjuncionHechos?_initObject@@@QAGXQAV1@H@Z 
01:000AA720 ?@create_object@conjuncionHechos@@SGQAV1@@XZ 
01:000AA73C conjuncionHechos?_InternalFinalizer@@@QAGXQAV1@@Z 
01:000ABFE4 addPIPattern?_initObject@@@QAGXQAV1@H@Z 
01:000AC01C ?@create_object@addPIPattern@@SGQAV1@@XZ 
01:000AC038 addPIPattern?_InternalFinalizer@@@QAGXQAV1@@Z 
--- From 'Obj\ESEngineeringMachine.445B6113.obj'
01:000AC050 ?classInfo@eSEngineeringMachine@@SAXPAPB_W0@Z  (Idle)
01:000AC06C ?goalDiagnosticoFugaTomaC@eSEngineeringMachine@@SAXXZ 
01:000AC144 ?recolectaHechosContribucionDeteccion@eSEngineeringMachine@@SAXXZ 
01:000AC218 ?recolectaHechosContribucionPrevencion@eSEngineeringMachine@@SAXXZ 
01:000AC2EC ?recolectaHechosContribucionRiesgo@eSEngineeringMachine@@SAXXZ 
01:000AC3C0 ?new@eSEngineeringMachine@@SAXQAV1@@@Z 
01:000AC3C8 ?_new@eSEngineeringMachine@@SAXPAPAV1@@@Z  (Idle)
01:000AC3F8 eSEngineeringMachine?_initObject@@@QAGXQAV1@H@Z 
01:000AC408 ?@create_object@eSEngineeringMachine@@SGQAV1@@XZ 
01:000AC424 eSEngineeringMachine?_InternalFinalizer@@@QAGXQAV1@@Z 
--- From '.\releasepe\VIPDll.obj'
01:000AC430 _PROLOG_Goal 
--- From 'Obj\main.A22FE9BF.obj'
01:000AC44C ?classInfo@main@@SAXPAPB_W0@Z  (Idle)
01:000AC468 ?run@main@@SAXXZ 
--- From 'Obj\Toolbars.B027D95B.obj'
01:000AC490 ?classInfo@statusLine@@SAXPAPB_W0@Z  (Idle)
01:000AC4AC ?create@statusLine@@SAXPBUwindowHandle@vpiDomains@@@Z 
01:000AC4D4 ?classInfo@projectToolbar@@SAXPAPB_W0@Z  (Idle)
01:000AC4F0 ?create@projectToolbar@@SAXPBUwindowHandle@vpiDomains@@@Z 
--- From '.\releasepe\VIPMain.obj'
01:000AC520 _VIPStartUp@0  (Idle)
--- From '.\releasepe\VIPDll.obj'
01:000AC590 _VIPSetDllHook@4  (Idle)
01:000AC5B0 ?tryCallHook@VIPDllHook@RunTime@VIP@@QBEHPAXK0@Z 
01:000AC600 ?VIPDllGetHandleModule@RunTime@VIP@@YAPAXXZ 
01:000AC610 _VIPDllMain@12  (Idle)
--- From '.\releasepe\VIPPE.obj'
01:000AC700 ?VIP_PE_Dialog@@YAXXZ 
Frame 0AD000   Size 087B70.  Name=<  .rdata>, 	Chars=40000040h. [IR]
0AD000:000000 0083DC   .rdata::.rdata::.rdata F=4
--- From '.\releasepe\VIPDll.obj'
02:000B4FB8 _VIPStartOfDictionary 
--- From '.\releasepe\VIPPE.obj'
02:000B5330 ??_C@_0JO@IKLJBBEK@This?5application?5is?5created?5with@ 
02:000B53D0 ??_C@_0L@DLNDOIBH@Attention?$CB?$AA@ 
0AD000:0083E0 064B20   VIPClass::VIPClass::.rdata F=4
--- From 'Obj\TaskWindow.3D15576A.obj'
02:000B53E0 class$aboutDialog 
02:000B7124 class$aboutDialog$vtable$  (Idle)
02:000B78C0 class$taskWindow 
02:000B8C8C class$taskWindow$vtable$  (Idle)
--- From 'Obj\ESKnowledgeBase.E3D90F95.obj'
02:000B90B0 class$certainFactor 
02:000B9114 class$certainFactor$vtable$ 
02:000B9200 class$eSKnowledgeBase 
02:000B946C class$eSKnowledgeBase$vtable$ 
--- From 'Obj\exe.3FA7EDB2.obj'
02:000B9640 class$mainExe 
02:000B9678 $runMode$mainExe$0$domain$ 
02:000B9694 $runMode$mainExe$0$domain$$type_library$ 
--- From 'Obj\core.9AB527C6.obj'
02:000B97B0 class$core 
--- From 'Obj\memory.D6D750BE.obj'
02:000B97CC $unsigned8$core$0$domain$ 
--- From 'Obj\vpiEditor.ADC33AAB.obj'
02:000B97E4 $unsigned8$core$0$domain$$type_library$ 
--- From 'Obj\memory.D6D750BE.obj'
02:000B97E8 $unsigned16$core$0$domain$ 
--- From 'Obj\multiThread_api.6CAB3B1E.obj'
02:000B9800 $unsigned16$core$0$domain$$type_library$ 
--- From 'Obj\gui.B1A70004.obj'
02:000B9804 $unsigned32$core$0$domain$ 
--- From 'Obj\ESEngineeringMachine.445B6113.obj'
02:000B981C $unsigned32$core$0$domain$$type_library$ 
--- From 'Obj\fileSystem.D4345F5C.obj'
02:000B9830 $unsigned64_struct$core$0$domain$ 
--- From 'Obj\core.9AB527C6.obj'
02:000B9848 $unsigned64_struct$core$0$domain$$type_library$  (Idle)
02:000B984C $integer8$core$0$domain$ 
--- From 'Obj\memory.D6D750BE.obj'
02:000B9864 $integer8$core$0$domain$$type_library$ 
--- From 'Obj\gui_api.12FAE6A8.obj'
02:000B9868 $integer16$core$0$domain$ 
02:000B9880 $integer16$core$0$domain$$type_library$ 
--- From 'Obj\core.9AB527C6.obj'
02:000B9884 $integer32$core$0$domain$ 
--- From 'Obj\time_api.885A9F6D.obj'
02:000B989C $integer32$core$0$domain$$type_library$ 
--- From 'Obj\fileSystem.D4345F5C.obj'
02:000B98B0 $integer64_struct$core$0$domain$ 
--- From 'Obj\core.9AB527C6.obj'
02:000B98C8 $integer64_struct$core$0$domain$$type_library$  (Idle)
--- From 'Obj\registry_api.CA39E249.obj'
02:000B98DC $namedValue$core$0$domain$ 
--- From 'Obj\registry.7837C76D.obj'
02:000B98F4 $namedValue$core$0$domain$$type_library$ 
--- From 'Obj\core.9AB527C6.obj'
02:000B9914 $codePage$core$0$domain$ 
--- From 'Obj\ESEngineeringMachine.445B6113.obj'
02:000B9934 $codePage$core$0$domain$$type_library$ 
--- From 'Obj\core.9AB527C6.obj'
02:000B9938 $classInfo$core$0$domain$ 
02:000B9948 $classInfo$core$0$domain$$type_library$  (Idle)
02:000B994C $exception$core$0$domain$ 
02:000B995C $exception$core$0$domain$$type_library$  (Idle)
02:000B99B0 $nativeGuid$core$0$domain$ 
02:000B99C8 $nativeGuid$core$0$domain$$type_library$  (Idle)
02:000B99CC $byteCountOptional$core$0$domain$ 
02:000B99E4 $byteCountOptional$core$0$domain$$type_library$  (Idle)
--- From 'Obj\registry_api.CA39E249.obj'
02:000B99E8 $byteCount$core$0$domain$ 
--- From 'Obj\Shell_api.FF07D5B3.obj'
02:000B9A00 $byteCount$core$0$domain$$type_library$ 
--- From 'Obj\core.9AB527C6.obj'
02:000B9A04 $charCountOptional$core$0$domain$ 
02:000B9A1C $charCountOptional$core$0$domain$$type_library$  (Idle)
--- From 'Obj\registry_api.CA39E249.obj'
02:000B9A20 $charCount$core$0$domain$ 
--- From 'Obj\memory.D6D750BE.obj'
02:000B9A38 $charCount$core$0$domain$$type_library$ 
--- From 'Obj\core.9AB527C6.obj'
02:000B9A3C $positiveOptional$core$0$domain$ 
02:000B9A54 $positiveOptional$core$0$domain$$type_library$  (Idle)
--- From 'Obj\gui_api.12FAE6A8.obj'
02:000B9A58 $positive$core$0$domain$ 
02:000B9A70 $positive$core$0$domain$$type_library$ 
--- From 'Obj\redBlackTree.DD02B175.obj'
02:000B9A84 $tuple$core$2$domain$ 
--- From 'Obj\list.31E92F83.obj'
02:000B9AB0 $tuple$core$3$domain$ 
--- From 'Obj\controlSupport.99797704.obj'
02:000B9AE0 $tuple$core$4$domain$ 
--- From 'Obj\core.9AB527C6.obj'
02:000B9B14 $tuple$core$5$domain$ 
02:000B9B4C $tuple$core$6$domain$ 
02:000B9B88 $tuple$core$7$domain$ 
02:000B9BC8 $tuple$core$8$domain$ 
02:000B9C0C $tuple$core$9$domain$ 
02:000B9C54 $tuple$core$10$domain$ 
02:000B9CA0 $tuple$core$11$domain$ 
02:000B9CF0 $tuple$core$12$domain$ 
--- From 'Obj\outputStreamSupport.2B16F673.obj'
02:000B9D1C $optional$core$1$domain$ 
--- From 'Obj\core.9AB527C6.obj'
02:000B9D38 $function$core$1$domain$ 
02:000B9D48 $function$core$1$domain$$type_library$  (Idle)
02:000B9D4C $function$core$2$domain$ 
02:000B9D5C $function$core$2$domain$$type_library$  (Idle)
02:000B9D60 $function$core$3$domain$ 
--- From 'Obj\redBlackSet.ACE22A48.obj'
02:000B9D70 $function$core$3$domain$$type_library$ 
--- From 'Obj\core.9AB527C6.obj'
02:000B9D74 $function$core$4$domain$ 
02:000B9D84 $function$core$4$domain$$type_library$  (Idle)
02:000B9D88 $function$core$5$domain$ 
02:000B9D98 $function$core$5$domain$$type_library$  (Idle)
02:000B9D9C $function$core$6$domain$ 
02:000B9DAC $function$core$6$domain$$type_library$  (Idle)
02:000B9DB0 $predicate$core$0$domain$ 
--- From 'Obj\multiThread.F1B93BE6.obj'
02:000B9DC0 $predicate$core$0$domain$$type_library$ 
--- From 'Obj\core.9AB527C6.obj'
02:000B9DC4 $predicate$core$1$domain$ 
--- From 'Obj\outputStreamSupport.2B16F673.obj'
02:000B9DD4 $predicate$core$1$domain$$type_library$ 
--- From 'Obj\core.9AB527C6.obj'
02:000B9DD8 $predicate$core$2$domain$ 
02:000B9DE8 $predicate$core$2$domain$$type_library$  (Idle)
02:000B9DEC $predicate$core$3$domain$ 
02:000B9DFC $predicate$core$3$domain$$type_library$  (Idle)
02:000B9E00 $predicate$core$4$domain$ 
02:000B9E10 $predicate$core$4$domain$$type_library$  (Idle)
02:000B9E14 $predicate$core$5$domain$ 
02:000B9E24 $predicate$core$5$domain$$type_library$  (Idle)
02:000B9E28 $predicate_dt$core$0$domain$ 
02:000B9E38 $predicate_dt$core$0$domain$$type_library$  (Idle)
02:000B9E3C $predicate_dt$core$1$domain$ 
02:000B9E4C $predicate_dt$core$1$domain$$type_library$  (Idle)
02:000B9E50 $predicate_dt$core$2$domain$ 
02:000B9E60 $predicate_dt$core$2$domain$$type_library$  (Idle)
02:000B9E64 $predicate_dt$core$3$domain$ 
02:000B9E74 $predicate_dt$core$3$domain$$type_library$  (Idle)
02:000B9E78 $predicate_dt$core$4$domain$ 
02:000B9E88 $predicate_dt$core$4$domain$$type_library$  (Idle)
02:000B9E8C $predicate_dt$core$5$domain$ 
02:000B9E9C $predicate_dt$core$5$domain$$type_library$  (Idle)
02:000B9EA0 $comparator$core$1$domain$ 
02:000B9EB0 $comparator$core$1$domain$$type_library$  (Idle)
02:000B9EB4 $comparator$core$2$domain$ 
02:000B9EC4 $comparator$core$2$domain$$type_library$  (Idle)
02:000B9EC8 $sortOrder$core$0$domain$ 
02:000B9EE4 $sortOrder$core$0$domain$$type_library$  (Idle)
--- From 'Obj\registry_api.CA39E249.obj'
02:000B9FB0 $value$core$0$domain$ 
--- From 'Obj\core.9AB527C6.obj'
02:000BA008 $value$core$0$domain$$type_library$ 
02:000BA020 $sourceCursor$core$0$domain$ 
02:000BA038 $sourceCursor$core$0$domain$$type_library$  (Idle)
--- From 'Obj\exception.EF1B34A0.obj'
02:000BA4A0 class$common_exception 
02:000BA530 class$errorDescriptorInformation 
02:000BA644 class$errorDescriptorInformation$vtable$ 
02:000BA860 class$exception 
02:000BA87C $kind$exception$0$domain$ 
--- From 'Obj\exceptionDump.EEBF2A9C.obj'
02:000BA898 $kind$exception$0$domain$$type_library$ 
--- From 'Obj\exception.EF1B34A0.obj'
02:000BA8AC $classInfoDescriptor$exception$0$domain$ 
02:000BA8C4 $classInfoDescriptor$exception$0$domain$$type_library$ 
02:000BA8DC $exceptionDescriptor$exception$0$domain$ 
02:000BA8F4 $exceptionDescriptor$exception$0$domain$$type_library$ 
02:000BA938 $descriptor$exception$0$domain$ 
02:000BA950 $descriptor$exception$0$domain$$type_library$ 
02:000BA978 $traceInfo$exception$0$domain$ 
--- From 'Obj\errorPresentationDialog.9174D14B.obj'
02:000BA990 $traceInfo$exception$0$domain$$type_library$ 
--- From 'Obj\exception.EF1B34A0.obj'
02:000BA9B4 $lineInfo$exception$0$domain$ 
--- From 'Obj\exceptionDump.EEBF2A9C.obj'
02:000BA9D0 $lineInfo$exception$0$domain$$type_library$ 
--- From 'Obj\exception.EF1B34A0.obj'
02:000BAB70 class$exception_exception 
02:000BAC00 class$runtime_exception 
--- From 'Obj\controls.F62EA529.obj'
02:000BAC90 class$button 
02:000BBB1C class$button$vtable$ 
02:000BC000 class$checkButton 
02:000BCDF0 class$checkButton$vtable$ 
02:000BD1F0 class$containerControl 
02:000BF624 class$containerControl$vtable$  (Idle)
02:000C0040 class$control_exception 
02:000C00D0 class$editControl 
02:000C0F48 class$editControl$vtable$ 
02:000C1500 class$groupBox 
02:000C3250 class$groupBox$vtable$  (Idle)
02:000C3A90 class$iconControl 
02:000C57B0 class$iconControl$vtable$  (Idle)
02:000C5F60 class$integerControl 
02:000C7248 class$integerControl$vtable$ 
02:000C7830 class$listBox 
02:000C8A00 class$listBox$vtable$ 
02:000C8EA0 class$listButton 
02:000CA080 class$listButton$vtable$ 
02:000CA490 class$listControl 
02:000CB368 class$listControl$vtable$ 
02:000CB8C0 class$listEdit 
02:000CD21C class$listEdit$vtable$  (Idle)
02:000CDB80 class$radioButton 
02:000CE988 class$radioButton$vtable$ 
02:000CED70 class$radioButtonGroup 
02:000CEE1C class$radioButtonGroup$vtable$ 
02:000CF000 class$realControl 
02:000D02E8 class$realControl$vtable$ 
02:000D08B0 class$scrollControl 
02:000D16A4 class$scrollControl$vtable$ 
--- From 'Obj\controlSupport.99797704.obj'
02:000D1A40 class$textControl 
02:000D2838 class$textControl$vtable$ 
--- From 'Obj\controls.F62EA529.obj'
02:000D2BE0 class$timerControl 
02:000D3B50 class$timerControl$vtable$  (Idle)
02:000D3FA0 class$versionControl 
02:000D4EA4 class$versionControl$vtable$ 
--- From 'Obj\gui.B1A70004.obj'
02:000D5250 class$applicationWindow 
02:000D6520 class$applicationWindow$vtable$ 
02:000D6A20 class$childWindow 
02:000D79D8 class$childWindow$vtable$ 
--- From 'Obj\Forms.80533223.obj'
02:000D7D10 class$dialog 
02:000D993C class$dialog$vtable$ 
--- From 'Obj\gui.B1A70004.obj'
02:000DA320 class$documentWindow 
02:000DB4F4 class$documentWindow$vtable$ 
--- From 'Obj\controlSupport.99797704.obj'
02:000DBAF0 class$drawWindow 
02:000DC758 class$drawWindow$vtable$ 
--- From 'Obj\Forms.80533223.obj'
02:000DCFD0 class$formWindow 
02:000DED50 class$formWindow$vtable$ 
--- From 'Obj\gui.B1A70004.obj'
02:000DFB60 class$frameDecoration 
02:000DFBDC class$frameDecoration$vtable$ 
02:000DFD00 class$gui_exception 
02:000DFD70 class$pictureCanvas 
02:000DFE1C class$pictureCanvas$vtable$  (Idle)
02:000E0550 class$popupWindow 
02:000E1DC8 class$popupWindow$vtable$  (Idle)
--- From 'Obj\controlSupport.99797704.obj'
02:000E2770 class$window 
02:000E2D70 class$window$vtable$ 
02:000E3AB0 class$containerWindowSupport 
02:000E3BE0 class$containerWindowSupport$vtable$ 
--- From 'Obj\guiSupport.38798E3B.obj'
02:000E3ED0 class$guiSupport_exception 
--- From 'Obj\programControl.5C33CA36.obj'
02:000E3F70 class$programControl 
02:000E3F8C $exceptionRaiser$programControl$0$domain$ 
02:000E3F9C $exceptionRaiser$programControl$0$domain$$type_library$ 
--- From 'Obj\vpiDomains.B56FBBDF.obj'
02:000E4080 class$vpiDomains 
--- From 'Obj\gui_api.12FAE6A8.obj'
02:000E40AC $pnt$vpiDomains$0$domain$ 
--- From 'Obj\ESEngineeringMachine.445B6113.obj'
02:000E40C4 $pnt$vpiDomains$0$domain$$type_library$ 
--- From 'Obj\controlSupport.99797704.obj'
02:000E40E0 $rct$vpiDomains$0$domain$ 
--- From 'Obj\ESEngineeringMachine.445B6113.obj'
02:000E40F8 $rct$vpiDomains$0$domain$$type_library$ 
--- From 'Obj\vpiToolbar.CEE9D0A0.obj'
02:000E410C $brush$vpiDomains$0$domain$ 
--- From 'Obj\vpiDomains.B56FBBDF.obj'
02:000E4124 $brush$vpiDomains$0$domain$$type_library$ 
--- From 'Obj\vpiToolbar.CEE9D0A0.obj'
02:000E413C $pen$vpiDomains$0$domain$ 
--- From 'Obj\vpiDomains.B56FBBDF.obj'
02:000E4154 $pen$vpiDomains$0$domain$$type_library$ 
--- From 'Obj\vpiToolbar.CEE9D0A0.obj'
02:000E417C $drawtools$vpiDomains$0$domain$ 
--- From 'Obj\vpiDomains.B56FBBDF.obj'
02:000E4194 $drawtools$vpiDomains$0$domain$$type_library$  (Idle)
--- From 'Obj\messageControl.CCD407ED.obj'
02:000E41C0 $menu$vpiDomains$0$domain$ 
--- From 'Obj\vpiDomains.B56FBBDF.obj'
02:000E41E0 $menu$vpiDomains$0$domain$$type_library$ 
02:000E41E4 $keyModifier$vpiDomains$0$domain$ 
02:000E41FC $keyModifier$vpiDomains$0$domain$$type_library$ 
02:000E4218 $acceleratorKey$vpiDomains$0$domain$ 
02:000E4234 $acceleratorKey$vpiDomains$0$domain$$type_library$ 
--- From 'Obj\messageControl.CCD407ED.obj'
02:000E4294 $menuItem$vpiDomains$0$domain$ 
--- From 'Obj\vpiDomains.B56FBBDF.obj'
02:000E42B8 $menuItem$vpiDomains$0$domain$$type_library$ 
--- From 'Obj\controlSupport.99797704.obj'
02:000E44E0 $event$vpiDomains$0$domain$ 
--- From 'Obj\vpiDomains.B56FBBDF.obj'
02:000E4580 $event$vpiDomains$0$domain$$type_library$ 
02:000E4598 $handledFlag$vpiDomains$0$domain$ 
02:000E45B4 $handledFlag$vpiDomains$0$domain$$type_library$  (Idle)
02:000E45B8 $createHandler$vpiDomains$0$domain$ 
02:000E45C8 $createHandler$vpiDomains$0$domain$$type_library$  (Idle)
02:000E45CC $destroyHandler$vpiDomains$0$domain$ 
02:000E45DC $destroyHandler$vpiDomains$0$domain$$type_library$  (Idle)
02:000E45E0 $getFocusHandler$vpiDomains$0$domain$ 
02:000E45F0 $getFocusHandler$vpiDomains$0$domain$$type_library$  (Idle)
02:000E45F4 $loseFocusHandler$vpiDomains$0$domain$ 
02:000E4604 $loseFocusHandler$vpiDomains$0$domain$$type_library$  (Idle)
02:000E4608 $sizeHandler$vpiDomains$0$domain$ 
02:000E4618 $sizeHandler$vpiDomains$0$domain$$type_library$  (Idle)
02:000E461C $moveHandler$vpiDomains$0$domain$ 
02:000E462C $moveHandler$vpiDomains$0$domain$$type_library$  (Idle)
02:000E4630 $updateHandler$vpiDomains$0$domain$ 
02:000E4640 $updateHandler$vpiDomains$0$domain$$type_library$  (Idle)
02:000E4644 $eraseBackgroundHandler$vpiDomains$0$domain$ 
02:000E4654 $eraseBackgroundHandler$vpiDomains$0$domain$$type_library$  (Idle)
02:000E4658 $closeRequestHandler$vpiDomains$0$domain$ 
02:000E4668 $closeRequestHandler$vpiDomains$0$domain$$type_library$  (Idle)
02:000E466C $mouseDownHandler$vpiDomains$0$domain$ 
02:000E467C $mouseDownHandler$vpiDomains$0$domain$$type_library$  (Idle)
02:000E4680 $mouseUpHandler$vpiDomains$0$domain$ 
02:000E4690 $mouseUpHandler$vpiDomains$0$domain$$type_library$  (Idle)
02:000E4694 $mouseDblHandler$vpiDomains$0$domain$ 
02:000E46A4 $mouseDblHandler$vpiDomains$0$domain$$type_library$  (Idle)
02:000E46A8 $mouseMoveHandler$vpiDomains$0$domain$ 
02:000E46B8 $mouseMoveHandler$vpiDomains$0$domain$$type_library$  (Idle)
02:000E46BC $charHandler$vpiDomains$0$domain$ 
02:000E46CC $charHandler$vpiDomains$0$domain$$type_library$  (Idle)
02:000E46D0 $keyDownHandler$vpiDomains$0$domain$ 
02:000E46E0 $keyDownHandler$vpiDomains$0$domain$$type_library$  (Idle)
02:000E46E4 $keyUpHandler$vpiDomains$0$domain$ 
02:000E46F4 $keyUpHandler$vpiDomains$0$domain$$type_library$  (Idle)
02:000E46F8 $vScrollHandler$vpiDomains$0$domain$ 
02:000E4708 $vScrollHandler$vpiDomains$0$domain$$type_library$  (Idle)
02:000E470C $hScrollHandler$vpiDomains$0$domain$ 
02:000E471C $hScrollHandler$vpiDomains$0$domain$$type_library$  (Idle)
02:000E4720 $menuItemHandler$vpiDomains$0$domain$ 
02:000E4730 $menuItemHandler$vpiDomains$0$domain$$type_library$  (Idle)
02:000E4734 $initMenuHandler$vpiDomains$0$domain$ 
02:000E4744 $initMenuHandler$vpiDomains$0$domain$$type_library$  (Idle)
02:000E4748 $controlHandler$vpiDomains$0$domain$ 
02:000E4758 $controlHandler$vpiDomains$0$domain$$type_library$  (Idle)
02:000E475C $timerHandler$vpiDomains$0$domain$ 
02:000E476C $timerHandler$vpiDomains$0$domain$$type_library$  (Idle)
02:000E4770 $ownerMeasureItemHandler$vpiDomains$0$domain$ 
02:000E4780 $ownerMeasureItemHandler$vpiDomains$0$domain$$type_library$  (Idle)
02:000E4784 $ownerDrawHandler$vpiDomains$0$domain$ 
02:000E4794 $ownerDrawHandler$vpiDomains$0$domain$$type_library$  (Idle)
02:000E4798 $ddeHandler$vpiDomains$0$domain$ 
02:000E47A8 $ddeHandler$vpiDomains$0$domain$$type_library$  (Idle)
02:000E47AC $endSessionHandler$vpiDomains$0$domain$ 
02:000E47BC $endSessionHandler$vpiDomains$0$domain$$type_library$  (Idle)
02:000E47C0 $nativeHandler$vpiDomains$0$domain$ 
02:000E47D0 $nativeHandler$vpiDomains$0$domain$$type_library$  (Idle)
02:000E47D4 $eventUserHandler$vpiDomains$0$domain$ 
02:000E47E4 $eventUserHandler$vpiDomains$0$domain$$type_library$  (Idle)
02:000E47E8 $endApplicationHandler$vpiDomains$0$domain$ 
02:000E47F8 $endApplicationHandler$vpiDomains$0$domain$$type_library$  (Idle)
02:000E47FC $stateHandler$vpiDomains$0$domain$ 
02:000E480C $stateHandler$vpiDomains$0$domain$$type_library$  (Idle)
02:000E4810 $activateHandler$vpiDomains$0$domain$ 
02:000E4820 $activateHandler$vpiDomains$0$domain$$type_library$  (Idle)
02:000E4824 $deactivateHandler$vpiDomains$0$domain$ 
02:000E4834 $deactivateHandler$vpiDomains$0$domain$$type_library$  (Idle)
02:000E4880 $controlInfo$vpiDomains$0$domain$ 
02:000E48B4 $controlInfo$vpiDomains$0$domain$$type_library$ 
02:000E48F0 $stateInfo$vpiDomains$0$domain$ 
02:000E491C $stateInfo$vpiDomains$0$domain$$type_library$ 
--- From 'Obj\controlSupport.99797704.obj'
02:000E49FC $windef$vpiDomains$0$domain$ 
--- From 'Obj\vpiDomains.B56FBBDF.obj'
02:000E4A30 $windef$vpiDomains$0$domain$$type_library$  (Idle)
--- From 'Obj\controlSupport.99797704.obj'
02:000E4A4C $wdef$vpiDomains$0$domain$ 
--- From 'Obj\vpiDomains.B56FBBDF.obj'
02:000E4A64 $wdef$vpiDomains$0$domain$$type_library$ 
02:000E4A68 $errhandler$vpiDomains$0$domain$ 
02:000E4A78 $errhandler$vpiDomains$0$domain$$type_library$  (Idle)
02:000E4A7C $eHandler$vpiDomains$0$domain$ 
02:000E4A8C $eHandler$vpiDomains$0$domain$$type_library$ 
02:000E4AA4 $accelerator$vpiDomains$0$domain$ 
02:000E4ABC $accelerator$vpiDomains$0$domain$$type_library$  (Idle)
02:000E4AE4 $bitmapId$vpiDomains$0$domain$ 
--- From 'Obj\vpiToolbar.CEE9D0A0.obj'
02:000E4B04 $bitmapId$vpiDomains$0$domain$$type_library$ 
--- From 'Obj\vpiDomains.B56FBBDF.obj'
02:000E4B18 $ddeserviceInfo$vpiDomains$0$domain$ 
02:000E4B30 $ddeserviceInfo$vpiDomains$0$domain$$type_library$  (Idle)
02:000E4B60 $ddedata$vpiDomains$0$domain$ 
02:000E4B84 $ddedata$vpiDomains$0$domain$$type_library$ 
02:000E4C58 $ddeevent$vpiDomains$0$domain$ 
02:000E4CA0 $ddeevent$vpiDomains$0$domain$$type_library$ 
02:000E4CA4 $alignment$vpiDomains$0$domain$ 
02:000E4CC4 $alignment$vpiDomains$0$domain$$type_library$  (Idle)
02:000E5970 class$vpiOwnerDraw 
--- From 'Obj\exe_api.E28F9DF0.obj'
02:000E59F0 class$exe_api 
02:000E5A0C $coInit$exe_api$0$domain$ 
02:000E5A30 $coInit$exe_api$0$domain$$type_library$ 
02:000E5B20 class$exe_native 
02:000E5B80 $shellExecuteInfo$exe_native$0$domain$ 
02:000E5B98 $shellExecuteInfo$exe_native$0$domain$$type_library$  (Idle)
--- From 'Obj\messageControl.CCD407ED.obj'
02:000E5C40 class$messageControl 
02:000E6CD0 class$messageControl$vtable$  (Idle)
02:000E7190 class$messageForm 
02:000E99A8 class$messageForm$vtable$  (Idle)
--- From 'Obj\stream.9636460D.obj'
02:000EA4D0 class$inputStream_null 
02:000EA534 class$inputStream_null$vtable$ 
02:000EA660 class$outputStream_null 
02:000EA6C4 class$outputStream_null$vtable$ 
02:000EA7F0 class$stdio 
02:000EA8B0 class$stdioState 
02:000EA944 class$stdioState$vtable$ 
02:000EAA50 class$stream_exception 
--- From 'Obj\vpi.DCC9845E.obj'
02:000EAAD0 class$vpi 
02:000EABD0 class$vpiCommonDialogs 
02:000EADB0 class$vpiDde 
--- From 'Obj\vpiToolbar.CEE9D0A0.obj'
02:000EAE00 class$vpiToolbar 
02:000EAE58 $style$vpiToolbar$0$domain$ 
02:000EAE84 $style$vpiToolbar$0$domain$$type_library$ 
02:000EAE88 $control_style$vpiToolbar$0$domain$ 
02:000EAEA4 $control_style$vpiToolbar$0$domain$$type_library$ 
02:000EAEA8 $text_style$vpiToolbar$0$domain$ 
02:000EAEC4 $text_style$vpiToolbar$0$domain$$type_library$ 
02:000EAF44 $control$vpiToolbar$0$domain$ 
02:000EAF6C $control$vpiToolbar$0$domain$$type_library$ 
02:000EAFA4 $value$vpiToolbar$0$domain$ 
02:000EAFC8 $value$vpiToolbar$0$domain$$type_library$  (Idle)
02:000EAFCC $actionFunc$vpiToolbar$0$domain$ 
02:000EAFDC $actionFunc$vpiToolbar$0$domain$$type_library$ 
--- From 'Obj\fileSystem_api.42E6F592.obj'
02:000EB710 class$fileSystem_api 
02:000EB72C $fileAttributeAtom$fileSystem_api$0$domain$ 
02:000EB764 $fileAttributeAtom$fileSystem_api$0$domain$$type_library$  (Idle)
02:000EB768 $accessPermit$fileSystem_api$0$domain$ 
02:000EB78C $accessPermit$fileSystem_api$0$domain$$type_library$  (Idle)
02:000EBAC0 class$fileSystem_native 
02:000EBAE8 $pointerToI32$fileSystem_native$0$domain$ 
02:000EBB00 $pointerToI32$fileSystem_native$0$domain$$type_library$  (Idle)
02:000EBB68 $fileInfo$fileSystem_native$0$domain$ 
02:000EBB80 $fileInfo$fileSystem_native$0$domain$$type_library$  (Idle)
02:000EBBD0 $fileAttributesInfo$fileSystem_native$0$domain$ 
02:000EBBE8 $fileAttributesInfo$fileSystem_native$0$domain$$type_library$  (Idle)
02:000EBC60 $win32_find_data$fileSystem_native$0$domain$ 
02:000EBC78 $win32_find_data$fileSystem_native$0$domain$$type_library$  (Idle)
02:000EBC7C $fileAction$fileSystem_native$0$domain$ 
02:000EBCA4 $fileAction$fileSystem_native$0$domain$$type_library$ 
02:000EBCA8 $fileIOCompletionRoutine$fileSystem_native$0$domain$ 
02:000EBCB8 $fileIOCompletionRoutine$fileSystem_native$0$domain$$type_library$  (Idle)
02:000EBCEC $file_notify_information$fileSystem_native$0$domain$ 
02:000EBD04 $file_notify_information$fileSystem_native$0$domain$$type_library$  (Idle)
02:000EBD24 $overlapped$fileSystem_native$0$domain$ 
02:000EBD3C $overlapped$fileSystem_native$0$domain$$type_library$  (Idle)
02:000EBDD8 $openFileName$fileSystem_native$0$domain$ 
02:000EBDF0 $openFileName$fileSystem_native$0$domain$$type_library$  (Idle)
02:000EBDF4 $oFNHookProc$fileSystem_native$0$domain$ 
02:000EBE04 $oFNHookProc$fileSystem_native$0$domain$$type_library$ 
02:000EBE18 $uSE_INFO_0$fileSystem_native$0$domain$ 
02:000EBE30 $uSE_INFO_0$fileSystem_native$0$domain$$type_library$  (Idle)
02:000EBE40 $$inline_260$fileSystem_native$1$domain$ 
02:000EBE64 $$inline_14$fileSystem_native$1$domain$ 
02:000EC1F0 class$lZ_fileSystem_native 
02:000EC240 $ofStruct$lZ_fileSystem_native$0$domain$ 
02:000EC258 $ofStruct$lZ_fileSystem_native$0$domain$$type_library$  (Idle)
--- From 'Obj\time_api.885A9F6D.obj'
02:000EC320 class$time_api 
02:000EC3A0 class$time_native 
02:000EC3FC $systemTime$time_native$0$domain$ 
02:000EC414 $systemTime$time_native$0$domain$$type_library$ 
02:000EC470 $timeZoneAPI$time_native$0$domain$ 
02:000EC488 $timeZoneAPI$time_native$0$domain$$type_library$ 
02:000EC49C $fileTime$time_native$0$domain$ 
02:000EC4B4 $fileTime$time_native$0$domain$$type_library$ 
02:000EC4C4 $$inline_32$time_native$1$domain$ 
--- From 'Obj\windowsAPI.92A1776C.obj'
02:000EC5E0 class$windowsAPI 
02:000EC610 $security_Attributes$windowsAPI$0$domain$ 
02:000EC628 $security_Attributes$windowsAPI$0$domain$$type_library$  (Idle)
--- From 'Obj\memory.D6D750BE.obj'
02:000EC6D0 class$bit 
02:000EC6EC $unsigned4$bit$0$domain$ 
02:000EC704 $unsigned4$bit$0$domain$$type_library$  (Idle)
02:000EC7D0 class$memory 
02:000EC804 $contextMap$memory$0$domain$ 
02:000EC81C $contextMap$memory$0$domain$$type_library$  (Idle)
--- From 'Obj\string8.F7761F11.obj'
02:000EC82C $pChar$memory$0$domain$ 
--- From 'Obj\memory.D6D750BE.obj'
02:000EC844 $pChar$memory$0$domain$$type_library$  (Idle)
02:000EC854 $pInteger8$memory$0$domain$ 
02:000EC86C $pInteger8$memory$0$domain$$type_library$  (Idle)
02:000EC87C $pInteger16$memory$0$domain$ 
02:000EC894 $pInteger16$memory$0$domain$$type_library$  (Idle)
02:000EC8A4 $pInteger$memory$0$domain$ 
02:000EC8BC $pInteger$memory$0$domain$$type_library$  (Idle)
02:000EC8D4 $pInteger64$memory$0$domain$ 
02:000EC8EC $pInteger64$memory$0$domain$$type_library$  (Idle)
--- From 'Obj\string8.F7761F11.obj'
02:000EC8FC $pUnsigned8$memory$0$domain$ 
--- From 'Obj\memory.D6D750BE.obj'
02:000EC914 $pUnsigned8$memory$0$domain$$type_library$  (Idle)
02:000EC924 $pUnsigned16$memory$0$domain$ 
02:000EC93C $pUnsigned16$memory$0$domain$$type_library$  (Idle)
--- From 'Obj\registry_api.CA39E249.obj'
02:000EC94C $pUnsigned$memory$0$domain$ 
--- From 'Obj\memory.D6D750BE.obj'
02:000EC964 $pUnsigned$memory$0$domain$$type_library$  (Idle)
02:000EC97C $pUnsigned64$memory$0$domain$ 
02:000EC994 $pUnsigned64$memory$0$domain$$type_library$  (Idle)
02:000EC9A4 $pReal32$memory$0$domain$ 
02:000EC9BC $pReal32$memory$0$domain$$type_library$  (Idle)
02:000EC9D4 $pReal$memory$0$domain$ 
02:000EC9EC $pReal$memory$0$domain$$type_library$  (Idle)
--- From 'Obj\registry_api.CA39E249.obj'
02:000EC9FC $pPointer$memory$0$domain$ 
--- From 'Obj\memory.D6D750BE.obj'
02:000ECA14 $pPointer$memory$0$domain$$type_library$  (Idle)
--- From 'Obj\registry_api.CA39E249.obj'
02:000ECA24 $pHandle$memory$0$domain$ 
--- From 'Obj\memory.D6D750BE.obj'
02:000ECA3C $pHandle$memory$0$domain$$type_library$  (Idle)
02:000ECA4C $pByteCount$memory$0$domain$ 
02:000ECA64 $pByteCount$memory$0$domain$$type_library$  (Idle)
02:000ECA74 $pCharCount$memory$0$domain$ 
02:000ECA8C $pCharCount$memory$0$domain$$type_library$  (Idle)
--- From 'Obj\string.00BC1BE1.obj'
02:000ECA9C $pString$memory$0$domain$ 
--- From 'Obj\memory.D6D750BE.obj'
02:000ECAB4 $pString$memory$0$domain$$type_library$  (Idle)
02:000ECAC4 $pString8$memory$0$domain$ 
02:000ECADC $pString8$memory$0$domain$$type_library$  (Idle)
02:000ECAEC $pBinary$memory$0$domain$ 
02:000ECB04 $pBinary$memory$0$domain$$type_library$  (Idle)
02:000ECB14 $pBinaryNonAtomic$memory$0$domain$ 
02:000ECB2C $pBinaryNonAtomic$memory$0$domain$$type_library$  (Idle)
02:000ECB3C $pObject$memory$0$domain$ 
02:000ECB54 $pObject$memory$0$domain$$type_library$  (Idle)
02:000ECEC0 class$weakPointer 
02:000ECFA8 class$weakPointer$vtable$ 
--- From 'Obj\string.00BC1BE1.obj'
02:000ED0E0 class$inputStream_string 
02:000ED2D0 class$inputStream_string$vtable$  (Idle)
02:000ED490 class$outputStream_string 
02:000ED6F0 class$outputStream_string$vtable$  (Idle)
02:000ED960 class$string 
02:000ED97C $caseSensitivity$string$0$domain$ 
02:000ED99C $caseSensitivity$string$0$domain$$type_library$  (Idle)
02:000ED9A0 $adjustBehaviour$string$0$domain$ 
02:000ED9C0 $adjustBehaviour$string$0$domain$$type_library$  (Idle)
02:000ED9C4 $adjustSide$string$0$domain$ 
02:000ED9E0 $adjustSide$string$0$domain$$type_library$  (Idle)
02:000EDB90 class$string_exception 
--- From 'Obj\exceptionDump.EEBF2A9C.obj'
02:000EDC10 class$exceptionDump 
--- From 'Obj\fileSystem.D4345F5C.obj'
02:000EDCB0 class$directory 
02:000EDCCC $volumeType$directory$0$domain$ 
02:000EDCF8 $volumeType$directory$0$domain$$type_library$  (Idle)
02:000EDDB0 class$file 
02:000EDDCC $overwrite$file$0$domain$ 
02:000EDDF0 $overwrite$file$0$domain$$type_library$  (Idle)
02:000EDEC0 class$fileName 
02:000EDF30 class$fileSystem_exception 
02:000EDFD0 class$fileVersion 
02:000EE004 $versionInformation$fileVersion$0$domain$ 
02:000EE01C $versionInformation$fileVersion$0$domain$$type_library$  (Idle)
02:000EE048 $fileVersionInformation$fileVersion$0$domain$ 
02:000EE060 $fileVersionInformation$fileVersion$0$domain$$type_library$  (Idle)
02:000EE380 class$inputStream_file 
02:000EE664 class$inputStream_file$vtable$  (Idle)
02:000EE910 class$messageFile 
02:000EE98C class$messageFile$vtable$ 
02:000EEAB0 class$outputStream_file 
02:000EECFC class$outputStream_file$vtable$  (Idle)
--- From 'Obj\math.EFFD1445.obj'
02:000EEF60 class$math 
02:000EEF7C $inCircle$math$0$domain$ 
02:000EEFA0 $inCircle$math$0$domain$$type_library$  (Idle)
02:000EEFA4 $aPeriod$math$0$domain$ 
02:000EEFC8 $aPeriod$math$0$domain$$type_library$  (Idle)
02:000EEFCC $uReal$math$0$domain$ 
02:000EEFF0 $uReal$math$0$domain$$type_library$  (Idle)
02:000EF050 class$math_exception 
--- From 'Obj\binary.9ACBD368.obj'
02:000EF0C0 class$binary 
02:000EF120 class$binary_exception 
02:000EF1A0 class$inputStream_binary 
02:000EF384 class$inputStream_binary$vtable$  (Idle)
02:000EF540 class$outputStream_binary 
02:000EF77C class$outputStream_binary$vtable$  (Idle)
--- From 'Obj\list.31E92F83.obj'
02:000EF9B0 class$list 
02:000EF9CC $filterPredicate$list$1$domain$ 
02:000EF9DC $filterPredicate$list$1$domain$$type_library$  (Idle)
--- From 'Obj\namedValue.547BB274.obj'
02:000EFF00 class$namedValue 
--- From 'Obj\std.74E19363.obj'
02:000EFF70 class$std 
--- From 'Obj\memory_api.B9DC98DC.obj'
02:000EFFC0 class$memory_native 
02:000F0000 $memory_basic_information$memory_native$0$domain$ 
02:000F0018 $memory_basic_information$memory_native$0$domain$$type_library$  (Idle)
02:000F0060 $memoryStatusEx$memory_native$0$domain$ 
02:000F0078 $memoryStatusEx$memory_native$0$domain$$type_library$  (Idle)
--- From 'Obj\runTime_api.CB430B85.obj'
02:000F0160 class$runtime_api 
--- From 'Obj\boolean.F0E458C4.obj'
02:000F0310 class$boolean 
--- From 'Obj\controlSupport.99797704.obj'
02:000F0370 class$commonControlSupport 
02:000F12F8 class$commonControlSupport$vtable$  (Idle)
02:000F1750 class$controlSupport 
02:000F198C class$controlSupport$vtable$ 
02:000F1E80 class$drawControlSupport 
02:000F3C8C class$drawControlSupport$vtable$  (Idle)
02:000F4720 class$nullControlSupport 
02:000F5C6C class$nullControlSupport$vtable$  (Idle)
02:000F6220 class$standardControlSupport 
02:000F719C class$standardControlSupport$vtable$ 
02:000F75C0 class$styleFlagsEx 
02:000F763C class$styleFlagsEx$vtable$ 
02:000F7780 class$userControlSupport 
02:000F9C44 class$userControlSupport$vtable$ 
--- From 'Obj\templateExpander.13D15020.obj'
02:000FA8A0 class$templateExpander 
02:000FA8BC $templateCallback$templateExpander$0$domain$ 
02:000FA8CC $templateCallback$templateExpander$0$domain$$type_library$  (Idle)
--- From 'Obj\gui_api.12FAE6A8.obj'
02:000FA970 class$gui_api 
02:000FA9A8 $scrollInfo$gui_api$0$domain$ 
02:000FA9C0 $scrollInfo$gui_api$0$domain$$type_library$  (Idle)
02:000FA9E0 $windowPlacement$gui_api$0$domain$ 
02:000FA9F8 $windowPlacement$gui_api$0$domain$$type_library$  (Idle)
02:000FAAC0 class$gui_native 
02:000FAB48 $logfont$gui_native$0$domain$ 
02:000FAB60 $logfont$gui_native$0$domain$$type_library$  (Idle)
02:000FAB7C $mouseMovePoint$gui_native$0$domain$ 
02:000FAB94 $mouseMovePoint$gui_native$0$domain$$type_library$  (Idle)
02:000FAB98 $enumDesktopProc$gui_native$0$domain$ 
02:000FABA8 $enumDesktopProc$gui_native$0$domain$$type_library$  (Idle)
02:000FABAC $enumWindowStationProc$gui_native$0$domain$ 
02:000FABBC $enumWindowStationProc$gui_native$0$domain$$type_library$  (Idle)
02:000FABF8 $security_descriptor$gui_native$0$domain$ 
02:000FAC10 $security_descriptor$gui_native$0$domain$$type_library$  (Idle)
02:000FAC40 $acl$gui_native$0$domain$ 
02:000FAC58 $acl$gui_native$0$domain$$type_library$ 
02:000FAC7C $copyDataStruct$gui_native$0$domain$ 
02:000FAC94 $copyDataStruct$gui_native$0$domain$$type_library$  (Idle)
02:000FACB0 $trackMouseEvent$gui_native$0$domain$ 
02:000FACC8 $trackMouseEvent$gui_native$0$domain$$type_library$  (Idle)
02:000FAD08 $msg$gui_native$0$domain$ 
02:000FAD20 $msg$gui_native$0$domain$$type_library$  (Idle)
02:000FAD24 $sendAsyncProc$gui_native$0$domain$ 
02:000FAD34 $sendAsyncProc$gui_native$0$domain$$type_library$  (Idle)
02:000FAD38 $wndProc$gui_native$0$domain$ 
02:000FAD48 $wndProc$gui_native$0$domain$$type_library$ 
02:000FADA4 $wndClassEx$gui_native$0$domain$ 
02:000FADBC $wndClassEx$gui_native$0$domain$$type_library$  (Idle)
02:000FAE18 $createstruct$gui_native$0$domain$ 
02:000FAE30 $createstruct$gui_native$0$domain$$type_library$  (Idle)
02:000FAE50 $flashInfo$gui_native$0$domain$ 
02:000FAE68 $flashInfo$gui_native$0$domain$$type_library$  (Idle)
02:000FAE90 $windowPos$gui_native$0$domain$ 
02:000FAEA8 $windowPos$gui_native$0$domain$$type_library$  (Idle)
02:000FAEF8 $windowPlacement$gui_native$0$domain$ 
02:000FAF10 $windowPlacement$gui_native$0$domain$$type_library$  (Idle)
02:000FAF70 $windowInfo$gui_native$0$domain$ 
02:000FAF88 $windowInfo$gui_native$0$domain$$type_library$  (Idle)
02:000FAFC4 $monitorInfo$gui_native$0$domain$ 
02:000FAFDC $monitorInfo$gui_native$0$domain$$type_library$  (Idle)
02:000FB024 $monitorInfoEx$gui_native$0$domain$ 
02:000FB03C $monitorInfoEx$gui_native$0$domain$$type_library$  (Idle)
02:000FB040 $monitorEnumProc$gui_native$0$domain$ 
02:000FB050 $monitorEnumProc$gui_native$0$domain$$type_library$  (Idle)
02:000FB08C $dlgTemplate$gui_native$0$domain$ 
02:000FB0A4 $dlgTemplate$gui_native$0$domain$$type_library$  (Idle)
02:000FB0A8 $timerProc$gui_native$0$domain$ 
02:000FB0B8 $timerProc$gui_native$0$domain$$type_library$  (Idle)
02:000FB0DC $accel$gui_native$0$domain$ 
02:000FB0F4 $accel$gui_native$0$domain$$type_library$  (Idle)
02:000FB150 $menuItemInfo$gui_native$0$domain$ 
02:000FB168 $menuItemInfo$gui_native$0$domain$$type_library$  (Idle)
02:000FB188 $drawTextParams$gui_native$0$domain$ 
02:000FB1A0 $drawTextParams$gui_native$0$domain$$type_library$  (Idle)
02:000FB1A4 $grayStringProc$gui_native$0$domain$ 
02:000FB1B4 $grayStringProc$gui_native$0$domain$$type_library$  (Idle)
02:000FB1B8 $drawStateProc$gui_native$0$domain$ 
02:000FB1C8 $drawStateProc$gui_native$0$domain$$type_library$  (Idle)
02:000FB1E8 $size$gui_native$0$domain$ 
02:000FB200 $size$gui_native$0$domain$$type_library$  (Idle)
02:000FB28C $textmetric$gui_native$0$domain$ 
02:000FB2A4 $textmetric$gui_native$0$domain$$type_library$  (Idle)
02:000FB2EC $paintStruct$gui_native$0$domain$ 
02:000FB304 $paintStruct$gui_native$0$domain$$type_library$  (Idle)
02:000FB308 $propEnumProc$gui_native$0$domain$ 
02:000FB318 $propEnumProc$gui_native$0$domain$$type_library$  (Idle)
02:000FB31C $wndEnumProc$gui_native$0$domain$ 
02:000FB32C $wndEnumProc$gui_native$0$domain$$type_library$  (Idle)
02:000FB330 $hookProc$gui_native$0$domain$ 
02:000FB340 $hookProc$gui_native$0$domain$$type_library$  (Idle)
02:000FB360 $iconInfo$gui_native$0$domain$ 
02:000FB378 $iconInfo$gui_native$0$domain$$type_library$  (Idle)
02:000FB390 $nmhdr$gui_native$0$domain$ 
02:000FB3A8 $nmhdr$gui_native$0$domain$$type_library$  (Idle)
02:000FB3D0 $scrollInfo$gui_native$0$domain$ 
02:000FB3E8 $scrollInfo$gui_native$0$domain$$type_library$ 
02:000FB44C $scrollBarInfo$gui_native$0$domain$ 
02:000FB464 $scrollBarInfo$gui_native$0$domain$$type_library$  (Idle)
02:000FB47C $logbrush$gui_native$0$domain$ 
02:000FB494 $logbrush$gui_native$0$domain$$type_library$  (Idle)
02:000FB4A8 $tagInitCommonControlsEx$gui_native$0$domain$ 
02:000FB4C0 $tagInitCommonControlsEx$gui_native$0$domain$$type_library$  (Idle)
02:000FB4E4 $mouseInput$gui_native$0$domain$ 
02:000FB4FC $mouseInput$gui_native$0$domain$$type_library$ 
02:000FB52C $keybdInput$gui_native$0$domain$ 
02:000FB544 $keybdInput$gui_native$0$domain$$type_library$ 
02:000FB568 $hardwareInput$gui_native$0$domain$ 
02:000FB580 $hardwareInput$gui_native$0$domain$$type_library$ 
02:000FB584 $inputUnion$gui_native$0$domain$ 
02:000FB5A4 $inputUnion$gui_native$0$domain$$type_library$ 
02:000FB5B8 $input$gui_native$0$domain$ 
02:000FB5D0 $input$gui_native$0$domain$$type_library$  (Idle)
02:000FB620 $wndClass$gui_native$0$domain$ 
02:000FB638 $wndClass$gui_native$0$domain$$type_library$  (Idle)
02:000FB650 $inputUnion_mi$gui_native$0$domain$ 
02:000FB668 $inputUnion_mi$gui_native$0$domain$$type_library$  (Idle)
02:000FB680 $inputUnion_ki$gui_native$0$domain$ 
02:000FB698 $inputUnion_ki$gui_native$0$domain$$type_library$  (Idle)
02:000FB6B0 $inputUnion_hi$gui_native$0$domain$ 
02:000FB6C8 $inputUnion_hi$gui_native$0$domain$$type_library$  (Idle)
02:000FB6D8 $$inline_32$gui_native$1$domain$ 
--- From 'Obj\systemInformation_api.89ED56AB.obj'
02:000FBE40 class$systemInformation_api 
02:000FBF10 class$systemInformation_native 
02:000FBF7C $system_Info$systemInformation_native$0$domain$ 
02:000FBF94 $system_Info$systemInformation_native$0$domain$$type_library$  (Idle)
02:000FBFD4 $osVersionInfo$systemInformation_native$0$domain$ 
02:000FBFEC $osVersionInfo$systemInformation_native$0$domain$$type_library$  (Idle)
02:000FC048 $osVersionInfoEX$systemInformation_native$0$domain$ 
02:000FC060 $osVersionInfoEX$systemInformation_native$0$domain$$type_library$  (Idle)
02:000FC070 $$inline_128$systemInformation_native$1$domain$ 
--- From 'Obj\errorPresentationDialog.9174D14B.obj'
02:000FC200 class$errorPresentationDialog 
02:000FC228 $reportErrorDelegate$errorPresentationDialog$0$domain$ 
02:000FC238 $reportErrorDelegate$errorPresentationDialog$0$domain$$type_library$ 
02:000FC23C $writer$errorPresentationDialog$0$domain$ 
02:000FC24C $writer$errorPresentationDialog$0$domain$$type_library$ 
02:000FE1F4 class$errorPresentationDialog$vtable$  (Idle)
--- From 'Obj\monitorQueue.113845A9.obj'
02:000FEDF0 class$monitorQueue{@Elem} 
02:000FEECC class$monitorQueue{@Elem}$vtable$ 
--- From 'Obj\multiThread.F1B93BE6.obj'
02:000FF090 class$consoleSync 
02:000FF148 class$consoleSync$vtable$ 
02:000FF1F0 class$criticalSection 
02:000FF254 class$criticalSection$vtable$ 
02:000FF380 class$event 
02:000FF444 class$event$vtable$ 
02:000FF4F0 class$mutex 
02:000FF5C0 class$mutex$vtable$ 
02:000FF670 class$semaphore 
02:000FF734 class$semaphore$vtable$ 
02:000FF7F0 class$syncObject 
02:000FF868 class$syncObject$vtable$ 
02:000FF950 class$thread 
02:000FFAD0 class$thread$vtable$ 
02:000FFC40 class$waitableTimer 
02:000FFD04 class$waitableTimer$vtable$ 
--- From 'Obj\multiThread_api.6CAB3B1E.obj'
02:000FFDD0 class$multiThread_api 
02:000FFE70 class$multiThread_native 
02:000FFE8C $timerAPCProc$multiThread_native$0$domain$ 
02:000FFE9C $timerAPCProc$multiThread_native$0$domain$$type_library$  (Idle)
02:000FFF1C $startupinfo_api$multiThread_native$0$domain$ 
02:000FFF34 $startupinfo_api$multiThread_native$0$domain$$type_library$  (Idle)
02:000FFF50 $processInformation_api$multiThread_native$0$domain$ 
02:000FFF68 $processInformation_api$multiThread_native$0$domain$$type_library$  (Idle)
02:000FFF6C $threadRunnable$multiThread_native$0$domain$ 
02:000FFF7C $threadRunnable$multiThread_native$0$domain$$type_library$  (Idle)
02:000FFFA0 $critical_section$multiThread_native$0$domain$ 
02:000FFFB8 $critical_section$multiThread_native$0$domain$$type_library$ 
02:000FFFF0 $selectorEntry$multiThread_native$0$domain$ 
02:00100008 $selectorEntry$multiThread_native$0$domain$$type_library$  (Idle)
--- From 'Obj\outputStreamSupport.2B16F673.obj'
02:001001B0 class$outputSupport 
02:0010025C class$outputSupport$vtable$ 
--- From 'Obj\vpiEditor.ADC33AAB.obj'
02:00100410 class$runtimeLinkNamesEdit 
02:001004B0 class$vpiEditor 
02:001004E4 $hyper_event$vpiEditor$0$domain$ 
02:00100500 $hyper_event$vpiEditor$0$domain$$type_library$  (Idle)
02:00100514 $assoc$vpiEditor$0$domain$ 
02:0010052C $assoc$vpiEditor$0$domain$$type_library$  (Idle)
02:00100544 $leftMargin$vpiEditor$0$domain$ 
02:0010055C $leftMargin$vpiEditor$0$domain$$type_library$  (Idle)
02:00100560 $colorType$vpiEditor$0$domain$ 
02:001005CC $colorType$vpiEditor$0$domain$$type_library$ 
02:001005E4 $colorSettings$vpiEditor$0$domain$ 
02:001005FC $colorSettings$vpiEditor$0$domain$$type_library$ 
02:00100614 $colorOption$vpiEditor$0$domain$ 
02:0010062C $colorOption$vpiEditor$0$domain$$type_library$ 
02:00100630 $bookmarkType$vpiEditor$0$domain$ 
02:00100648 $bookmarkType$vpiEditor$0$domain$$type_library$ 
02:00100660 $bookmarkItem$vpiEditor$0$domain$ 
02:00100678 $bookmarkItem$vpiEditor$0$domain$$type_library$  (Idle)
02:0010067C $bookmarkTypeHandler$vpiEditor$0$domain$ 
02:0010068C $bookmarkTypeHandler$vpiEditor$0$domain$$type_library$  (Idle)
02:00100690 $bookmarkListHandler$vpiEditor$0$domain$ 
02:001006A0 $bookmarkListHandler$vpiEditor$0$domain$$type_library$  (Idle)
02:001006A4 $editorFunction$vpiEditor$0$domain$ 
02:001006DC $editorFunction$vpiEditor$0$domain$$type_library$  (Idle)
02:00100720 $re_pattern_buffer$vpiEditor$0$domain$ 
02:00100738 $re_pattern_buffer$vpiEditor$0$domain$$type_library$  (Idle)
02:00100748 $p_regoff_t$vpiEditor$0$domain$ 
02:00100760 $p_regoff_t$vpiEditor$0$domain$$type_library$ 
02:00100778 $re_registers$vpiEditor$0$domain$ 
02:00100790 $re_registers$vpiEditor$0$domain$$type_library$  (Idle)
02:001007A4 $regmatch_t$vpiEditor$0$domain$ 
02:001007BC $regmatch_t$vpiEditor$0$domain$$type_library$  (Idle)
--- From 'Obj\string_api.37767A8A.obj'
02:00100E40 class$string_native 
--- From 'Obj\inputStreamSupport.AAEBD08D.obj'
02:00100ED0 class$inputSupport 
02:00100F64 class$inputSupport$vtable$ 
--- From 'Obj\locale_api.55F3BDA7.obj'
02:001010A0 class$locale_api 
02:00101130 class$locale_native 
--- From 'Obj\string8.F7761F11.obj'
02:001011C0 class$string8 
--- From 'Obj\Shell_api.FF07D5B3.obj'
02:00101220 class$shell_api 
02:001012A0 class$shell_native 
02:00101300 $shellExecuteInfo$shell_native$0$domain$ 
02:00101318 $shellExecuteInfo$shell_native$0$domain$$type_library$  (Idle)
02:00101358 $appBarData$shell_native$0$domain$ 
02:00101370 $appBarData$shell_native$0$domain$$type_library$  (Idle)
02:0010139C $shFileOpStruct$shell_native$0$domain$ 
02:001013B4 $shFileOpStruct$shell_native$0$domain$$type_library$  (Idle)
02:001013D0 $sHNameMapping$shell_native$0$domain$ 
02:001013E8 $sHNameMapping$shell_native$0$domain$$type_library$  (Idle)
02:0010140C $shQueryRBinfo$shell_native$0$domain$ 
02:00101424 $shQueryRBinfo$shell_native$0$domain$$type_library$  (Idle)
02:001014A8 $notifyIcondata$shell_native$0$domain$ 
02:001014C0 $notifyIcondata$shell_native$0$domain$$type_library$  (Idle)
02:00101500 $sHFileInfo$shell_native$0$domain$ 
02:00101518 $sHFileInfo$shell_native$0$domain$$type_library$  (Idle)
02:00101544 $browseinfo$shell_native$0$domain$ 
02:0010155C $browseinfo$shell_native$0$domain$$type_library$  (Idle)
02:00101560 $browseCallbackProc$shell_native$0$domain$ 
02:00101570 $browseCallbackProc$shell_native$0$domain$$type_library$ 
02:00101580 $$inline_64$shell_native$1$domain$ 
02:001015A4 $$inline_256$shell_native$1$domain$ 
02:001015C8 $$inline_260$shell_native$1$domain$ 
02:001015EC $$inline_80$shell_native$1$domain$ 
--- From 'Obj\string8_api.1EF407E4.obj'
02:00101890 class$string8_api 
02:00101920 class$string8_native 
--- From 'Obj\mapM_redBlack.DE0C8F8A.obj'
02:001019C0 class$mapM_redBlack{@Key,@Data} 
02:00101D9C class$mapM_redBlack{@Key,@Data}$vtable$  (Idle)
--- From 'Obj\setM_redBlack.60A8A024.obj'
02:001020F0 class$setM_redBlack{@Type} 
02:0010230C class$setM_redBlack{@Type}$vtable$  (Idle)
--- From 'Obj\registry.7837C76D.obj'
02:00102560 class$registry 
02:0010257C $rootKey$registry$0$domain$ 
02:001025AC $rootKey$registry$0$domain$$type_library$ 
02:001026B0 class$registry_exception 
--- From 'Obj\regExp.1C7438E9.obj'
02:00102740 class$regExp 
02:001027A4 class$regExp$vtable$ 
02:00102860 class$regExp_exception 
--- From 'Obj\mapMSupport.291A338C.obj'
02:001028E0 class$collectionSupportM\mapMSupport{@Key,@Data} 
02:00102A7C class$collectionSupportM\mapMSupport{@Key,@Data}$vtable$ 
--- From 'Obj\collectionMsupport.C5291E49.obj'
02:00102CC0 class$collectionSupportM\collectionMsupport{@Type} 
02:00102D5C class$collectionSupportM\collectionMsupport{@Type}$vtable$ 
--- From 'Obj\redBlackTree.DD02B175.obj'
02:00102F30 class$redBlackTree 
02:00102F4C $color$redBlackTree$0$domain$ 
02:00102F68 $color$redBlackTree$0$domain$$type_library$ 
02:00102F90 $treeRep$redBlackTree$2$domain$ 
02:00102FAC $uniqueKey$redBlackTree$0$domain$ 
02:00102FC8 $uniqueKey$redBlackTree$0$domain$$type_library$ 
02:00102FDC $treeProperty$redBlackTree$1$domain$ 
02:00103018 $tree$redBlackTree$2$domain$ 
--- From 'Obj\redBlackSet.ACE22A48.obj'
02:00103270 class$redBlackSet 
02:0010328C $color$redBlackSet$0$domain$ 
02:001032A8 $color$redBlackSet$0$domain$$type_library$ 
02:001032CC $setRep$redBlackSet$1$domain$ 
02:00103300 $set$redBlackSet$1$domain$ 
--- From 'Obj\registry_api.CA39E249.obj'
02:00103480 class$registry_api 
02:00103510 class$registry_native 
02:00103540 $securityAttr$registry_native$0$domain$ 
02:00103558 $securityAttr$registry_native$0$domain$$type_library$  (Idle)
--- From 'Obj\DataBase.D5FA3BBF.obj'
02:00103610 class$dataBase 
02:00103704 class$dataBase$vtable$ 
--- From 'Obj\Forms.80533223.obj'
02:001037C0 class$addPIPattern 
02:00105864 class$addPIPattern$vtable$  (Idle)
02:00106350 class$conjuncionHechos 
02:00108B80 class$conjuncionHechos$vtable$  (Idle)
02:001096A0 class$contribucionProporcional 
02:0010BF18 class$contribucionProporcional$vtable$  (Idle)
02:0010CAB0 class$disyuncionHechos 
02:0010F2E0 class$disyuncionHechos$vtable$  (Idle)
02:0010FE00 class$efectoGlobal 
02:00112630 class$efectoGlobal$vtable$  (Idle)
02:00113120 class$factor 
02:00115938 class$factor$vtable$  (Idle)
02:00116410 class$visualizeResults 
02:00118C64 class$visualizeResults$vtable$  (Idle)
--- From 'Obj\ESEngineeringMachine.445B6113.obj'
02:001197A0 class$eSEngineeringMachine 
02:001197D4 class$eSEngineeringMachine$vtable$ 
--- From 'Obj\main.A22FE9BF.obj'
02:001198A0 class$main 
02:001198E0 class$_global 
02:00119910 class$_builtIn 
02:0011992C $integer$_builtIn$0$domain$ 
02:00119944 $integer$_builtIn$0$domain$$type_library$ 
02:00119948 $unsigned$_builtIn$0$domain$ 
02:00119960 $unsigned$_builtIn$0$domain$$type_library$ 
02:00119964 $real$_builtIn$0$domain$ 
02:00119988 $real$_builtIn$0$domain$$type_library$ 
02:0011998C $real32$_builtIn$0$domain$ 
02:001199B0 $real32$_builtIn$0$domain$$type_library$ 
02:001199B4 $$byte$_builtIn$0$domain$ 
02:001199CC $$byte$_builtIn$0$domain$$type_library$  (Idle)
02:001199D0 $string$_builtIn$0$domain$ 
02:001199DC $string$_builtIn$0$domain$$type_library$ 
02:001199E0 $symbol$_builtIn$0$domain$ 
02:001199EC $symbol$_builtIn$0$domain$$type_library$  (Idle)
02:001199F0 $string8$_builtIn$0$domain$ 
02:001199FC $string8$_builtIn$0$domain$$type_library$ 
02:00119A00 $char$_builtIn$0$domain$ 
02:00119A0C $char$_builtIn$0$domain$$type_library$ 
02:00119A10 $binary$_builtIn$0$domain$ 
02:00119A20 $binary$_builtIn$0$domain$$type_library$ 
02:00119A24 $binarynonatomic$_builtIn$0$domain$ 
02:00119A34 $binarynonatomic$_builtIn$0$domain$$type_library$ 
02:00119A38 $pointer$_builtIn$0$domain$ 
02:00119A44 $pointer$_builtIn$0$domain$$type_library$ 
02:00119A48 $handle$_builtIn$0$domain$ 
02:00119A54 $handle$_builtIn$0$domain$$type_library$ 
02:00119A58 $factdb$_builtIn$0$domain$ 
02:00119A64 $factdb$_builtIn$0$domain$$type_library$  (Idle)
02:00119A68 $...$_builtIn$0$domain$ 
02:00119A74 $...$_builtIn$0$domain$$type_library$  (Idle)
02:00119A78 $integer64$_builtIn$0$domain$ 
02:00119A98 $integer64$_builtIn$0$domain$$type_library$ 
02:00119A9C $unsigned64$_builtIn$0$domain$ 
02:00119ABC $unsigned64$_builtIn$0$domain$$type_library$ 
02:00119AC0 $any$_builtIn$0$domain$ 
02:00119ACC $any$_builtIn$0$domain$$type_library$  (Idle)
02:00119AD0 $integernative$_builtIn$0$domain$ 
02:00119AE8 $integernative$_builtIn$0$domain$$type_library$ 
02:00119AEC $unsignednative$_builtIn$0$domain$ 
02:00119B04 $unsignednative$_builtIn$0$domain$$type_library$ 
02:00119B20 $*$_builtIn$1$domain$ 
02:00119B44 $_someType$_builtIn$0$domain$ 
02:00119B5C $_someType$_builtIn$0$domain$$type_library$  (Idle)
02:00119B60 $boolean$_builtIn$0$domain$ 
02:00119B7C $boolean$_builtIn$0$domain$$type_library$ 
02:00119B80 $compareResult$_builtIn$0$domain$ 
02:00119BA0 $compareResult$_builtIn$0$domain$$type_library$  (Idle)
02:00119BB0 $$inline_1$_builtIn$1$domain$ 
--- From 'Obj\Toolbars.B027D95B.obj'
02:00119DF0 class$projectToolbar 
02:00119E80 class$statusLine 
0AD000:06CF00 0070D0   VIPInter::VIPInter::.rdata F=4
--- From 'Obj\TaskWindow.3D15576A.obj'
02:00119F00 $taskWindow$_global$0$domain$$type_library$  (Idle)
02:00119F10 $taskWindow$_global$0$domain$ 
02:00119F40 interface$taskWindow 
02:00119FB0 $aboutDialog$_global$0$domain$$type_library$  (Idle)
02:00119FC0 $aboutDialog$_global$0$domain$ 
02:00119FF0 interface$aboutDialog 
--- From 'Obj\messageControl.CCD407ED.obj'
02:0011A060 $verticalSize$messageForm$0$domain$$type_library$ 
02:0011A088 $verticalSize$messageForm$0$domain$ 
02:0011A0F0 $messageForm$_global$0$domain$$type_library$  (Idle)
02:0011A100 $messageForm$_global$0$domain$ 
02:0011A130 interface$messageForm 
02:0011A1D0 $messageControl$_global$0$domain$$type_library$ 
02:0011A1E0 $messageControl$_global$0$domain$ 
02:0011A220 interface$messageControl 
--- From 'Obj\Forms.80533223.obj'
02:0011A2C0 $visualizeResults$_global$0$domain$$type_library$  (Idle)
02:0011A2D0 $visualizeResults$_global$0$domain$ 
02:0011A310 interface$visualizeResults 
02:0011A390 $factor$_global$0$domain$$type_library$  (Idle)
02:0011A3A0 $factor$_global$0$domain$ 
02:0011A3D0 interface$factor 
02:0011A420 $efectoGlobal$_global$0$domain$$type_library$  (Idle)
02:0011A430 $efectoGlobal$_global$0$domain$ 
02:0011A460 interface$efectoGlobal 
02:0011A4D0 $disyuncionHechos$_global$0$domain$$type_library$  (Idle)
02:0011A4E0 $disyuncionHechos$_global$0$domain$ 
02:0011A520 interface$disyuncionHechos 
02:0011A5A0 $contribucionProporcional$_global$0$domain$$type_library$  (Idle)
02:0011A5B0 $contribucionProporcional$_global$0$domain$ 
02:0011A600 interface$contribucionProporcional 
02:0011A6A0 $conjuncionHechos$_global$0$domain$$type_library$  (Idle)
02:0011A6B0 $conjuncionHechos$_global$0$domain$ 
02:0011A6F0 interface$conjuncionHechos 
02:0011A770 $addPIPattern$_global$0$domain$$type_library$  (Idle)
02:0011A780 $addPIPattern$_global$0$domain$ 
02:0011A7B0 interface$addPIPattern 
--- From 'Obj\ESEngineeringMachine.445B6113.obj'
02:0011A820 $eSKnowledgeBase$_global$0$domain$$type_library$  (Idle)
02:0011A830 $eSKnowledgeBase$_global$0$domain$ 
02:0011A870 interface$eSKnowledgeBase 
02:0011A900 $certainFactor$_global$0$domain$$type_library$  (Idle)
02:0011A910 $certainFactor$_global$0$domain$ 
02:0011A940 interface$certainFactor 
02:0011A9C0 $windowGDI$_global$0$domain$$type_library$ 
02:0011A9D0 $windowGDI$_global$0$domain$ 
02:0011AA00 interface$windowGDI 
02:0011AA60 $stateListener$window$0$domain$$type_library$ 
02:0011AA70 $stateListener$window$0$domain$ 
02:0011AAA0 $userListener$window$0$domain$$type_library$ 
02:0011AAB0 $userListener$window$0$domain$ 
02:0011AAE0 $nativeMessageHandler$window$0$domain$$type_library$ 
02:0011AAF0 $nativeMessageHandler$window$0$domain$ 
02:0011AB30 $nativeResponse$window$0$domain$$type_library$  (Idle)
02:0011AB54 $nativeResponse$window$0$domain$ 
02:0011ABE0 $delayedPredicate$window$0$domain$$type_library$ 
02:0011ABF0 $delayedPredicate$window$0$domain$ 
02:0011AC30 $timerListener$window$0$domain$$type_library$ 
02:0011AC40 $timerListener$window$0$domain$ 
02:0011AC70 $contextMenuResponder$window$0$domain$$type_library$ 
02:0011AC80 $contextMenuResponder$window$0$domain$ 
02:0011ACC0 $contextMenuInput$window$0$domain$$type_library$  (Idle)
02:0011ACE4 $contextMenuInput$window$0$domain$ 
02:0011AD40 $contextMenuResponse$window$0$domain$$type_library$  (Idle)
02:0011AD50 $contextMenuResponse$window$0$domain$ 
02:0011ADF0 $menuItemListener$window$0$domain$$type_library$ 
02:0011AE00 $menuItemListener$window$0$domain$ 
02:0011AE40 $loseFocusListener$window$0$domain$$type_library$ 
02:0011AE50 $loseFocusListener$window$0$domain$ 
02:0011AE90 $getFocusListener$window$0$domain$$type_library$ 
02:0011AEA0 $getFocusListener$window$0$domain$ 
02:0011AEE0 $moveListener$window$0$domain$$type_library$ 
02:0011AEF0 $moveListener$window$0$domain$ 
02:0011AF20 $sizeListener$window$0$domain$$type_library$ 
02:0011AF30 $sizeListener$window$0$domain$ 
02:0011AF60 $destroyListener$window$0$domain$$type_library$ 
02:0011AF70 $destroyListener$window$0$domain$ 
02:0011AFA0 $showListener$window$0$domain$$type_library$ 
02:0011AFB0 $showListener$window$0$domain$ 
02:0011AFE0 $window$_global$0$domain$$type_library$ 
02:0011AFF0 $window$_global$0$domain$ 
02:0011B020 interface$window 
02:0011B070 $measureSizeResponder$popupWindow$0$domain$$type_library$ 
02:0011B080 $measureSizeResponder$popupWindow$0$domain$ 
02:0011B0C0 $orientation$popupWindow$0$domain$$type_library$ 
02:0011B0D0 $orientation$popupWindow$0$domain$ 
02:0011B150 $origo$popupWindow$0$domain$$type_library$ 
02:0011B170 $origo$popupWindow$0$domain$ 
02:0011B1A0 $popupWindow$_global$0$domain$$type_library$  (Idle)
02:0011B1B0 $popupWindow$_global$0$domain$ 
02:0011B1E0 interface$popupWindow 
02:0011B250 $pictureCanvas$_global$0$domain$$type_library$  (Idle)
02:0011B260 $pictureCanvas$_global$0$domain$ 
02:0011B290 interface$pictureCanvas 
02:0011B300 $windowExtension$_global$0$domain$$type_library$ 
02:0011B310 $windowExtension$_global$0$domain$ 
02:0011B350 interface$windowExtension 
02:0011B3E0 $formWindowExtension$_global$0$domain$$type_library$ 
02:0011B3F0 $formWindowExtension$_global$0$domain$ 
02:0011B430 interface$formWindowExtension 
02:0011B4D0 $drawWindowExtension$_global$0$domain$$type_library$ 
02:0011B4E0 $drawWindowExtension$_global$0$domain$ 
02:0011B520 interface$drawWindowExtension 
02:0011B5C0 $drawControlExtension$_global$0$domain$$type_library$ 
02:0011B5D0 $drawControlExtension$_global$0$domain$ 
02:0011B610 interface$drawControlExtension 
02:0011B6B0 $documentWindowExtension$_global$0$domain$$type_library$ 
02:0011B6C0 $documentWindowExtension$_global$0$domain$ 
02:0011B710 interface$documentWindowExtension 
02:0011B7C0 $dialogExtension$_global$0$domain$$type_library$ 
02:0011B7D0 $dialogExtension$_global$0$domain$ 
02:0011B810 interface$dialogExtension 
02:0011B8A0 $controlExtension$_global$0$domain$$type_library$ 
02:0011B8B0 $controlExtension$_global$0$domain$ 
02:0011B8F0 interface$controlExtension 
02:0011B980 $containerWindowSupport$_global$0$domain$$type_library$  (Idle)
02:0011B990 $containerWindowSupport$_global$0$domain$ 
02:0011B9E0 interface$containerWindowSupport 
02:0011BA90 $closeResponder$frameDecoration$0$domain$$type_library$ 
02:0011BAA0 $closeResponder$frameDecoration$0$domain$ 
02:0011BAD0 $closeResponse$frameDecoration$0$domain$$type_library$  (Idle)
02:0011BAE0 $closeResponse$frameDecoration$0$domain$ 
02:0011BB80 $border$frameDecoration$0$domain$$type_library$  (Idle)
02:0011BB90 $border$frameDecoration$0$domain$ 
02:0011BC20 $decorationButton$frameDecoration$0$domain$$type_library$ 
02:0011BC30 $decorationButton$frameDecoration$0$domain$ 
02:0011BCD0 $decoration$frameDecoration$0$domain$$type_library$  (Idle)
02:0011BCFC $decoration$frameDecoration$0$domain$ 
02:0011BD50 $frameDecoration$_global$0$domain$$type_library$  (Idle)
02:0011BD60 $frameDecoration$_global$0$domain$ 
02:0011BDA0 interface$frameDecoration 
02:0011BE20 $formWindow$_global$0$domain$$type_library$  (Idle)
02:0011BE30 $formWindow$_global$0$domain$ 
02:0011BE60 interface$formWindow 
02:0011BEC0 $keyUpResponder$drawWindow$0$domain$$type_library$ 
02:0011BED0 $keyUpResponder$drawWindow$0$domain$ 
02:0011BF00 $keyUpResponse$drawWindow$0$domain$$type_library$  (Idle)
02:0011BF10 $keyUpResponse$drawWindow$0$domain$ 
02:0011BF90 $keyDownResponder$drawWindow$0$domain$$type_library$ 
02:0011BFA0 $keyDownResponder$drawWindow$0$domain$ 
02:0011BFE0 $keyDownResponse$drawWindow$0$domain$$type_library$  (Idle)
02:0011BFF0 $keyDownResponse$drawWindow$0$domain$ 
02:0011C080 $charResponder$drawWindow$0$domain$$type_library$ 
02:0011C090 $charResponder$drawWindow$0$domain$ 
02:0011C0C0 $charResponse$drawWindow$0$domain$$type_library$  (Idle)
02:0011C0D0 $charResponse$drawWindow$0$domain$ 
02:0011C150 $mouseMoveListener$drawWindow$0$domain$$type_library$ 
02:0011C160 $mouseMoveListener$drawWindow$0$domain$ 
02:0011C1A0 $mouseDblListener$drawWindow$0$domain$$type_library$ 
02:0011C1B0 $mouseDblListener$drawWindow$0$domain$ 
02:0011C1F0 $mouseUpListener$drawWindow$0$domain$$type_library$ 
02:0011C200 $mouseUpListener$drawWindow$0$domain$ 
02:0011C230 $mouseDownListener$drawWindow$0$domain$$type_library$ 
02:0011C240 $mouseDownListener$drawWindow$0$domain$ 
02:0011C280 $eraseBackgroundResponder$drawWindow$0$domain$$type_library$ 
02:0011C290 $eraseBackgroundResponder$drawWindow$0$domain$ 
02:0011C2E0 $eraseBackgroundResponse$drawWindow$0$domain$$type_library$  (Idle)
02:0011C2F0 $eraseBackgroundResponse$drawWindow$0$domain$ 
02:0011C3D0 $paintResponder$drawWindow$0$domain$$type_library$ 
02:0011C3E0 $paintResponder$drawWindow$0$domain$ 
02:0011C410 $scrollListener$drawWindow$0$domain$$type_library$ 
02:0011C420 $scrollListener$drawWindow$0$domain$ 
02:0011C450 $scrollInfo$drawWindow$0$domain$$type_library$  (Idle)
02:0011C47C $scrollInfo$drawWindow$0$domain$ 
02:0011C4C0 $scrollBarInfoRgState$drawWindow$0$domain$$type_library$ 
02:0011C4F0 $scrollBarInfoRgState$drawWindow$0$domain$ 
02:0011C560 $scrollBarInfo$drawWindow$0$domain$$type_library$  (Idle)
02:0011C58C $scrollBarInfo$drawWindow$0$domain$ 
02:0011C5E0 $drawWindow$_global$0$domain$$type_library$ 
02:0011C5F0 $drawWindow$_global$0$domain$ 
02:0011C620 interface$drawWindow 
02:0011C680 $initMenuListener$documentWindow$0$domain$$type_library$ 
02:0011C690 $initMenuListener$documentWindow$0$domain$ 
02:0011C6D0 $deactivateListener$documentWindow$0$domain$$type_library$ 
02:0011C6E0 $deactivateListener$documentWindow$0$domain$ 
02:0011C720 $activateListener$documentWindow$0$domain$$type_library$ 
02:0011C730 $activateListener$documentWindow$0$domain$ 
02:0011C770 $documentWindow$_global$0$domain$$type_library$ 
02:0011C780 $documentWindow$_global$0$domain$ 
02:0011C7C0 interface$documentWindow 
02:0011C830 $validateResponder$dialog$0$domain$$type_library$ 
02:0011C840 $validateResponder$dialog$0$domain$ 
02:0011C880 $validateResult$dialog$0$domain$$type_library$  (Idle)
02:0011C8AC $validateResult$dialog$0$domain$ 
02:0011C920 $unit$dialog$0$domain$$type_library$  (Idle)
02:0011C930 $unit$dialog$0$domain$ 
02:0011C990 $dialog$_global$0$domain$$type_library$ 
02:0011C9A0 $dialog$_global$0$domain$ 
02:0011C9D0 interface$dialog 
02:0011CA20 $versionControl$_global$0$domain$$type_library$ 
02:0011CA30 $versionControl$_global$0$domain$ 
02:0011CA70 interface$versionControl 
02:0011CB00 $tickListener$timerControl$0$domain$$type_library$ 
02:0011CB10 $tickListener$timerControl$0$domain$ 
02:0011CB40 $timerControl$_global$0$domain$$type_library$  (Idle)
02:0011CB50 $timerControl$_global$0$domain$ 
02:0011CB80 interface$timerControl 
02:0011CC00 $textControl$_global$0$domain$$type_library$ 
02:0011CC10 $textControl$_global$0$domain$ 
02:0011CC40 interface$textControl 
02:0011CCC0 $scrollListener$scrollControl$0$domain$$type_library$ 
02:0011CCD0 $scrollListener$scrollControl$0$domain$ 
02:0011CD00 $scrollControl$_global$0$domain$$type_library$  (Idle)
02:0011CD10 $scrollControl$_global$0$domain$ 
02:0011CD40 interface$scrollControl 
02:0011CDC0 $realControl$_global$0$domain$$type_library$  (Idle)
02:0011CDD0 $realControl$_global$0$domain$ 
02:0011CE00 interface$realControl 
02:0011CE80 $delayedSelectionChangedListener$radioButtonGroup$0$domain$$type_library$ 
02:0011CE90 $delayedSelectionChangedListener$radioButtonGroup$0$domain$ 
02:0011CEE0 $selectionChangedListener$radioButtonGroup$0$domain$$type_library$ 
02:0011CEF0 $selectionChangedListener$radioButtonGroup$0$domain$ 
02:0011CF40 $radioButtonGroup$_global$0$domain$$type_library$ 
02:0011CF50 $radioButtonGroup$_global$0$domain$ 
02:0011CF90 interface$radioButtonGroup 
02:0011D020 $clickResponder$radioButton$0$domain$$type_library$ 
02:0011D030 $clickResponder$radioButton$0$domain$ 
02:0011D060 $stateChangedListener$radioButton$0$domain$$type_library$ 
02:0011D070 $stateChangedListener$radioButton$0$domain$ 
02:0011D0B0 $state$radioButton$0$domain$$type_library$ 
02:0011D0C0 $state$radioButton$0$domain$ 
02:0011D110 $radioButton$_global$0$domain$$type_library$ 
02:0011D120 $radioButton$_global$0$domain$ 
02:0011D150 interface$radioButton 
02:0011D1D0 $listEdit$_global$0$domain$$type_library$  (Idle)
02:0011D1E0 $listEdit$_global$0$domain$ 
02:0011D210 interface$listEdit 
02:0011D280 $dropDownListener$listControl$0$domain$$type_library$ 
02:0011D290 $dropDownListener$listControl$0$domain$ 
02:0011D2D0 $closeUpListener$listControl$0$domain$$type_library$ 
02:0011D2E0 $closeUpListener$listControl$0$domain$ 
02:0011D310 $delayedSelectionChangedListener$listControl$0$domain$$type_library$ 
02:0011D320 $delayedSelectionChangedListener$listControl$0$domain$ 
02:0011D370 $selectionChangedListener$listControl$0$domain$$type_library$ 
02:0011D380 $selectionChangedListener$listControl$0$domain$ 
02:0011D3D0 $listControl$_global$0$domain$$type_library$  (Idle)
02:0011D3E0 $listControl$_global$0$domain$ 
02:0011D410 interface$listControl 
02:0011D490 $listButton$_global$0$domain$$type_library$  (Idle)
02:0011D4A0 $listButton$_global$0$domain$ 
02:0011D4D0 interface$listButton 
02:0011D550 $doubleClickListener$listBox$0$domain$$type_library$ 
02:0011D560 $doubleClickListener$listBox$0$domain$ 
02:0011D5A0 $listBox$_global$0$domain$$type_library$ 
02:0011D5B0 $listBox$_global$0$domain$ 
02:0011D5E0 interface$listBox 
02:0011D650 $integerControl$_global$0$domain$$type_library$  (Idle)
02:0011D660 $integerControl$_global$0$domain$ 
02:0011D6A0 interface$integerControl 
02:0011D730 $iconControl$_global$0$domain$$type_library$ 
02:0011D740 $iconControl$_global$0$domain$ 
02:0011D770 interface$iconControl 
02:0011D7F0 $borderStyle$groupBox$0$domain$$type_library$ 
02:0011D800 $borderStyle$groupBox$0$domain$ 
02:0011D8B0 $groupBox$_global$0$domain$$type_library$  (Idle)
02:0011D8C0 $groupBox$_global$0$domain$ 
02:0011D8F0 interface$groupBox 
02:0011D960 $delayedModifiedListener$editControl$0$domain$$type_library$ 
02:0011D970 $delayedModifiedListener$editControl$0$domain$ 
02:0011D9B0 $modifiedListener$editControl$0$domain$$type_library$ 
02:0011D9C0 $modifiedListener$editControl$0$domain$ 
02:0011DA00 $editControl$_global$0$domain$$type_library$ 
02:0011DA10 $editControl$_global$0$domain$ 
02:0011DA40 interface$editControl 
02:0011DAC0 $containerControl$_global$0$domain$$type_library$ 
02:0011DAD0 $containerControl$_global$0$domain$ 
02:0011DB10 interface$containerControl 
02:0011DBA0 $clickResponder$checkButton$0$domain$$type_library$ 
02:0011DBB0 $clickResponder$checkButton$0$domain$ 
02:0011DBE0 $stateChangedListener$checkButton$0$domain$$type_library$ 
02:0011DBF0 $stateChangedListener$checkButton$0$domain$ 
02:0011DC30 $state$checkButton$0$domain$$type_library$ 
02:0011DC40 $state$checkButton$0$domain$ 
02:0011DCA0 $checkButton$_global$0$domain$$type_library$  (Idle)
02:0011DCB0 $checkButton$_global$0$domain$ 
02:0011DCE0 interface$checkButton 
02:0011DD60 $clickResponder$button$0$domain$$type_library$ 
02:0011DD70 $clickResponder$button$0$domain$ 
02:0011DDA0 $actionResponse$button$0$domain$$type_library$  (Idle)
02:0011DDB0 $actionResponse$button$0$domain$ 
02:0011DE20 $button$_global$0$domain$$type_library$ 
02:0011DE30 $button$_global$0$domain$ 
02:0011DE60 interface$button 
02:0011DED0 $anchorEdge$control$0$domain$$type_library$ 
02:0011DEE0 $anchorEdge$control$0$domain$ 
02:0011DF50 $validateResponder$control$0$domain$$type_library$ 
02:0011DF60 $validateResponder$control$0$domain$ 
02:0011DFA0 $validateResult$control$0$domain$$type_library$  (Idle)
02:0011DFCC $validateResult$control$0$domain$ 
02:0011E040 $control$_global$0$domain$$type_library$ 
02:0011E050 $control$_global$0$domain$ 
02:0011E080 interface$control 
02:0011E0E0 $containerWindow$_global$0$domain$$type_library$ 
02:0011E0F0 $containerWindow$_global$0$domain$ 
02:0011E130 interface$containerWindow 
02:0011E1B0 $childWindow$_global$0$domain$$type_library$  (Idle)
02:0011E1C0 $childWindow$_global$0$domain$ 
02:0011E1F0 interface$childWindow 
02:0011E260 $endApplicationListener$applicationWindow$0$domain$$type_library$  (Idle)
02:0011E270 $endApplicationListener$applicationWindow$0$domain$ 
02:0011E2B0 $endSessionResponder$applicationWindow$0$domain$$type_library$ 
02:0011E2C0 $endSessionResponder$applicationWindow$0$domain$ 
02:0011E300 $endSessionResponse$applicationWindow$0$domain$$type_library$  (Idle)
02:0011E310 $endSessionResponse$applicationWindow$0$domain$ 
02:0011E3D0 $errorResponder$applicationWindow$0$domain$$type_library$ 
02:0011E3E0 $errorResponder$applicationWindow$0$domain$ 
02:0011E410 $applicationWindow$_global$0$domain$$type_library$ 
02:0011E420 $applicationWindow$_global$0$domain$ 
02:0011E460 interface$applicationWindow 
--- From 'Obj\Forms.80533223.obj'
02:0011E4E0 $dataBase$_global$0$domain$$type_library$  (Idle)
02:0011E4F0 $dataBase$_global$0$domain$ 
02:0011E520 interface$dataBase 
--- From 'Obj\registry_api.CA39E249.obj'
02:0011E580 $contentsChangedListener$outputStream_string$0$domain$$type_library$ 
02:0011E590 $contentsChangedListener$outputStream_string$0$domain$ 
02:0011E5D0 $outputStream_string$_global$0$domain$$type_library$ 
02:0011E5E0 $outputStream_string$_global$0$domain$ 
02:0011E620 interface$outputStream_string 
--- From 'Obj\ESEngineeringMachine.445B6113.obj'
02:0011E6B0 $mode$stream$0$domain$$type_library$ 
02:0011E6DC $mode$stream$0$domain$ 
02:0011E730 $stream$_global$0$domain$$type_library$  (Idle)
02:0011E740 $stream$_global$0$domain$ 
02:0011E770 interface$stream 
02:0011E7D0 $stdioState$_global$0$domain$$type_library$ 
02:0011E7E0 $stdioState$_global$0$domain$ 
02:0011E810 interface$stdioState 
02:0011E880 $outputSerializer$outputStream$0$domain$$type_library$  (Idle)
02:0011E890 $outputSerializer$outputStream$0$domain$ 
02:0011E8D0 $outputStream$_global$0$domain$$type_library$ 
02:0011E8E0 $outputStream$_global$0$domain$ 
02:0011E910 interface$outputStream 
02:0011E980 $inputStream$_global$0$domain$$type_library$ 
02:0011E990 $inputStream$_global$0$domain$ 
02:0011E9C0 interface$inputStream 
02:0011EA30 $offsetPtr$bufferSupport$0$domain$$type_library$  (Idle)
02:0011EA4C $offsetPtr$bufferSupport$0$domain$ 
02:0011EA90 $bufferSupport$_global$0$domain$$type_library$  (Idle)
02:0011EAA0 $bufferSupport$_global$0$domain$ 
02:0011EAD0 interface$bufferSupport 
02:0011EB50 $runtimeLinkNamesRun$_global$0$domain$$type_library$  (Idle)
02:0011EB60 $runtimeLinkNamesRun$_global$0$domain$ 
02:0011EBA0 interface$runtimeLinkNamesRun 
02:0011EC20 $trapInformationObject$_global$0$domain$$type_library$  (Idle)
02:0011EC30 $trapInformationObject$_global$0$domain$ 
02:0011EC70 interface$trapInformationObject 
02:0011ED10 $errorDescriptorInformation$_global$0$domain$$type_library$ 
02:0011ED20 $errorDescriptorInformation$_global$0$domain$ 
02:0011ED70 interface$errorDescriptorInformation 
02:0011EE20 $disposable$_global$0$domain$$type_library$  (Idle)
02:0011EE30 $disposable$_global$0$domain$ 
02:0011EE60 interface$disposable 
02:0011EEC0 $object$_global$0$domain$$type_library$ 
02:0011EED0 $object$_global$0$domain$ 
02:0011EF00 interface$object 
--- From 'Obj\multiThread.F1B93BE6.obj'
02:0011EF30 $waitableTimer$_global$0$domain$$type_library$  (Idle)
02:0011EF40 $waitableTimer$_global$0$domain$ 
02:0011EF70 interface$waitableTimer 
02:0011EFF0 $thread$_global$0$domain$$type_library$  (Idle)
02:0011F000 $thread$_global$0$domain$ 
02:0011F030 interface$thread 
02:0011F090 $syncObject$_global$0$domain$$type_library$ 
02:0011F0A0 $syncObject$_global$0$domain$ 
02:0011F0D0 interface$syncObject 
02:0011F140 $semaphore$_global$0$domain$$type_library$  (Idle)
02:0011F150 $semaphore$_global$0$domain$ 
02:0011F180 interface$semaphore 
02:0011F1F0 $mutex$_global$0$domain$$type_library$  (Idle)
02:0011F200 $mutex$_global$0$domain$ 
02:0011F220 interface$mutex 
02:0011F280 $event$_global$0$domain$$type_library$  (Idle)
02:0011F290 $event$_global$0$domain$ 
02:0011F2B0 interface$event 
02:0011F310 $criticalSection$_global$0$domain$$type_library$ 
02:0011F320 $criticalSection$_global$0$domain$ 
02:0011F360 interface$criticalSection 
--- From 'Obj\monitorQueue.113845A9.obj'
02:0011F3F0 $monitorQueue{@Elem}$_global$1$domain$$type_library$  (Idle)
02:0011F400 $monitorQueue{@Elem}$_global$1$domain$ 
02:0011F430 interface$monitorQueue{@Elem} 
--- From 'Obj\errorPresentationDialog.9174D14B.obj'
02:0011F4D0 $errorPresentationDialog$_global$0$domain$$type_library$  (Idle)
02:0011F4E0 $errorPresentationDialog$_global$0$domain$ 
02:0011F530 interface$errorPresentationDialog 
--- From 'Obj\registry_api.CA39E249.obj'
02:0011F600 $outputStream_binary$_global$0$domain$$type_library$  (Idle)
02:0011F610 $outputStream_binary$_global$0$domain$ 
02:0011F650 interface$outputStream_binary 
--- From 'Obj\inputStreamSupport.AAEBD08D.obj'
02:0011F6E0 $outputSupport$_global$0$domain$$type_library$  (Idle)
02:0011F6F0 $outputSupport$_global$0$domain$ 
02:0011F720 interface$outputSupport 
02:0011F7C0 $outputBuffer$_global$0$domain$$type_library$ 
02:0011F7D0 $outputBuffer$_global$0$domain$ 
02:0011F800 interface$outputBuffer 
--- From 'Obj\registry_api.CA39E249.obj'
02:0011F8A0 $weakPointer$_global$0$domain$$type_library$ 
02:0011F8B0 $weakPointer$_global$0$domain$ 
02:0011F8E0 interface$weakPointer 
--- From 'Obj\controlSupport.99797704.obj'
02:0011F950 $userControlSupport$_global$0$domain$$type_library$  (Idle)
02:0011F960 $userControlSupport$_global$0$domain$ 
02:0011F9A0 interface$userControlSupport 
02:0011FA50 $styleFlagsEx$_global$0$domain$$type_library$  (Idle)
02:0011FA60 $styleFlagsEx$_global$0$domain$ 
02:0011FA90 interface$styleFlagsEx 
02:0011FB30 $nullControlSupport$_global$0$domain$$type_library$  (Idle)
02:0011FB40 $nullControlSupport$_global$0$domain$ 
02:0011FB80 interface$nullControlSupport 
02:0011FC30 $keyHook$drawControlSupport$0$domain$$type_library$ 
02:0011FC40 $keyHook$drawControlSupport$0$domain$ 
02:0011FCC0 $drawControlSupport$_global$0$domain$$type_library$  (Idle)
02:0011FCD0 $drawControlSupport$_global$0$domain$ 
02:0011FD10 interface$drawControlSupport 
02:0011FDC0 $controlSupport$_global$0$domain$$type_library$  (Idle)
02:0011FDD0 $controlSupport$_global$0$domain$ 
02:0011FE10 interface$controlSupport 
02:0011FEB0 $commonControlSupport$_global$0$domain$$type_library$  (Idle)
02:0011FEC0 $commonControlSupport$_global$0$domain$ 
02:0011FF00 interface$commonControlSupport 
--- From 'Obj\inputStreamSupport.AAEBD08D.obj'
02:0011FFC0 $inputSupport$_global$0$domain$$type_library$  (Idle)
02:0011FFD0 $inputSupport$_global$0$domain$ 
02:00120000 interface$inputSupport 
02:001200A0 $inputBuffer$_global$0$domain$$type_library$ 
02:001200B0 $inputBuffer$_global$0$domain$ 
02:001200E0 interface$inputBuffer 
--- From 'Obj\collectionMsupport.C5291E49.obj'
02:00120170 $setP{@Self,@Type}$_global$2$domain$$type_library$  (Idle)
02:00120180 $setP{@Self,@Type}$_global$2$domain$ 
02:001201A0 interface$setP{@Self,@Type} 
02:00120210 $setM{@Type}$_global$1$domain$$type_library$  (Idle)
02:00120220 $setM{@Type}$_global$1$domain$ 
02:00120240 interface$setM{@Type} 
02:001202B0 $queueP{@Self,@Type}$_global$2$domain$$type_library$  (Idle)
02:001202C0 $queueP{@Self,@Type}$_global$2$domain$ 
02:001202F0 interface$queueP{@Self,@Type} 
02:00120370 $queueM{@Type}$_global$1$domain$$type_library$  (Idle)
02:00120380 $queueM{@Type}$_global$1$domain$ 
02:001203B0 interface$queueM{@Type} 
02:00120420 $persistent{@Self,@Type}$_global$2$domain$$type_library$  (Idle)
02:00120430 $persistent{@Self,@Type}$_global$2$domain$ 
02:00120460 interface$persistent{@Self,@Type} 
02:001204F0 $modifiable{@Type}$_global$1$domain$$type_library$  (Idle)
02:00120500 $modifiable{@Type}$_global$1$domain$ 
02:00120530 interface$modifiable{@Type} 
02:001205B0 $mapP{@Self,@Key,@Data}$_global$3$domain$$type_library$  (Idle)
02:001205C0 $mapP{@Self,@Key,@Data}$_global$3$domain$ 
02:001205E0 interface$mapP{@Self,@Key,@Data} 
02:00120660 $mapM{@Key,@Data}$_global$2$domain$$type_library$  (Idle)
02:00120670 $mapM{@Key,@Data}$_global$2$domain$ 
02:00120690 interface$mapM{@Key,@Data} 
02:00120700 $map{@Key,@Data}$_global$2$domain$$type_library$  (Idle)
02:00120710 $map{@Key,@Data}$_global$2$domain$ 
02:00120730 interface$map{@Key,@Data} 
02:001207A0 $collection{@Type}$_global$1$domain$$type_library$  (Idle)
02:001207B0 $collection{@Type}$_global$1$domain$ 
02:001207E0 interface$collection{@Type} 
--- From 'Obj\regExp.1C7438E9.obj'
02:00120860 $regExp$_global$0$domain$$type_library$  (Idle)
02:00120870 $regExp$_global$0$domain$ 
02:001208A0 interface$regExp 
--- From 'Obj\Forms.80533223.obj'
02:00120900 $resourceIdentifiers$_global$0$domain$$type_library$  (Idle)
02:00120910 $resourceIdentifiers$_global$0$domain$ 
02:00120950 interface$resourceIdentifiers 
--- From 'Obj\mapMSupport.291A338C.obj'
02:001209D0 $mapMSupport{@Key,@Data}$_global$2$domain$$type_library$  (Idle)
02:001209E0 $mapMSupport{@Key,@Data}$_global$2$domain$ 
02:00120A10 interface$mapMSupport{@Key,@Data} 
02:00120AD0 $collectionSupportM\mapMSite{@Key,@Data}$_global$2$domain$$type_library$  (Idle)
02:00120AE0 $collectionSupportM\mapMSite{@Key,@Data}$_global$2$domain$ 
02:00120B30 interface$collectionSupportM\mapMSite{@Key,@Data} 
--- From 'Obj\collectionMsupport.C5291E49.obj'
02:00120C00 $collectionSupportM\collectionMsupport{@Type}$_global$1$domain$$type_library$  (Idle)
02:00120C10 $collectionSupportM\collectionMsupport{@Type}$_global$1$domain$ 
02:00120C70 interface$collectionSupportM\collectionMsupport{@Type} 
02:00120D70 $collectionSupportM\collectionMsite{@Type}$_global$1$domain$$type_library$  (Idle)
02:00120D80 $collectionSupportM\collectionMsite{@Type}$_global$1$domain$ 
02:00120DE0 interface$collectionSupportM\collectionMsite{@Type} 
--- From 'Obj\ESEngineeringMachine.445B6113.obj'
02:00120ED0 $eSEngineeringMachine$_global$0$domain$$type_library$  (Idle)
02:00120EE0 $eSEngineeringMachine$_global$0$domain$ 
02:00120F20 interface$eSEngineeringMachine 
0AD000:073FD0 013B98   VIPStrs::VIPStrs::.rdata F=4
--- From 'Obj\TaskWindow.3D15576A.obj'
02:00120FD0 $$str$792BDA16$TaskWindow\TaskWindow.pack$$ 
02:00121008 $$str$CB63750C$File Description: {FileDescription}$$ 
02:00121050 $$str$8838D404$Copyright: {LegalCopyright}$$ 
02:00121088 $$str$B8923D5E$Company Name: {CompanyName}$$ 
02:001210C0 $$str$8B67F7B8$File Version: {FileVersionA}.{FileVersionB}.{FileVersionC}.{FileVersionD}$$ 
--- From 'Obj\Forms.80533223.obj'
02:00121154 $$str$6B30C4D1$&OK$$ 
--- From 'Obj\TaskWindow.3D15576A.obj'
02:0012115C $$str$4B6CB154$About$$ 
--- From 'Obj\Forms.80533223.obj'
02:00121168 $$str$8433B034$Tahoma$$ 
--- From 'Obj\TaskWindow.3D15576A.obj'
02:00121178 $$str$D733044A$TaskWindow/aboutDialog$$ 
02:001211A8 $$str$CC82BC53$componenteSE$$ 
--- From 'Obj\Toolbars.B027D95B.obj'
02:001211C4 $$str$04EC889E$$$ 
--- From 'Obj\TaskWindow.3D15576A.obj'
02:001211C8 $$str$0D7924E7$TaskWindow/taskWindow$$ 
--- From 'Obj\ESKnowledgeBase.E3D90F95.obj'
02:001211F4 $$str$9F8848E3$ESKnowledgeBase\ESKnowledgeBase.pack$$ 
02:00121240 $$str$E239A1F0$ESKnowledgeBase/certainFactor$$ 
02:0012127C $$str$18BEA190$Tipo de diagnostico: $$ 
02:001212A8 $$str$4F33A766$,    Certeza (Efecto Global): $$ 
02:001212E8 $$str$DA035A95$Diagnostico:$$ 
02:00121304 $$str$CAD38AB7$Datos de Riesgo de Fuga o Toma Clandestina:$$ 
02:0012135C $$str$E820D320$Datos de Prevencion de Fuga o Toma Clandestina:$$ 
02:001213BC $$str$7BD96CE3$     Nm. Regla: $$ 
02:001213E0 $$str$A07AD881$     Contribucion Regla: $$ 
02:00121414 $$str$67686AB8$           Fuente: $$ 
02:0012143C $$str$E3387CCE$Datos de Deteccin de Fuga o Toma Clandestina:$$ 
02:0012149C $$str$5E07D54B$Sistema FO$$ 
02:001214B4 $$str$8815D8A6$Sistema AC$$ 
02:001214CC $$str$A5BD8515$Sistema VV$$ 
02:001214E4 $$str$8A8AA23F$Sistema LC$$ 
02:001214FC $$str$37638BF4$ID PID: $$ 
02:00121510 $$str$4BC31F7B$, ID Regla: $$ 
02:0012152C $$str$8D2C30C8$, Contribucin de la Regla: $$ 
02:00121568 $$str$67AFDB6F$       Fuente: $$ 
02:00121588 $$str$23FEA9C9$KNOWLEDGE BASE FACT: factDeteccionFugaTomaC$$ 
--- From 'Obj\DataBase.D5FA3BBF.obj'
02:001215E0 $$str$E0AEE0D6$EvFO03: $$ 
02:001215F4 $$str$A114D27B$, CertFO03: $$ 
02:00121610 $$str$5894AB08$, LocFO03: $$ 
02:00121628 $$str$1B75076F$, TiempoFO03: $$ 
02:00121648 $$str$D1BC3C6C$EvFO02: $$ 
02:0012165C $$str$035680B0$, CertFO02: $$ 
02:00121678 $$str$A38F0A8A$, LocFO02: $$ 
02:00121690 $$str$D00FCA1F$, TiempoFO02: $$ 
02:001216B0 $$str$E06F1982$PATRON FO: $$ 
02:001216C8 $$str$4EBE5748$EvFO01: $$ 
02:001216DC $$str$0D70DB61$, CertFO01: $$ 
02:001216F8 $$str$69199DB2$, LocFO01: $$ 
02:00121710 $$str$A9BA1213$, TiempoFO01: $$ 
02:00121730 $$str$4A6A0E36$EvAC03: $$ 
02:00121744 $$str$A1D30BFF$, CertAC03: $$ 
02:00121760 $$str$60A657DF$, LocAC03: $$ 
02:00121778 $$str$C8684DB1$, TiempoAC03: $$ 
02:00121798 $$str$CDD443CD$EvAC02: $$ 
02:001217AC $$str$21946A50$, CertAC02: $$ 
02:001217C8 $$str$4307A19A$, LocAC02: $$ 
02:001217E0 $$str$885C860E$, TiempoAC02: $$ 
02:00121800 $$str$FFEBB6B5$PATRON AC: $$ 
02:00121818 $$str$E072815C$EvAC01: $$ 
02:0012182C $$str$52971EED$, CertAC01: $$ 
02:00121848 $$str$D6046BAB$, LocAC01: $$ 
02:00121860 $$str$D9677014$, TiempoAC01: $$ 
02:00121880 $$str$870D5F11$PATRON VV: $$ 
02:00121898 $$str$452AC4CF$EvVV: $$ 
02:001218A8 $$str$2C67C4D0$, CertEvLVV: $$ 
02:001218C4 $$str$1D1AD200$, GastoVV: $$ 
02:001218DC $$str$0FA77844$, CertGastoVV: $$ 
02:001218FC $$str$256C0B83$, LocVV: $$ 
02:00121910 $$str$23236C47$, TiempoVV: $$ 
02:0012192C $$str$58EE68AE$PATRON LC: $$ 
02:00121944 $$str$48EF6D99$EvLC: $$ 
02:00121954 $$str$CBEA754A$, CertEvLC: $$ 
02:00121970 $$str$1684DC1B$, GastoLC: $$ 
02:00121988 $$str$690B46F9$, CertGastoLC: $$ 
02:001219A8 $$str$4AC3CB6E$, LocLC: $$ 
02:001219BC $$str$A276D2D9$, TiempoLC: $$ 
--- From 'Obj\ESKnowledgeBase.E3D90F95.obj'
02:001219D8 $$str$D30863F8$PATRN PID: $$ 
02:001219F4 $$str$00B8C069$ESKnowledgeBase/eSKnowledgeBase$$ 
--- From 'Obj\exe.3FA7EDB2.obj'
02:00121A34 $$str$7AB10C8D$C:\Program Files\Visual Prolog 7.3 PE\pfc\application\Exe\exe.pack$$ 
02:00121ABC $$str$E7CF0380$HResult$$ 
02:00121ACC $$str$C48D0C9E$OleInitialize$$ 
02:00121AE8 $$str$2D6E31D5$$JustDate: 2009-08-05 $$Revision: 30 $$$ 
02:00121B38 $$str$D9AE0CDB$com/visual-prolog/Application/exe/mainExe$$ 
--- From 'Obj\core.9AB527C6.obj'
02:00121B8C $$str$3EBECD45$C:\Program Files\Visual Prolog 7.3 PE\pfc\core.pack$$ 
02:00121BF4 $$str$073483C5$expectedKind$$ 
02:00121C10 $$str$5B658AEE$actualValue$$ 
02:00121C28 $$str$CF072867$$JustDate: 2010-02-11 $$Revision: 13 $$$ 
02:00121C78 $$str$27AB53AE$pfc/core$$ 
02:00121C8C $$str$4BC52C7E$%x$$ 
02:00121C94 $$str$5731F86C$'%c'$$ 
02:00121CA0 $$str$10559FAE$NONE$$ 
02:00121CAC $$str$BFAA1351$Unexpected value kind$$ 
02:00121CD8 $$str$9F74D45F$unexpectedValueKind$$ 
02:00121D00 $$str$568555C2$pointer$$ 
02:00121D10 $$str$154B160E$localTimeValue$$ 
02:00121D30 $$str$7C0E03B0$gmtTimeValue$$ 
02:00121D4C $$str$446964CE$object$$ 
--- From 'Obj\inputStreamSupport.AAEBD08D.obj'
02:00121D5C $$str$71F3284E$binary$$ 
--- From 'Obj\core.9AB527C6.obj'
02:00121D6C $$str$335E7875$string$$ 
02:00121D7C $$str$99BBA197$char$$ 
02:00121D88 $$str$60EC62F7$real$$ 
02:00121D94 $$str$171AF792$integer$$ 
02:00121DA4 $$str$5E147EA7$unsigned$$ 
02:00121DB8 $$str$CA547E24$integer64$$ 
02:00121DCC $$str$441708A6$unsigned64$$ 
02:00121DE4 $$str$EA6DAE6B$boolean$$ 
--- From 'Obj\exception.EF1B34A0.obj'
02:00121DF4 $$str$87C3AAD1$C:\Program Files\Visual Prolog 7.3 PE\pfc\exception\exception.pack$$ 
02:00121E7C $$str$DC46C253$$JustDate: 2010-03-11 $$Revision: 43 $$$ 
02:00121ECC $$str$5319A3A6$com/visual-prolog/exception/common_exception$$ 
02:00121F28 $$str$B5487C75$definiteUserError$$ 
--- From 'Obj\fileSystem.D4345F5C.obj'
02:00121F4C $$str$F8F2D97B$ErrorDescription$$ 
02:00121F70 $$str$B7169910$ErrorCode$$ 
02:00121F84 $$str$9CD58E6B$API function name$$ 
--- From 'Obj\exception.EF1B34A0.obj'
02:00121FA8 $$str$CF6C5602$Listener name$$ 
--- From 'Obj\errorPresentationDialog.9174D14B.obj'
02:00121FC4 $$str$7BB92632$userMessage$$ 
--- From 'Obj\exception.EF1B34A0.obj'
02:00121FDC $$str$BB5B716C$Arguments$$ 
--- From 'Obj\stream.9636460D.obj'
02:00121FF0 $$str$23BF28C8$Predicate name$$ 
--- From 'Obj\exception.EF1B34A0.obj'
02:00122010 $$str$E3B4893A$Overloading expected$$ 
02:0012203C $$str$69943C14$overloadingExpected$$ 
02:00122064 $$str$10067632$An unknown exception has been trapped and continued$$ 
02:001220CC $$str$18BEFA2F$Unsupported predicate$$ 
02:001220F8 $$str$8A8C2693$unsupportedPredicate$$ 
02:00122124 $$str$60C2822C$Internal API function call failed$$ 
02:00122168 $$str$D53C8DD0$nativeCallException$$ 
02:00122190 $$str$1CDBD8F7$A listener raised an exception$$ 
02:001221D0 $$str$D39A1BCF$exceptionInListener$$ 
02:001221F8 $$str$8CFEED00$Listener was not assigned$$ 
02:0012222C $$str$5A96AE98$removeListener$$ 
02:0012224C $$str$39CF60C7$The object could not be created$$ 
02:0012228C $$str$8442437E$couldNotCreate$$ 
02:001222AC $$str$88E65B30$Internal run-time exception occurred$$ 
02:001222F8 $$str$DEEA9F10$internal$$ 
02:0012230C $$str$29A8A80D$HH':'mm':'ss$$ 
02:00122328 $$str$15AD54E8$yyyy'/'MM'/'dd $$ 
--- From 'Obj\exceptionDump.EEBF2A9C.obj'
02:00122348 $$str$488B5997$packedMessage$$ 
--- From 'Obj\exception.EF1B34A0.obj'
02:00122364 $$str$272575B8$Version 1.0$$ 
02:0012237C $$str$0BBC9B06$unknown$$ 
02:0012238C $$str$F706CD40$$JustDate: 2010-03-15 $$Revision: 38 $$$ 
02:001223DC $$str$3D2CCB61$com/visual-prolog/exception/exception$$ 
02:00122428 $$str$4333DD14$External error$$ 
02:00122448 $$str$3801C263$An external run-time error occurred$$ 
02:00122490 $$str$2957B451$externalError$$ 
--- From 'Obj\controls.F62EA529.obj'
02:001224AC $$str$22A5A013$$JustDate: 2009-02-27 $$Revision: 11 $$$ 
--- From 'Obj\exception.EF1B34A0.obj'
02:001224FC $$str$9590E9CE$com/visual-prolog/exception/exception_exception$$ 
02:0012255C $$str$8ABCB2D5$A runtime exception occurred. The runtime_exception handler does not recognize this exception.$$ 
02:0012261C $$str$2DD8F74F$notYetHandledError$$ 
--- From 'Obj\vpi.DCC9845E.obj'
02:00122644 $$str$8BABCF0E$ExtraInfo$$ 
02:00122658 $$str$5FFCEED8$error code$$ 
--- From 'Obj\exception.EF1B34A0.obj'
02:00122670 $$str$5A88EB5F$ODBCBIND package function failed$$ 
02:001226B4 $$str$19F801A4$odbc_error$$ 
02:001226CC $$str$31FCD9EC$Illegal SQL request from ODBCBIND package predicate$$ 
02:00122734 $$str$7168D89D$sql_error$$ 
02:00122748 $$str$C3DFFBE9$No data found$$ 
02:00122764 $$str$884180FC$sql_noDataFound$$ 
02:00122784 $$str$22691B34$Application needs to send data$$ 
02:001227C4 $$str$8C31F114$sql_needData$$ 
02:001227E0 $$str$D38B1CA2$A function that was started asynchronously is still executing$$ 
02:0012285C $$str$7BEA5048$sql_stillExecuting$$ 
02:00122884 $$str$5354002D$Error due to an invalid environment handle, connection handle, or statement handle$$ 
02:0012292C $$str$A6BF3924$sql_invalidHandle$$ 
02:00122950 $$str$060BAA25$Unidentified error in ODBCBIND package$$ 
02:001229A0 $$str$92884A31$odbc_unidentifiedError$$ 
02:001229D0 $$str$057F27FE$Cannot get the address of an exported function$$ 
02:00122A30 $$str$AF6F9D27$cannotGetProcAddress$$ 
02:00122A5C $$str$BAE0010B$Cannot load the module$$ 
02:00122A8C $$str$A5F9BC3F$cannotLoadLibrary$$ 
02:00122AB0 $$str$BEEF646C$Internal error during expanding$$ 
02:00122AF0 $$str$FE9DAECA$binary_DecodeInternalError$$ 
02:00122B28 $$str$FFB464D6$Invalid binary format$$ 
02:00122B54 $$str$AC65019D$binary_invalidFormat$$ 
02:00122B80 $$str$6E3D541D$Invalid binary$$ 
02:00122BA0 $$str$70487CD4$binary_invalidBlock$$ 
02:00122BC8 $$str$B148087C$OS native error occurred$$ 
02:00122BFC $$str$15262384$chainDB_OSNativeError$$ 
02:00122C28 $$str$C1882F1F$Not able to write correct number of bytes to file$$ 
02:00122C8C $$str$BE54D9AB$chainDB_WriteWrongNumberBytes$$ 
02:00122CC8 $$str$653E0A5C$Not able to read correct number of bytes from file$$ 
02:00122D30 $$str$C6720455$chainDB_ReadWrongNumberBytes$$ 
02:00122D6C $$str$F897056B$Wrong chain's internal structure found in Term_delete$$ 
02:00122DD8 $$str$09A7B428$chainDB_WrongChainToDeleteTerm$$ 
02:00122E18 $$str$F56C55DC$Duplicate key isn't allowed in B+tree$$ 
02:00122E64 $$str$0A0418A7$chainDB_DuplicateKey$$ 
02:00122E90 $$str$7C4DDC83$Timeout in begin transaction$$ 
02:00122ECC $$str$D201AC71$chainDB_TimeOutTransaction$$ 
02:00122F04 $$str$A0E18B28$Updating transaction isn't allowed in r/o mode$$ 
02:00122F64 $$str$0FA1E30D$chainDB_UpdatingROTransaction$$ 
02:00122FA0 $$str$C6EDF780$Transaction alrady is opened$$ 
02:00122FDC $$str$CA37C1D7$chainDB_AlreadyOpenTransaction$$ 
02:0012301C $$str$E837678D$Write transaction is not allowed for file in r/o mode$$ 
02:00123088 $$str$5FA82CB0$chainDB_WriteROTransaction$$ 
02:001230C0 $$str$B274DD66$Not inside transaction$$ 
02:001230F0 $$str$A0D619E3$chainDB_NotInTransaction$$ 
02:00123124 $$str$A84A5A42$Incorrect DB version$$ 
02:00123150 $$str$1C73E816$chainDB_IncorrectDBVersion$$ 
02:00123188 $$str$647CEF5E$Key and Ref isn't found in b+tree$$ 
02:001231CC $$str$9BD68259$chainDB_NotFoundKeyAndRef$$ 
02:00123200 $$str$82CB0673$Cannot delete opened B+tree$$ 
02:00123238 $$str$A3CE215F$chainDB_DeleteOpenBTree$$ 
02:00123268 $$str$7FAE8184$Invalid B+tree selector$$ 
02:00123298 $$str$4ABFB5C4$chainDB_InvalidBTreeSel$$ 
02:001232C8 $$str$6790F92D$B+tree is absent$$ 
02:001232EC $$str$77704384$chainDB_AbsentBTree$$ 
02:00123314 $$str$F772EBD3$Chain isn't exists$$ 
02:0012333C $$str$7913AF98$chainDB_AbsentChain$$ 
02:00123364 $$str$B570CBC4$Invalid Ref value$$ 
02:00123388 $$str$6D0570B5$chainDB_InvalidRefVal$$ 
02:001233B4 $$str$5DE6C0CB$Unable delete DB$$ 
02:001233D8 $$str$38EA46EA$chainDB_UnableDeleteDB$$ 
02:00123408 $$str$B5529138$DB is marked as invalid$$ 
02:00123438 $$str$24073185$chainDB_InvalidDB$$ 
02:0012345C $$str$BCA67B52$Unable to open DB in given place$$ 
02:001234A0 $$str$A4E1127E$chainDB_UnableOpenDB$$ 
02:001234CC $$str$BE181C07$Invalid key length value$$ 
02:00123500 $$str$9CD46B0C$chainDB_InvalidKeyValue$$ 
02:00123530 $$str$2B82E2A7$Invalid order value$$ 
02:00123558 $$str$C8FC7B78$chainDB_InvalidOrderValue$$ 
02:0012358C $$str$87044E1D$DB name already exists in specified location$$ 
02:001235E8 $$str$A99EE6E6$chainDB_ExistsDBInPlace$$ 
02:00123618 $$str$7680E01B$B+tree already exists$$ 
02:00123644 $$str$F37D98F5$chainDB_ExistsBTree$$ 
02:0012366C $$str$DF38F4D4$Database isn't open$$ 
02:00123694 $$str$30C8074D$chainDB_NotOpenDB$$ 
02:001236B8 $$str$F5F539F2$Invalid database filename$$ 
02:001236EC $$str$447A90B3$chainDB_InvalidDBFileName$$ 
02:00123720 $$str$03F88A2B$DB already is open$$ 
02:00123748 $$str$844FE8BE$chainDB_DBAlreadyOpen$$ 
02:00123774 $$str$3F378122$Access to non initialized fact$$ 
02:001237B4 $$str$2B17656B$accessToNotInitializedFact$$ 
02:001237EC $$str$86FC48CD$Single fact has no value$$ 
02:00123820 $$str$865990ED$singleFactHasNoValue$$ 
02:0012384C $$str$78B99653$Unexpected free variable$$ 
02:00123880 $$str$4D8D524E$freeVariable$$ 
02:0012389C $$str$37ADCFDC$Heap overflow$$ 
02:001238B8 $$str$6CB922DC$heapOverflow$$ 
02:001238D4 $$str$A5CA7832$Exception in Garbage collector$$ 
02:00123914 $$str$FF59C7A8$gcError$$ 
02:00123924 $$str$1B62E3EE$Fatal error in garbage collector$$ 
02:00123968 $$str$2129714A$gcAbend$$ 
02:00123978 $$str$C743DD05$Internal API call failed$$ 
02:001239AC $$str$A18AE06C$osError$$ 
02:001239BC $$str$C5049505$System exception$$ 
02:001239E0 $$str$BF0D2015$systemException$$ 
02:00123A00 $$str$19A115AF$Unable to create a thread because of the operating system error$$ 
02:00123A80 $$str$3A399328$threadCreation$$ 
02:00123AA0 $$str$EBE838DB$Received character differs from expected one$$ 
02:00123AFC $$str$46217489$expectedChar$$ 
02:00123B18 $$str$64EFAD01$Attempt to retract single fact from database$$ 
02:00123B74 $$str$F1A25488$retractSingleFact$$ 
02:00123B98 $$str$85D0B423$Wrong usage of keyword$$ 
02:00123BC8 $$str$4C552BCD$consult_WrongUsageOfKeyword$$ 
02:00123C00 $$str$99E11163$Wrong comment$$ 
02:00123C1C $$str$5DC0C8F9$consult_WrongComment$$ 
02:00123C48 $$str$88BDDD78$Invalid term's text representation for the domain$$ 
02:00123CAC $$str$B5C95E25$invalidTermRepresentation$$ 
02:00123CE0 $$str$7CC4C2CB$Non floating-point format data$$ 
02:00123D20 $$str$B587D0FD$unsupportedFormat$$ 
02:00123D44 $$str$6DDC9965$Not support function$$ 
02:00123D70 $$str$4C6D804E$notSupportFunction$$ 
02:00123D98 $$str$1F747FF8$vip6run internal error$$ 
02:00123DC8 $$str$AEBF3835$vip6runInternalError$$ 
02:00123DF4 $$str$74EB9673$Wrong calling of ungetchar$$ 
02:00123E2C $$str$1287EB1E$unGetChar$$ 
02:00123E40 $$str$2052FA9D$Value less or equal to zero$$ 
02:00123E78 $$str$3AFF60CD$negZero$$ 
02:00123E88 $$str$DA5BF3C8$Float point overflow$$ 
02:00123EB4 $$str$BBDCC1E3$realOverflow$$ 
02:00123ED0 $$str$AA311265$Attempt to assert a second instance of a determ fact$$ 
02:00123F3C $$str$97A9CF2A$determFact$$ 
02:00123F54 $$str$51A5806C$Unexpected end of stream$$ 
02:00123F88 $$str$D08C35A0$parserUnexpectedEOS$$ 
02:00123FB0 $$str$1B11E7C6$The class inherits itself$$ 
02:00123FE4 $$str$133F678C$cyclicInheritance$$ 
02:00124008 $$str$8D5F3621$A functor name of the domain is expected$$ 
02:0012405C $$str$2CA4DC02$functorNameExpected$$ 
02:00124084 $$str$59567236$Functor is not found in the domain$$ 
02:001240CC $$str$292A0E65$functorNotFound$$ 
02:001240EC $$str$4BB17A63$The value is not in the admissible range for the domain$$ 
02:0012415C $$str$ADD978FE$noRangeNumber$$ 
02:00124178 $$str$16EAAF53$Arithmetic overflow$$ 
02:001241A0 $$str$D521D61E$arithmeticOverflow$$ 
02:001241C8 $$str$CE367986$Integer expected during term reading or converting$$ 
02:00124230 $$str$5E05675F$integerExpected$$ 
02:00124250 $$str$D999941B$Invalid term (spoiled memory)$$ 
02:0012428C $$str$EF864B72$invalidTerm$$ 
02:001242A4 $$str$4BB37203$Invalid format for specified domain$$ 
02:001242EC $$str$8ABF1F8C$invalidFormat$$ 
02:00124308 $$str$84AB0851$Error conversion: non-supported type$$ 
02:00124354 $$str$02D6AF12$objectConversion$$ 
02:00124378 $$str$5F12B863$Wrong number of arguments in the format string$$ 
02:001243D8 $$str$60028343$wrongNumberArgumentForFormat$$ 
02:00124414 $$str$8279DA13$Invalid symbol for some domain is in toTerm predicate$$ 
02:00124480 $$str$E9AD1F75$expectedSymbolFromToTerm$$ 
02:001244B4 $$str$1A1F0A58$The user has shut down$$ 
02:001244E4 $$str$6A8B6A60$shutDown$$ 
02:001244F8 $$str$B9F5633E$The user has logged off$$ 
02:00124528 $$str$AA37464C$logOff$$ 
02:00124538 $$str$6D00D962$The user has closed application$$ 
02:00124578 $$str$8D8E0C0D$closeApplication$$ 
02:0012459C $$str$8CA65E30$The user has pressed Ctrl+Break$$ 
02:001245DC $$str$575AE1A9$ctrlBreak$$ 
02:001245F0 $$str$B5BE3D2C$The user has pressed Ctrl+C$$ 
02:00124628 $$str$6C55C043$ctrlC$$ 
02:00124634 $$str$2A9AC11A$Mismatch version: a module has different version than VIPCore$$ 
02:001246B0 $$str$3C81B469$mismatchVersion$$ 
02:001246D0 $$str$0F8EE4EB$Invalid binary for some domain is in toTerm predicate$$ 
02:0012473C $$str$27E88141$fromBinary$$ 
02:00124754 $$str$C4A0498C$Invalid string for some domain is in toTerm predicate$$ 
02:001247C0 $$str$B6825A13$fromString$$ 
02:001247D8 $$str$F23481C0$New exception is raised while handling another exception$$ 
02:0012484C $$str$23716187$exceptionUnderException$$ 
02:0012487C $$str$DC988BED$Internal error occurred while performing the operation$$ 
02:001248EC $$str$CBF43BCE$internalError$$ 
02:00124908 $$str$F7B1172F$$JustDate: 2010-01-05 $$Revision: 21 $$$ 
02:00124958 $$str$D1446A07$com/visual-prolog/exception/runtime_exception$$ 
--- From 'Obj\controls.F62EA529.obj'
02:001249B4 $$str$732BBE9C$C:\Program Files\Visual Prolog 7.3 PE\pfc\gui\controls\controls.pack$$ 
02:00124A40 $$str$AD928CC5$&Cancel$$ 
02:00124A50 $$str$6CE66D0E$&Ok$$ 
02:00124A58 $$str$4F53F799$$JustDate: 2009-07-21 $$Revision: 10 $$$ 
02:00124AA8 $$str$D9923658$com/visual-prolog/pfc/gui/standardControl/button$$ 
02:00124B0C $$str$F6902A92$Unknown CheckButton State = $$ 
02:00124B48 $$str$6BF4ECFE$Style$$ 
02:00124B54 $$str$A84BC94D$com/visual-prolog/pfc/gui/standardControl/checkButton$$ 
02:00124BC0 $$str$4720E6E4$$JustDate: 2010-01-21 $$Revision: 14 $$$ 
02:00124C10 $$str$F21191AE$com/visual-prolog/pfc/gui/controls/containerControl$$ 
02:00124C78 $$str$4DC4A550$Only one cancel button per dialog is allowed$$ 
02:00124CD4 $$str$5762FD4F$onlyOneCancel_exception$$ 
02:00124D04 $$str$84CCBF82$The specified maximum value is less than the minimum value$$ 
02:00124D7C $$str$29374950$maximumLessThanMinimum_exception$$ 
02:00124DC0 $$str$ED1E471A$The specified minimum value is greater than the maximum value$$ 
02:00124E3C $$str$784C2834$minimumGreaterThanMaximum_exception$$ 
02:00124E84 $$str$1900E842$The real control has an illegal content$$ 
02:00124ED4 $$str$AD02A383$realControlIllegalContent_exception$$ 
02:00124F1C $$str$4CD42B56$The integer control has an illegal content$$ 
02:00124F74 $$str$89114CED$integerControlIllegalContent_exception$$ 
02:00124FC4 $$str$5BA39F0A$RadioButton does not belong to group$$ 
02:00125010 $$str$2D544177$wrongRadioButton_exception$$ 
02:00125048 $$str$4A51CACD$No selected radioButton in group$$ 
02:0012508C $$str$A91CD632$noSelectedRadioButton_exception$$ 
02:001250CC $$str$701F42A8$maximum$$ 
02:001250DC $$str$E8ABA4CC$minimum$$ 
02:001250EC $$str$96F21188$radioButton$$ 
02:00125104 $$str$E3EB5619$pfc/gui/standardControl/standardControl_exception$$ 
02:00125168 $$str$0F38425F$LowerCase$$ 
02:0012517C $$str$496B85E1$UpperCase$$ 
02:00125190 $$str$59CB3F92$HideSel$$ 
02:001251A0 $$str$E0AE47F3$Password$$ 
02:001251B4 $$str$4CEE59CE$WantReturn$$ 
02:001251CC $$str$313AB6FE$Multiline$$ 
02:001251E0 $$str$44BADAEA$AutoVScroll$$ 
02:001251F8 $$str$44A8C202$$JustDate: 2009-12-09 $$Revision: 19 $$$ 
02:00125248 $$str$EC790ABE$com/visual-prolog/pfc/gui/controls/editControl$$ 
--- From 'Obj\exceptionDump.EEBF2A9C.obj'
02:001252A8 $$str$9D0BD12E$ $$ 
--- From 'Obj\controls.F62EA529.obj'
02:001252AC $$str$9928F65F$BorderStyle$$ 
02:001252C4 $$str$08446C49$$JustDate: 2010-03-09 $$Revision: 31 $$$ 
02:00125314 $$str$A9650F4F$com/visual-prolog/_pfc/gui/groupBox$$ 
02:0012535C $$str$998FEEAE$Static$$ 
02:0012536C $$str$5F53EF07$#$$ 
02:00125370 $$str$6D24F26E$$JustDate: 2010-03-15 $$Revision: 26 $$$ 
02:001253C0 $$str$8D1056BA$com/visual-prolog/pfc/gui/iconControl$$ 
02:0012540C $$str$0EF7917F$% must be an integer number$$ 
02:00125444 $$str$D003BC21$$JustDate: 2010-03-08 $$Revision: 11 $$$ 
02:00125494 $$str$D57EF2E5$pfc/gui/standardControl/integerControl$$ 
02:001254E4 $$str$BAF827FF$MultiColumn$$ 
02:001254FC $$str$4AF1EBF4$AutoNotify$$ 
02:00125514 $$str$A2E6D1EE$MultiSelect$$ 
02:0012552C $$str$16C31A79$UseTabstops$$ 
02:00125544 $$str$E0E6AED6$ExtendedSel$$ 
--- From 'Obj\controlSupport.99797704.obj'
02:0012555C $$str$57BA3D68$Border$$ 
--- From 'Obj\controls.F62EA529.obj'
02:0012556C $$str$1280B8A1$HScroll$$ 
02:0012557C $$str$BB475511$getDroppedState$$ 
02:0012559C $$str$0EACF141$getMaxDropDownRows$$ 
02:001255C4 $$str$C86169E5$setMaxDropDownRows$$ 
02:001255EC $$str$9B4FB3BC$removeCloseUpListener$$ 
02:00125618 $$str$7D4C88F5$addCloseUpListener$$ 
02:00125640 $$str$C4FA4476$removeDropDownListener$$ 
02:00125670 $$str$97FC0B3D$addDropDownListener$$ 
02:00125698 $$str$92AD198F$doubleClickListener$$ 
02:001256C0 $$str$F66B2831$$JustDate: 2010-03-08 $$Revision: 7 $$$ 
02:0012570C $$str$255AD05E$com/visual-prolog/pfc/gui/listBox$$ 
02:00125750 $$str$AFB938DA$$JustDate: 2009-02-27 $$Revision: 5 $$$ 
02:0012579C $$str$7EC9F2BD$com/visual-prolog/pfc/gui/standardControl/listButton$$ 
02:00125808 $$str$73CA53A1$	$$ 
02:0012580C $$str$C9E66867$Sort$$ 
02:00125818 $$str$6278868C$AllowPartialRows$$ 
02:0012583C $$str$C8E4F27D$StaticScrollbar$$ 
02:0012585C $$str$AEF30F95$VScroll$$ 
02:0012586C $$str$FC9EB603$dropDownListener$$ 
02:00125890 $$str$597620A9$closeUpListener$$ 
02:001258B0 $$str$E6FD2268$$JustDate: 2010-02-26 $$Revision: 28 $$$ 
02:00125900 $$str$542F515B$com/visual-prolog/pfc/gui/standardControl/listControl$$ 
02:0012596C $$str$C95AB0EC$setCueBanner$$ 
02:00125988 $$str$584FAE76$getWantReturn$$ 
02:001259A4 $$str$0C7E0BB7$setWantReturn$$ 
02:001259C0 $$str$E8EFD14E$getHScroll$$ 
02:001259D8 $$str$383C2928$setHScroll$$ 
02:001259F0 $$str$01267650$getAutoVScroll$$ 
02:00125A10 $$str$47E57162$setAutoVScroll$$ 
02:00125A30 $$str$F399B537$getLowerCase$$ 
02:00125A4C $$str$36AFD4DC$setLowerCase$$ 
02:00125A68 $$str$EC9B3EF0$getUpperCase$$ 
02:00125A84 $$str$BF96D874$setUpperCase$$ 
02:00125AA0 $$str$07003BAD$getAlignment$$ 
02:00125ABC $$str$8BBBD385$setAlignment$$ 
02:00125AD8 $$str$7557D711$getReadOnly$$ 
02:00125AF0 $$str$3EBCF29F$setReadOnly$$ 
02:00125B08 $$str$66FA0590$getHideSel$$ 
02:00125B20 $$str$45A487EA$setHideSel$$ 
02:00125B38 $$str$C07CE68E$getPassword$$ 
02:00125B50 $$str$1A993DC0$setPassword$$ 
02:00125B68 $$str$8CC02ED9$getMultiLine$$ 
02:00125B84 $$str$A68EFF58$setMultiLine$$ 
02:00125BA0 $$str$B4F33DB6$getBorder$$ 
02:00125BB4 $$str$4FF8CA3C$setBorder$$ 
02:00125BC8 $$str$6F1FA527$AutoHScroll$$ 
02:00125BE0 $$str$C282C90D$modifiedListener$$ 
--- From 'Obj\controlSupport.99797704.obj'
02:00125C04 $$str$28D02B50$$JustDate: 2010-03-09 $$Revision: 14 $$$ 
--- From 'Obj\controls.F62EA529.obj'
02:00125C54 $$str$49D9225C$com/visual-prolog/_pfc/gui/listEdit$$ 
02:00125C9C $$str$F7111F2E$state2integral$$ 
02:00125CBC $$str$42B90499$Unknown radioButton State = $$ 
02:00125CF8 $$str$92D7A7F2$LeftText$$ 
02:00125D0C $$str$64E9C508$Auto$$ 
02:00125D18 $$str$04882ADC$stateChangedListener$$ 
02:00125D44 $$str$27AE70EA$com/visual-prolog/pfc/gui/radioButton$$ 
02:00125D90 $$str$F787E110$delayedSelectionChangedListener$$ 
02:00125DD0 $$str$BEA583D7$selectionChangedListener$$ 
--- From 'Obj\std.74E19363.obj'
02:00125E04 $$str$C5E71C18$$JustDate: 2009-02-27 $$Revision: 7 $$$ 
--- From 'Obj\controls.F62EA529.obj'
02:00125E50 $$str$C9D198A2$com/visual-prolog/pfc/gui/standardControl/radioButtonGroup$$ 
02:00125EC8 $$str$CFC02818$% must be less than %$$ 
02:00125EF4 $$str$947664C4$% must be greater than %$$ 
02:00125F28 $$str$91492DED$% must be between % and %$$ 
02:00125F5C $$str$C5D5E6D8$% must be specified$$ 
02:00125F84 $$str$6FF7B7E2$% must be a real (floating point) number$$ 
02:00125FD8 $$str$B7D84E94$$JustDate: 2010-03-08 $$Revision: 10 $$$ 
02:00126028 $$str$AC35843A$pfc/gui/controls/realControl$$ 
02:00126064 $$str$6DDBBBB9$scrollListener$$ 
--- From 'Obj\registry.7837C76D.obj'
02:00126084 $$str$9CE51707$$JustDate: 2010-03-09 $$Revision: 10 $$$ 
--- From 'Obj\controls.F62EA529.obj'
02:001260D4 $$str$DE1649E9$com/visual-prolog/_pfc/gui/scrollControl$$ 
02:00126128 $$str$F53F430E$Wrap$$ 
02:00126134 $$str$6438FB42$Alignment$$ 
02:00126148 $$str$4A8B4507$IgnorePrefix$$ 
02:00126164 $$str$2187E5CA$AlignBaseline$$ 
--- From 'Obj\redBlackTree.DD02B175.obj'
02:00126180 $$str$6B19761F$$JustDate: 2010-03-09 $$Revision: 17 $$$ 
--- From 'Obj\controls.F62EA529.obj'
02:001261D0 $$str$1360FFB9$com/visual-prolog/pfc/gui/textControl$$ 
02:0012621C $$str$CC8F83B4$TimeControl TickListener$$ 
02:00126250 $$str$685E0885$getVpiWindow$$ 
02:0012626C $$str$9810AFF3$pfc/gui/timerControl/timerControl$$ 
--- From 'Obj\fileSystem.D4345F5C.obj'
02:001262B0 $$str$259FAE87$%04x%04x$$ 
02:001262C4 $$str$0025C14D$\VarFileInfo\Translation$$ 
--- From 'Obj\registry.7837C76D.obj'
02:001262F8 $$str$6F20589D$\$$ 
--- From 'Obj\controls.F62EA529.obj'
02:001262FC $$str$AA9622AA$\StringFileInfo\$$ 
02:00126320 $$str$60D23293${([a-zA-Z]|\s)*}$$ 
--- From 'Obj\fileSystem.D4345F5C.obj'
02:00126344 $$str$542ABFCB$LegalCopyright$$ 
02:00126364 $$str$640F7A2F$FileDescription$$ 
02:00126384 $$str$205DE371$.$$ 
02:00126388 $$str$A382340D$FileVersion$$ 
02:001263A0 $$str$A10D9322$CompanyName$$ 
--- From 'Obj\controls.F62EA529.obj'
02:001263B8 $$str$189E55F9${LegalCopyright}$$ 
02:001263DC $$str$6FB46054${FileDescription}$$ 
02:00126400 $$str$53A4FBFD${FileVersionD}$$ 
02:00126420 $$str$20B424CA${FileVersionC}$$ 
02:00126440 $$str$A3A1AD9B${FileVersionB}$$ 
02:00126460 $$str$B5478D41${FileVersionA}$$ 
02:00126480 $$str$25CE1C40${CompanyName}$$ 
02:0012649C $$str$8B935F3D$com/visual-prolog/pfc/gui/Controls/versionControl$$ 
--- From 'Obj\gui.B1A70004.obj'
02:00126500 $$str$A86E8F98$C:\Program Files\Visual Prolog 7.3 PE\pfc\gui\gui.pack$$ 
02:00126570 $$str$EA5A3C5D$$JustDate: 2010-03-22 $$Revision: 27 $$$ 
02:001265C0 $$str$704151A0$com/visual-prolog/pfc/gui/applicationWindow$$ 
02:00126618 $$str$8D5D7095$MDIProperty$$ 
02:00126630 $$str$0B531D46$applicationWindow::get$$ 
02:00126660 $$str$53191EE3$Cannot obtain applcation window$$ 
--- From 'Obj\math.EFFD1445.obj'
02:001266A0 $$str$CA8BFED4$$JustDate: 2010-03-09 $$Revision: 9 $$$ 
--- From 'Obj\gui.B1A70004.obj'
02:001266EC $$str$8B1D8032$com/visual-prolog/pfc/gui/childWindow$$ 
--- From 'Obj\controlSupport.99797704.obj'
02:00126738 $$str$756A53ED$validateResponder$$ 
--- From 'Obj\gui.B1A70004.obj'
02:0012675C $$str$FBA67402$mapDialogRect$$ 
02:00126778 $$str$F341ED7D$Unit$$ 
02:00126784 $$str$C94168A8$Modal$$ 
--- From 'Obj\vpiToolbar.CEE9D0A0.obj'
02:00126790 $$str$2136310A$MS Sans Serif$$ 
--- From 'Obj\gui.B1A70004.obj'
02:001267AC $$str$50EAC904$$JustDate: 2010-03-08 $$Revision: 33 $$$ 
02:001267FC $$str$D868852B$com/visual-prolog/pfc/gui/dialog$$ 
02:00126840 $$str$0E65FE6E$initMenuListener$$ 
02:00126864 $$str$9F304F2F$deactivateListener$$ 
02:0012688C $$str$7F1BCB9A$activateListener$$ 
02:001268B0 $$str$B1D77EA6$Rect$$ 
02:001268BC $$str$533FEFC2$Title$$ 
02:001268C8 $$str$F784685A$$JustDate: 2010-03-22 $$Revision: 23 $$$ 
02:00126918 $$str$4ED107FC$com/visual-prolog/pfc/gui/documentWindow$$ 
02:0012696C $$str$89314EA5$drawFocusRect$$ 
--- From 'Obj\gui_api.12FAE6A8.obj'
02:00126988 $$str$FC9419A9$getScrollInfo$$ 
--- From 'Obj\gui.B1A70004.obj'
02:001269A4 $$str$C11CD9AB$getScrollBarObjCode$$ 
02:001269CC $$str$503D36AF$getScrollBarInfo$$ 
--- From 'Obj\gui_api.12FAE6A8.obj'
02:001269F0 $$str$BFE2B28F$scrollWindowEx$$ 
--- From 'Obj\gui.B1A70004.obj'
02:00126A10 $$str$90795D06$hScrollListener$$ 
02:00126A30 $$str$AA9B2C99$vScrollListener$$ 
02:00126A50 $$str$A4F4D7C3$mouseMoveListener$$ 
02:00126A74 $$str$FD013E4F$mouseDblListener$$ 
02:00126A98 $$str$3D5F791A$mouseUpListener$$ 
02:00126AB8 $$str$9B5023D4$mouseDownListener$$ 
02:00126ADC $$str$567EBA9C$$JustDate: 2010-03-22 $$Revision: 37 $$$ 
02:00126B2C $$str$D081202F$pfc/gui/drawWindow$$ 
02:00126B54 $$str$5736E46E$$JustDate: 2010-03-09 $$Revision: 40 $$$ 
02:00126BA4 $$str$CDE026FD$com/visual-prolog/pfc/gui/formWindow$$ 
02:00126BF0 $$str$72C01FED$Decoration$$ 
02:00126C08 $$str$BB894D85$$JustDate: 2010-03-09 $$Revision: 16 $$$ 
02:00126C58 $$str$D8CA31EB$com/visual-prolog/pfc/Gui/frameDecoration$$ 
02:00126CAC $$str$B0257139$Application window parent cannot be changed$$ 
02:00126D04 $$str$080C8F6D$couldNotSetParent_exception$$ 
02:00126D3C $$str$AC6302F6$Could not obtain initial focus when dialog is shown$$ 
02:00126DA4 $$str$575E07C0$tryGetInitFocusAfterShow_exception$$ 
02:00126DEC $$str$5A35C961$Button does not belong to dialog$$ 
02:00126E30 $$str$7BF7C6F5$wrongButton_exception$$ 
02:00126E5C $$str$5AB91980$Application window object already exists$$ 
02:00126EB0 $$str$2CECAF1F$objectAlreadyExists_exception$$ 
02:00126EEC $$str$1F7EC2BE$Unable to set window property after creation$$ 
02:00126F48 $$str$5B505DBA$unableToSetPropertyAfterShow_exception$$ 
